(dp0
I1
(lp1
I0
aI0
aI0
asI2
(lp2
I0
aI0
aI0
asI3
(lp3
I0
aI0
aI10
asI4
(lp4
I0
aI0
aI2
asI5
(lp5
I0
aI2
aI13
asI6
(lp6
I0
aI0
aI1
asI7
(lp7
I1
aI0
aI1
asI8
(lp8
I0
aI0
aI0
asI9
(lp9
I4
aI0
aI8
asI10
(lp10
I1
aI1
aI6
asI11
(lp11
I0
aI0
aI0
asI12
(lp12
I0
aI0
aI0
asI13
(lp13
I0
aI0
aI0
asI14
(lp14
I0
aI0
aI0
asI15
(lp15
I0
aI0
aI0
asI16
(lp16
I0
aI0
aI0
asI17
(lp17
I0
aI0
aI0
asI18
(lp18
I1
aI1
aI8
asI19
(lp19
I0
aI0
aI0
asI20
(lp20
I3
aI1
aI19
asI21
(lp21
I0
aI0
aI0
asI22
(lp22
I4
aI1
aI40
asI23
(lp23
I0
aI0
aI0
asI24
(lp24
I0
aI2
aI6
asI25
(lp25
I1
aI2
aI6
asI26
(lp26
I0
aI4
aI4
asI27
(lp27
I0
aI0
aI0
asI28
(lp28
I1
aI2
aI40
asI29
(lp29
I11
aI1
aI39
asI30
(lp30
I1
aI2
aI7
asI31
(lp31
I0
aI0
aI2
asI32
(lp32
I1
aI0
aI54
asI33
(lp33
I0
aI0
aI0
asI34
(lp34
I0
aI0
aI1
asI35
(lp35
I0
aI0
aI2
asI36
(lp36
I1
aI1
aI7
asI37
(lp37
I0
aI10
aI14
asI38
(lp38
I0
aI0
aI0
asI39
(lp39
I0
aI0
aI0
asI40
(lp40
I0
aI0
aI0
asI41
(lp41
I0
aI0
aI0
asI42
(lp42
I8
aI69
aI152
asI43
(lp43
I1
aI1
aI16
asI44
(lp44
I0
aI1
aI0
asI45
(lp45
I0
aI0
aI5
asI46
(lp46
I0
aI0
aI0
asI47
(lp47
I0
aI0
aI0
asI48
(lp48
I0
aI0
aI0
asI49
(lp49
I0
aI0
aI2
asI50
(lp50
I0
aI0
aI1
asI51
(lp51
I0
aI0
aI0
asI52
(lp52
I1
aI0
aI3
asI53
(lp53
I2
aI0
aI16
asI54
(lp54
I0
aI0
aI0
asI55
(lp55
I0
aI0
aI0
asI56
(lp56
I0
aI2
aI2
asI57
(lp57
I0
aI1
aI0
asI58
(lp58
I0
aI0
aI0
asI59
(lp59
I0
aI0
aI3
asI60
(lp60
I2
aI0
aI9
asI61
(lp61
I0
aI0
aI1
asI62
(lp62
I0
aI0
aI2
asI63
(lp63
I12
aI7
aI51
asI64
(lp64
I0
aI1
aI5
asI65
(lp65
I0
aI0
aI3
asI66
(lp66
I1
aI0
aI3
asI67
(lp67
I1
aI1
aI6
asI68
(lp68
I4
aI15
aI69
asI69
(lp69
I0
aI0
aI0
asI70
(lp70
I1
aI4
aI12
asI71
(lp71
I0
aI0
aI0
asI72
(lp72
I0
aI0
aI0
asI73
(lp73
I0
aI0
aI1
asI74
(lp74
I0
aI0
aI1
asI75
(lp75
I0
aI0
aI0
asI76
(lp76
I0
aI0
aI0
asI77
(lp77
I0
aI0
aI2
asI78
(lp78
I0
aI0
aI0
asI79
(lp79
I0
aI0
aI0
asI80
(lp80
I0
aI0
aI6
asI81
(lp81
I0
aI0
aI0
asI82
(lp82
I0
aI0
aI0
asI83
(lp83
I0
aI0
aI0
asI84
(lp84
I0
aI0
aI0
asI85
(lp85
I0
aI0
aI0
asI86
(lp86
I0
aI0
aI3
asI87
(lp87
I0
aI0
aI0
asI88
(lp88
I0
aI0
aI0
asI89
(lp89
I0
aI0
aI0
asI90
(lp90
I0
aI0
aI0
asI91
(lp91
I0
aI0
aI2
asI92
(lp92
I2
aI0
aI25
asI93
(lp93
I1
aI0
aI7
asI94
(lp94
I0
aI4
aI18
asI95
(lp95
I13
aI0
aI9
asI96
(lp96
I0
aI0
aI0
asI97
(lp97
I0
aI0
aI0
asI98
(lp98
I0
aI0
aI0
asI99
(lp99
I0
aI0
aI0
asI100
(lp100
I0
aI0
aI0
asI101
(lp101
I0
aI0
aI0
asI102
(lp102
I0
aI0
aI0
asI103
(lp103
I0
aI0
aI0
asI104
(lp104
I0
aI0
aI0
asI105
(lp105
I0
aI0
aI0
asI106
(lp106
I0
aI3
aI1
asI107
(lp107
I0
aI0
aI0
asI108
(lp108
I0
aI0
aI4
asI109
(lp109
I0
aI0
aI1
asI110
(lp110
I0
aI0
aI0
asI111
(lp111
I0
aI0
aI1
asI112
(lp112
I1
aI0
aI0
asI113
(lp113
I1
aI0
aI3
asI114
(lp114
I0
aI0
aI0
asI115
(lp115
I0
aI0
aI0
asI116
(lp116
I0
aI0
aI2
asI117
(lp117
I0
aI0
aI0
asI118
(lp118
I4
aI1
aI39
asI119
(lp119
I0
aI1
aI1
asI120
(lp120
I0
aI0
aI0
asI121
(lp121
I0
aI0
aI0
asI122
(lp122
I0
aI0
aI8
asI123
(lp123
I0
aI0
aI0
asI124
(lp124
I0
aI0
aI0
asI125
(lp125
I2
aI0
aI17
asI126
(lp126
I0
aI0
aI0
asI127
(lp127
I0
aI0
aI0
asI128
(lp128
I0
aI0
aI0
asI129
(lp129
I1
aI0
aI20
asI130
(lp130
I0
aI0
aI2
asI131
(lp131
I0
aI0
aI0
asI132
(lp132
I0
aI0
aI0
asI133
(lp133
I0
aI0
aI0
asI134
(lp134
I0
aI0
aI2
asI135
(lp135
I0
aI0
aI0
asI136
(lp136
I0
aI0
aI0
asI137
(lp137
I0
aI0
aI0
asI138
(lp138
I0
aI0
aI4
asI139
(lp139
I0
aI0
aI0
asI140
(lp140
I0
aI0
aI0
asI141
(lp141
I0
aI0
aI0
asI142
(lp142
I0
aI0
aI0
asI143
(lp143
I0
aI0
aI0
asI144
(lp144
I0
aI0
aI0
asI145
(lp145
I0
aI0
aI0
asI146
(lp146
I0
aI2
aI1
asI147
(lp147
I0
aI0
aI3
asI149
(lp148
I0
aI0
aI4
asI150
(lp149
I0
aI0
aI2
asI151
(lp150
I0
aI0
aI0
asI152
(lp151
I0
aI0
aI0
asI153
(lp152
I0
aI0
aI0
asI154
(lp153
I0
aI1
aI5
asI155
(lp154
I0
aI0
aI1
asI156
(lp155
I0
aI0
aI0
asI157
(lp156
I0
aI0
aI0
asI158
(lp157
I0
aI0
aI0
asI159
(lp158
I0
aI0
aI0
asI160
(lp159
I0
aI0
aI0
asI161
(lp160
I0
aI0
aI0
asI162
(lp161
I0
aI0
aI0
asI163
(lp162
I1
aI0
aI3
asI164
(lp163
I0
aI0
aI0
asI165
(lp164
I0
aI0
aI0
asI166
(lp165
I0
aI0
aI0
asI167
(lp166
I0
aI0
aI0
asI168
(lp167
I0
aI0
aI0
asI169
(lp168
I0
aI0
aI4
asI170
(lp169
I0
aI2
aI1
asI171
(lp170
I0
aI0
aI0
asI172
(lp171
I0
aI5
aI68
asI173
(lp172
I0
aI0
aI0
asI174
(lp173
I0
aI0
aI32
asI175
(lp174
I0
aI0
aI0
asI176
(lp175
I0
aI0
aI2
asI177
(lp176
I0
aI0
aI0
asI178
(lp177
I0
aI0
aI0
asI179
(lp178
I1
aI0
aI23
asI180
(lp179
I0
aI0
aI0
asI181
(lp180
I0
aI0
aI1
asI182
(lp181
I0
aI0
aI0
asI183
(lp182
I0
aI0
aI0
asI184
(lp183
I0
aI0
aI4
asI185
(lp184
I0
aI1
aI4
asI186
(lp185
I0
aI0
aI1
asI187
(lp186
I0
aI0
aI0
asI188
(lp187
I0
aI0
aI0
asI189
(lp188
I0
aI0
aI2
asI190
(lp189
I0
aI0
aI0
asI191
(lp190
I0
aI0
aI0
asI192
(lp191
I0
aI0
aI0
asI193
(lp192
I0
aI0
aI0
asI194
(lp193
I0
aI0
aI0
asI195
(lp194
I0
aI0
aI1
asI196
(lp195
I0
aI0
aI0
asI197
(lp196
I0
aI1
aI4
asI198
(lp197
I0
aI0
aI0
asI199
(lp198
I0
aI0
aI0
asI200
(lp199
I0
aI0
aI0
asI201
(lp200
I0
aI0
aI3
asI202
(lp201
I1
aI0
aI42
asI203
(lp202
I0
aI0
aI0
asI204
(lp203
I0
aI0
aI0
asI205
(lp204
I1
aI0
aI3
asI206
(lp205
I0
aI0
aI0
asI207
(lp206
I1
aI0
aI2
asI208
(lp207
I0
aI0
aI1
asI209
(lp208
I0
aI1
aI0
asI210
(lp209
I2
aI1
aI4
asI211
(lp210
I0
aI0
aI0
asI212
(lp211
I0
aI0
aI0
asI213
(lp212
I0
aI0
aI0
asI214
(lp213
I0
aI0
aI2
asI215
(lp214
I0
aI0
aI0
asI216
(lp215
I0
aI0
aI0
asI217
(lp216
I0
aI1
aI8
asI218
(lp217
I0
aI0
aI0
asI219
(lp218
I0
aI0
aI0
asI220
(lp219
I0
aI0
aI0
asI221
(lp220
I0
aI0
aI0
asI222
(lp221
I0
aI0
aI5
asI223
(lp222
I0
aI0
aI0
asI224
(lp223
I0
aI0
aI0
asI225
(lp224
I0
aI0
aI0
asI226
(lp225
I0
aI0
aI3
asI227
(lp226
I0
aI0
aI0
asI228
(lp227
I0
aI0
aI1
asI229
(lp228
I0
aI0
aI0
asI230
(lp229
I0
aI0
aI1
asI231
(lp230
I0
aI0
aI0
asI232
(lp231
I0
aI0
aI1
asI233
(lp232
I0
aI0
aI0
asI234
(lp233
I0
aI0
aI0
asI235
(lp234
I0
aI0
aI1
asI236
(lp235
I0
aI0
aI0
asI237
(lp236
I0
aI0
aI0
asI238
(lp237
I0
aI0
aI0
asI239
(lp238
I0
aI0
aI8
asI240
(lp239
I0
aI0
aI3
asI241
(lp240
I0
aI0
aI0
asI242
(lp241
I0
aI0
aI0
asI243
(lp242
I0
aI0
aI0
asI244
(lp243
I0
aI0
aI1
asI246
(lp244
I0
aI0
aI0
asI247
(lp245
I0
aI0
aI0
asI248
(lp246
I0
aI0
aI0
asI249
(lp247
I1
aI0
aI2
asI250
(lp248
I0
aI0
aI0
asI251
(lp249
I0
aI0
aI0
asI252
(lp250
I0
aI0
aI0
asI253
(lp251
I0
aI1
aI13
asI254
(lp252
I0
aI0
aI0
asI255
(lp253
I0
aI0
aI0
asI256
(lp254
I0
aI0
aI1
asI257
(lp255
I1
aI0
aI0
asI258
(lp256
I0
aI0
aI0
asI259
(lp257
I0
aI0
aI0
asI260
(lp258
I0
aI0
aI0
asI261
(lp259
I0
aI0
aI0
asI262
(lp260
I0
aI0
aI0
asI263
(lp261
I0
aI0
aI0
asI264
(lp262
I1
aI0
aI2
asI265
(lp263
I0
aI0
aI0
asI266
(lp264
I0
aI0
aI0
asI267
(lp265
I0
aI1
aI0
asI268
(lp266
I0
aI0
aI0
asI269
(lp267
I0
aI0
aI0
asI270
(lp268
I0
aI0
aI0
asI271
(lp269
I0
aI0
aI0
asI272
(lp270
I0
aI0
aI0
asI273
(lp271
I0
aI0
aI0
asI274
(lp272
I0
aI0
aI0
asI275
(lp273
I1
aI0
aI2
asI276
(lp274
I0
aI1
aI0
asI278
(lp275
I0
aI0
aI0
asI279
(lp276
I0
aI0
aI0
asI280
(lp277
I0
aI0
aI0
asI281
(lp278
I0
aI0
aI0
asI282
(lp279
I0
aI0
aI0
asI283
(lp280
I0
aI0
aI0
asI284
(lp281
I1
aI0
aI1
asI285
(lp282
I0
aI0
aI0
asI286
(lp283
I0
aI0
aI0
asI287
(lp284
I0
aI1
aI0
asI288
(lp285
I0
aI0
aI0
asI289
(lp286
I0
aI0
aI0
asI290
(lp287
I0
aI0
aI0
asI291
(lp288
I0
aI0
aI0
asI292
(lp289
I0
aI0
aI0
asI293
(lp290
I0
aI0
aI0
asI294
(lp291
I0
aI0
aI2
asI295
(lp292
I0
aI0
aI0
asI296
(lp293
I0
aI0
aI0
asI297
(lp294
I0
aI0
aI7
asI298
(lp295
I0
aI0
aI0
asI299
(lp296
I0
aI0
aI0
asI300
(lp297
I0
aI0
aI0
asI301
(lp298
I0
aI0
aI0
asI302
(lp299
I0
aI0
aI0
asI303
(lp300
I0
aI0
aI0
asI304
(lp301
I0
aI0
aI0
asI305
(lp302
I0
aI0
aI1
asI307
(lp303
I0
aI0
aI1
asI308
(lp304
I0
aI0
aI1
asI309
(lp305
I0
aI0
aI0
asI310
(lp306
I0
aI1
aI0
asI311
(lp307
I0
aI0
aI0
asI312
(lp308
I0
aI1
aI0
asI313
(lp309
I0
aI0
aI0
asI314
(lp310
I0
aI1
aI0
asI315
(lp311
I0
aI4
aI0
asI316
(lp312
I0
aI0
aI0
asI317
(lp313
I0
aI0
aI0
asI318
(lp314
I0
aI0
aI0
asI319
(lp315
I1
aI8
aI3
asI320
(lp316
I0
aI0
aI0
asI321
(lp317
I0
aI0
aI0
asI322
(lp318
I0
aI0
aI0
asI323
(lp319
I0
aI0
aI0
asI324
(lp320
I0
aI0
aI0
asI325
(lp321
I0
aI0
aI0
asI326
(lp322
I0
aI0
aI3
asI327
(lp323
I0
aI0
aI0
asI328
(lp324
I0
aI0
aI0
asI329
(lp325
I0
aI3
aI2
asI330
(lp326
I0
aI0
aI0
asI331
(lp327
I0
aI0
aI1
asI332
(lp328
I0
aI0
aI0
asI333
(lp329
I0
aI0
aI0
asI334
(lp330
I0
aI0
aI0
asI335
(lp331
I0
aI0
aI0
asI336
(lp332
I0
aI0
aI0
asI337
(lp333
I0
aI0
aI0
asI338
(lp334
I0
aI0
aI0
asI339
(lp335
I0
aI0
aI0
asI340
(lp336
I1
aI0
aI0
asI341
(lp337
I0
aI1
aI0
asI342
(lp338
I0
aI0
aI0
asI343
(lp339
I0
aI0
aI0
asI344
(lp340
I0
aI0
aI7
asI345
(lp341
I0
aI0
aI0
asI346
(lp342
I0
aI0
aI0
asI347
(lp343
I0
aI0
aI0
asI348
(lp344
I0
aI0
aI0
asI349
(lp345
I0
aI0
aI0
asI350
(lp346
I0
aI0
aI0
asI351
(lp347
I1
aI0
aI0
asI352
(lp348
I0
aI0
aI2
asI353
(lp349
I0
aI0
aI0
asI354
(lp350
I0
aI0
aI0
asI355
(lp351
I0
aI0
aI0
asI356
(lp352
I0
aI0
aI2
asI357
(lp353
I0
aI1
aI1
asI358
(lp354
I0
aI0
aI1
asI359
(lp355
I0
aI0
aI0
asI360
(lp356
I0
aI0
aI0
asI361
(lp357
I0
aI0
aI0
asI362
(lp358
I0
aI0
aI0
asI363
(lp359
I0
aI0
aI0
asI364
(lp360
I0
aI0
aI0
asI365
(lp361
I0
aI0
aI0
asI366
(lp362
I0
aI0
aI0
asI367
(lp363
I0
aI0
aI0
asI368
(lp364
I0
aI0
aI0
asI369
(lp365
I0
aI0
aI1
asI370
(lp366
I0
aI0
aI0
asI371
(lp367
I0
aI0
aI0
asI372
(lp368
I0
aI0
aI1
asI373
(lp369
I0
aI0
aI0
asI374
(lp370
I0
aI0
aI1
asI375
(lp371
I0
aI0
aI0
asI376
(lp372
I0
aI1
aI0
asI377
(lp373
I3
aI0
aI4
asI378
(lp374
I0
aI0
aI0
asI379
(lp375
I0
aI0
aI0
asI380
(lp376
I0
aI0
aI0
asI381
(lp377
I0
aI0
aI0
asI382
(lp378
I0
aI0
aI0
asI383
(lp379
I0
aI0
aI0
asI384
(lp380
I0
aI0
aI0
asI385
(lp381
I0
aI0
aI0
asI386
(lp382
I1
aI0
aI0
asI387
(lp383
I0
aI0
aI0
asI388
(lp384
I0
aI0
aI0
asI389
(lp385
I0
aI0
aI0
asI390
(lp386
I0
aI0
aI0
asI391
(lp387
I0
aI0
aI0
asI392
(lp388
I0
aI0
aI0
asI393
(lp389
I0
aI0
aI0
asI394
(lp390
I0
aI0
aI1
asI395
(lp391
I0
aI0
aI0
asI396
(lp392
I0
aI0
aI0
asI397
(lp393
I5
aI4
aI6
asI398
(lp394
I0
aI0
aI0
asI399
(lp395
I0
aI0
aI0
asI400
(lp396
I1
aI0
aI0
asI401
(lp397
I0
aI0
aI0
asI402
(lp398
I0
aI0
aI0
asI403
(lp399
I0
aI0
aI0
asI404
(lp400
I0
aI0
aI1
asI405
(lp401
I1
aI0
aI1
asI406
(lp402
I0
aI0
aI0
asI407
(lp403
I1
aI1
aI1
asI408
(lp404
I0
aI0
aI0
asI409
(lp405
I1
aI0
aI0
asI410
(lp406
I0
aI0
aI0
asI411
(lp407
I0
aI0
aI0
asI412
(lp408
I1
aI0
aI2
asI413
(lp409
I0
aI0
aI0
asI414
(lp410
I0
aI0
aI0
asI415
(lp411
I0
aI0
aI0
asI416
(lp412
I0
aI0
aI0
asI417
(lp413
I0
aI0
aI0
asI418
(lp414
I0
aI0
aI0
asI419
(lp415
I0
aI0
aI0
asI420
(lp416
I0
aI0
aI0
asI421
(lp417
I0
aI0
aI0
asI422
(lp418
I0
aI0
aI0
asI423
(lp419
I0
aI0
aI0
asI424
(lp420
I0
aI0
aI1
asI425
(lp421
I0
aI0
aI0
asI426
(lp422
I0
aI0
aI0
asI428
(lp423
I0
aI0
aI0
asI429
(lp424
I0
aI0
aI0
asI430
(lp425
I0
aI0
aI0
asI431
(lp426
I0
aI0
aI0
asI432
(lp427
I0
aI0
aI0
asI433
(lp428
I0
aI0
aI0
asI434
(lp429
I0
aI0
aI0
asI435
(lp430
I0
aI0
aI0
asI436
(lp431
I0
aI0
aI0
asI438
(lp432
I0
aI0
aI0
asI439
(lp433
I1
aI0
aI3
asI440
(lp434
I0
aI3
aI2
asI441
(lp435
I0
aI0
aI0
asI442
(lp436
I0
aI0
aI0
asI443
(lp437
I0
aI1
aI0
asI444
(lp438
I0
aI0
aI0
asI445
(lp439
I0
aI1
aI0
asI446
(lp440
I0
aI0
aI0
asI447
(lp441
I0
aI0
aI0
asI448
(lp442
I0
aI0
aI0
asI449
(lp443
I0
aI0
aI0
asI450
(lp444
I0
aI0
aI0
asI451
(lp445
I0
aI0
aI0
asI452
(lp446
I0
aI0
aI0
asI453
(lp447
I0
aI2
aI0
asI454
(lp448
I0
aI2
aI1
asI455
(lp449
I0
aI0
aI0
asI456
(lp450
I0
aI3
aI0
asI457
(lp451
I0
aI0
aI0
asI458
(lp452
I0
aI0
aI0
asI459
(lp453
I0
aI0
aI0
asI460
(lp454
I0
aI0
aI0
asI461
(lp455
I0
aI0
aI0
asI462
(lp456
I0
aI0
aI1
asI463
(lp457
I0
aI0
aI0
asI465
(lp458
I0
aI0
aI0
asI466
(lp459
I0
aI0
aI0
asI467
(lp460
I0
aI2
aI3
asI468
(lp461
I0
aI0
aI0
asI469
(lp462
I0
aI0
aI0
asI470
(lp463
I0
aI0
aI0
asI471
(lp464
I0
aI0
aI0
asI472
(lp465
I0
aI0
aI0
asI473
(lp466
I0
aI1
aI0
asI474
(lp467
I0
aI0
aI0
asI475
(lp468
I0
aI0
aI0
asI476
(lp469
I1
aI0
aI0
asI477
(lp470
I0
aI0
aI0
asI478
(lp471
I0
aI1
aI0
asI479
(lp472
I0
aI0
aI0
asI480
(lp473
I0
aI0
aI0
asI481
(lp474
I0
aI1
aI0
asI482
(lp475
I0
aI0
aI0
asI483
(lp476
I0
aI0
aI0
asI484
(lp477
I1
aI0
aI0
asI485
(lp478
I0
aI0
aI0
asI486
(lp479
I0
aI0
aI0
asI487
(lp480
I0
aI0
aI0
asI488
(lp481
I0
aI0
aI0
asI489
(lp482
I0
aI0
aI6
asI490
(lp483
I0
aI0
aI0
asI491
(lp484
I0
aI0
aI0
asI492
(lp485
I0
aI0
aI1
asI493
(lp486
I1
aI2
aI0
asI494
(lp487
I1
aI0
aI0
asI495
(lp488
I0
aI0
aI0
asI496
(lp489
I0
aI0
aI0
asI497
(lp490
I0
aI0
aI0
asI498
(lp491
I0
aI2
aI0
asI499
(lp492
I0
aI1
aI0
asI-1
(lp493
I0
aI0
aI40
as.