(dp0
I0
(lp1
I1
aI0
aI0
asI1
(lp2
I0
aI0
aI0
asI2
(lp3
I16
aI38
aI404
asI3
(lp4
I0
aI0
aI0
asI4
(lp5
I4
aI358
aI2680
asI5
(lp6
I1
aI0
aI0
asI6
(lp7
I0
aI0
aI1
asI7
(lp8
I0
aI128
aI288
asI8
(lp9
I2
aI2
aI1
asI9
(lp10
I0
aI0
aI0
asI10
(lp11
I0
aI0
aI0
asI11
(lp12
I0
aI0
aI9
asI12
(lp13
I41
aI401
aI1912
asI13
(lp14
I10
aI40
aI78
asI14
(lp15
I5
aI9
aI19
asI15
(lp16
I0
aI0
aI0
asI16
(lp17
I1
aI2
aI2
asI17
(lp18
I30
aI7
aI51
asI18
(lp19
I0
aI0
aI2
asI19
(lp20
I0
aI0
aI0
asI20
(lp21
I13
aI33
aI229
asI21
(lp22
I1
aI0
aI2
asI22
(lp23
I0
aI0
aI0
asI23
(lp24
I0
aI0
aI1
asI24
(lp25
I1
aI0
aI0
asI25
(lp26
I1
aI1
aI1
asI26
(lp27
I67
aI108
aI896
asI27
(lp28
I32
aI40
aI23
asI28
(lp29
I0
aI0
aI0
asI29
(lp30
I0
aI0
aI0
asI30
(lp31
I37
aI21
aI81
asI31
(lp32
I1
aI4
aI39
asI32
(lp33
I0
aI1
aI1
asI34
(lp34
I1
aI1
aI2
asI35
(lp35
I15
aI12
aI38
asI36
(lp36
I3
aI2
aI13
asI37
(lp37
I2
aI0
aI2
asI38
(lp38
I0
aI0
aI0
asI39
(lp39
I3
aI18
aI12
asI40
(lp40
I18
aI145
aI417
asI41
(lp41
I0
aI0
aI2
asI42
(lp42
I2
aI1
aI7
asI43
(lp43
I0
aI0
aI7
asI44
(lp44
I5
aI184
aI424
asI45
(lp45
I0
aI0
aI10
asI46
(lp46
I3
aI3
aI4
asI47
(lp47
I19
aI7
aI14
asI48
(lp48
I0
aI0
aI0
asI49
(lp49
I24
aI38
aI342
asI50
(lp50
I1
aI3
aI39
asI51
(lp51
I0
aI0
aI0
asI52
(lp52
I13
aI88
aI82
asI53
(lp53
I0
aI0
aI0
asI54
(lp54
I4
aI0
aI1
asI55
(lp55
I2
aI6
aI49
asI56
(lp56
I33
aI7
aI15
asI57
(lp57
I2
aI3
aI1
asI59
(lp58
I0
aI0
aI0
asI60
(lp59
I6
aI2
aI9
asI61
(lp60
I0
aI0
aI0
asI62
(lp61
I0
aI0
aI0
asI63
(lp62
I0
aI0
aI1
asI64
(lp63
I0
aI2
aI3
asI65
(lp64
I0
aI0
aI0
asI66
(lp65
I1
aI0
aI0
asI67
(lp66
I2
aI0
aI0
asI68
(lp67
I18
aI0
aI16
asI69
(lp68
I0
aI1
aI0
asI70
(lp69
I5
aI3
aI5
asI71
(lp70
I0
aI0
aI0
asI72
(lp71
I7
aI48
aI304
asI73
(lp72
I22
aI12
aI25
asI74
(lp73
I1
aI0
aI0
asI75
(lp74
I8
aI10
aI155
asI76
(lp75
I0
aI12
aI43
asI77
(lp76
I2
aI0
aI1
asI78
(lp77
I1
aI4
aI2
asI79
(lp78
I0
aI0
aI6
asI80
(lp79
I5
aI6
aI4
asI81
(lp80
I2
aI7
aI3
asI82
(lp81
I2
aI1
aI371
asI83
(lp82
I18
aI72
aI710
asI84
(lp83
I24
aI1
aI1
asI85
(lp84
I0
aI12
aI15
asI86
(lp85
I5
aI5
aI62
asI89
(lp86
I0
aI1
aI0
asI90
(lp87
I7
aI50
aI30
asI91
(lp88
I0
aI0
aI0
asI92
(lp89
I1
aI0
aI0
asI93
(lp90
I1
aI62
aI135
asI94
(lp91
I0
aI0
aI0
asI95
(lp92
I0
aI0
aI0
asI96
(lp93
I47
aI388
aI754
asI97
(lp94
I0
aI0
aI0
asI98
(lp95
I0
aI0
aI0
asI99
(lp96
I0
aI0
aI0
asI100
(lp97
I5
aI2
aI0
asI101
(lp98
I7
aI3
aI16
asI102
(lp99
I13
aI5
aI12
asI103
(lp100
I0
aI0
aI0
asI104
(lp101
I10
aI11
aI58
asI105
(lp102
I15
aI101
aI2244
asI106
(lp103
I9
aI1
aI12
asI107
(lp104
I0
aI0
aI0
asI108
(lp105
I0
aI0
aI0
asI109
(lp106
I0
aI0
aI0
asI110
(lp107
I0
aI0
aI0
asI111
(lp108
I9
aI96
aI344
asI112
(lp109
I5
aI0
aI10
asI113
(lp110
I0
aI0
aI4
asI114
(lp111
I0
aI0
aI0
asI115
(lp112
I0
aI0
aI0
asI116
(lp113
I0
aI0
aI3
asI117
(lp114
I0
aI3
aI0
asI118
(lp115
I1
aI6
aI25
asI119
(lp116
I0
aI4
aI1
asI120
(lp117
I1
aI0
aI22
asI121
(lp118
I11
aI2
aI10
asI122
(lp119
I0
aI0
aI0
asI123
(lp120
I5
aI2
aI23
asI124
(lp121
I20
aI42
aI122
asI125
(lp122
I4
aI7
aI24
asI126
(lp123
I0
aI1
aI0
asI127
(lp124
I20
aI34
aI1592
asI128
(lp125
I6
aI19
aI69
asI129
(lp126
I0
aI0
aI0
asI131
(lp127
I0
aI0
aI0
asI132
(lp128
I1
aI6
aI5
asI133
(lp129
I2
aI7
aI19
asI134
(lp130
I6
aI204
aI162
asI135
(lp131
I5
aI9
aI11
asI136
(lp132
I0
aI0
aI0
asI137
(lp133
I0
aI0
aI3
asI138
(lp134
I0
aI0
aI0
asI139
(lp135
I0
aI7
aI0
asI140
(lp136
I2
aI8
aI12
asI141
(lp137
I11
aI6
aI4
asI142
(lp138
I7
aI17
aI42
asI143
(lp139
I1
aI1
aI10
asI144
(lp140
I3
aI27
aI177
asI145
(lp141
I2
aI1
aI6
asI146
(lp142
I0
aI0
aI0
asI147
(lp143
I0
aI0
aI0
asI148
(lp144
I1
aI0
aI0
asI149
(lp145
I9
aI150
aI327
asI150
(lp146
I1
aI9
aI10
asI151
(lp147
I4
aI2
aI0
asI152
(lp148
I4
aI3
aI4
asI153
(lp149
I6
aI4
aI39
asI154
(lp150
I0
aI0
aI0
asI155
(lp151
I0
aI1
aI0
asI156
(lp152
I3
aI0
aI4
asI157
(lp153
I0
aI9
aI6
asI158
(lp154
I3
aI5
aI13
asI159
(lp155
I4
aI3
aI8
asI160
(lp156
I0
aI3
aI4
asI161
(lp157
I5
aI3
aI3
asI162
(lp158
I0
aI0
aI0
asI163
(lp159
I3
aI4
aI1
asI164
(lp160
I3
aI4
aI5
asI166
(lp161
I1
aI0
aI3
asI167
(lp162
I6
aI9
aI19
asI168
(lp163
I0
aI0
aI2
asI169
(lp164
I18
aI11
aI0
asI170
(lp165
I6
aI9
aI2
asI171
(lp166
I3
aI0
aI2
asI172
(lp167
I5
aI2
aI83
asI173
(lp168
I0
aI1
aI0
asI174
(lp169
I2
aI2
aI4
asI175
(lp170
I1
aI0
aI2
asI177
(lp171
I1
aI4
aI13
asI178
(lp172
I10
aI2
aI2
asI179
(lp173
I1
aI1
aI0
asI180
(lp174
I1
aI1
aI4
asI181
(lp175
I2
aI40
aI13
asI182
(lp176
I2
aI0
aI0
asI183
(lp177
I0
aI1
aI0
asI185
(lp178
I22
aI49
aI25
asI186
(lp179
I36
aI35
aI106
asI188
(lp180
I0
aI0
aI0
asI189
(lp181
I3
aI2
aI0
asI190
(lp182
I3
aI3
aI1
asI191
(lp183
I0
aI0
aI1
asI192
(lp184
I0
aI0
aI0
asI193
(lp185
I9
aI2
aI7
asI194
(lp186
I0
aI0
aI0
asI195
(lp187
I0
aI0
aI0
asI196
(lp188
I1
aI0
aI0
asI198
(lp189
I0
aI0
aI0
asI199
(lp190
I1
aI7
aI4
asI200
(lp191
I0
aI0
aI0
asI201
(lp192
I1
aI53
aI53
asI202
(lp193
I0
aI0
aI3
asI203
(lp194
I0
aI0
aI0
asI204
(lp195
I0
aI0
aI0
asI205
(lp196
I0
aI0
aI0
asI206
(lp197
I0
aI0
aI0
asI207
(lp198
I1
aI5
aI14
asI208
(lp199
I2
aI0
aI0
asI209
(lp200
I0
aI1
aI0
asI210
(lp201
I1
aI0
aI1
asI211
(lp202
I0
aI0
aI0
asI213
(lp203
I0
aI0
aI0
asI214
(lp204
I0
aI0
aI3
asI216
(lp205
I0
aI0
aI0
asI217
(lp206
I7
aI0
aI0
asI218
(lp207
I1
aI0
aI0
asI219
(lp208
I0
aI1
aI0
asI220
(lp209
I1
aI0
aI0
asI221
(lp210
I12
aI5
aI2
asI222
(lp211
I2
aI6
aI1
asI223
(lp212
I1
aI0
aI0
asI224
(lp213
I2
aI2
aI27
asI225
(lp214
I4
aI19
aI12
asI226
(lp215
I25
aI4
aI4
asI227
(lp216
I0
aI0
aI0
asI228
(lp217
I0
aI0
aI526
asI230
(lp218
I34
aI35
aI66
asI231
(lp219
I6
aI70
aI48
asI232
(lp220
I0
aI2
aI1
asI233
(lp221
I6
aI37
aI41
asI234
(lp222
I1
aI0
aI1
asI235
(lp223
I6
aI3
aI15
asI236
(lp224
I2
aI0
aI11
asI238
(lp225
I0
aI0
aI0
asI239
(lp226
I0
aI1
aI7
asI240
(lp227
I1
aI0
aI0
asI241
(lp228
I3
aI2
aI1
asI242
(lp229
I1
aI0
aI1
asI243
(lp230
I2
aI0
aI0
asI244
(lp231
I0
aI0
aI0
asI245
(lp232
I1
aI29
aI68
asI246
(lp233
I33
aI242
aI145
asI247
(lp234
I2
aI0
aI0
asI248
(lp235
I5
aI0
aI3
asI249
(lp236
I1
aI0
aI0
asI250
(lp237
I3
aI2
aI3
asI251
(lp238
I0
aI1
aI0
asI252
(lp239
I6
aI1
aI0
asI253
(lp240
I4
aI0
aI0
asI254
(lp241
I26
aI8
aI21
asI255
(lp242
I3
aI2
aI1
asI256
(lp243
I10
aI2
aI5
asI257
(lp244
I20
aI23
aI61
asI258
(lp245
I4
aI2
aI15
asI259
(lp246
I4
aI1
aI2
asI260
(lp247
I1
aI0
aI3
asI261
(lp248
I0
aI0
aI0
asI262
(lp249
I4
aI0
aI0
asI263
(lp250
I1
aI2
aI2
asI264
(lp251
I1
aI0
aI0
asI265
(lp252
I1
aI0
aI0
asI266
(lp253
I16
aI1
aI10
asI267
(lp254
I0
aI0
aI0
asI268
(lp255
I0
aI2
aI2
asI269
(lp256
I7
aI2
aI0
asI270
(lp257
I6
aI0
aI0
asI271
(lp258
I0
aI36
aI1
asI272
(lp259
I0
aI0
aI0
asI273
(lp260
I3
aI2
aI2
asI274
(lp261
I0
aI0
aI0
asI275
(lp262
I3
aI5
aI1
asI276
(lp263
I0
aI0
aI0
asI277
(lp264
I29
aI8
aI17
asI278
(lp265
I1
aI0
aI0
asI279
(lp266
I8
aI0
aI3
asI281
(lp267
I5
aI1
aI12
asI282
(lp268
I7
aI1
aI0
asI283
(lp269
I3
aI0
aI0
asI284
(lp270
I5
aI0
aI0
asI285
(lp271
I0
aI1
aI0
asI286
(lp272
I1
aI0
aI0
asI287
(lp273
I0
aI0
aI0
asI288
(lp274
I3
aI0
aI2
asI291
(lp275
I1
aI0
aI0
asI292
(lp276
I51
aI12
aI36
asI293
(lp277
I0
aI1
aI0
asI294
(lp278
I7
aI109
aI11
asI295
(lp279
I4
aI0
aI6
asI296
(lp280
I1
aI0
aI0
asI297
(lp281
I1
aI0
aI0
asI298
(lp282
I1
aI0
aI0
asI299
(lp283
I14
aI3
aI0
asI300
(lp284
I5
aI1
aI1
asI301
(lp285
I2
aI1
aI0
asI303
(lp286
I1
aI0
aI0
asI304
(lp287
I1
aI0
aI0
asI305
(lp288
I1
aI0
aI0
asI306
(lp289
I1
aI3
aI11
asI307
(lp290
I5
aI1
aI54
asI308
(lp291
I11
aI1
aI5
asI309
(lp292
I4
aI32
aI22
asI310
(lp293
I12
aI4
aI2
asI311
(lp294
I1
aI0
aI0
asI312
(lp295
I0
aI0
aI1
asI313
(lp296
I1
aI0
aI0
asI314
(lp297
I2
aI1
aI0
asI315
(lp298
I0
aI1
aI24
asI316
(lp299
I2
aI0
aI0
asI317
(lp300
I1
aI0
aI0
asI318
(lp301
I13
aI1
aI0
asI319
(lp302
I1
aI0
aI0
asI320
(lp303
I9
aI0
aI4
asI321
(lp304
I21
aI8
aI19
asI322
(lp305
I1
aI0
aI0
asI323
(lp306
I5
aI1
aI4
asI324
(lp307
I12
aI20
aI0
asI325
(lp308
I2
aI1
aI0
asI326
(lp309
I1
aI0
aI0
asI327
(lp310
I1
aI0
aI1
asI328
(lp311
I0
aI0
aI0
asI329
(lp312
I1
aI0
aI2
asI330
(lp313
I1
aI4
aI3
asI331
(lp314
I6
aI0
aI0
asI332
(lp315
I1
aI0
aI0
asI333
(lp316
I9
aI2
aI9
asI334
(lp317
I6
aI1
aI3
asI335
(lp318
I0
aI0
aI0
asI337
(lp319
I0
aI0
aI0
asI338
(lp320
I1
aI0
aI0
asI339
(lp321
I1
aI1
aI0
asI340
(lp322
I1
aI0
aI0
asI342
(lp323
I2
aI2
aI0
asI343
(lp324
I1
aI0
aI0
asI344
(lp325
I2
aI0
aI0
asI345
(lp326
I1
aI4
aI2
asI346
(lp327
I0
aI0
aI0
asI347
(lp328
I1
aI0
aI0
asI349
(lp329
I3
aI0
aI0
asI350
(lp330
I5
aI5
aI3
asI351
(lp331
I0
aI0
aI0
asI352
(lp332
I5
aI0
aI5
asI353
(lp333
I1
aI1
aI6
asI354
(lp334
I14
aI3
aI21
asI356
(lp335
I1
aI0
aI0
asI357
(lp336
I4
aI0
aI1
asI358
(lp337
I1
aI1
aI1
asI359
(lp338
I0
aI0
aI0
asI360
(lp339
I4
aI3
aI2
asI361
(lp340
I0
aI2
aI0
asI362
(lp341
I0
aI0
aI0
asI363
(lp342
I1
aI0
aI0
asI364
(lp343
I1
aI0
aI0
asI365
(lp344
I0
aI0
aI7
asI367
(lp345
I3
aI0
aI0
asI368
(lp346
I3
aI1
aI1
asI369
(lp347
I1
aI0
aI0
asI370
(lp348
I1
aI2
aI2
asI371
(lp349
I1
aI0
aI0
asI372
(lp350
I1
aI0
aI0
asI373
(lp351
I1
aI0
aI0
asI374
(lp352
I10
aI3
aI27
asI375
(lp353
I1
aI0
aI1
asI376
(lp354
I0
aI0
aI0
asI377
(lp355
I1
aI0
aI0
asI378
(lp356
I3
aI1
aI0
asI379
(lp357
I4
aI0
aI1
asI380
(lp358
I2
aI1
aI2
asI381
(lp359
I13
aI0
aI1
asI382
(lp360
I1
aI2
aI0
asI383
(lp361
I2
aI1
aI2
asI384
(lp362
I1
aI0
aI0
asI385
(lp363
I1
aI7
aI0
asI386
(lp364
I2
aI0
aI1
asI387
(lp365
I4
aI0
aI0
asI388
(lp366
I4
aI1
aI0
asI390
(lp367
I2
aI0
aI0
asI391
(lp368
I1
aI0
aI0
asI392
(lp369
I7
aI13
aI5
asI393
(lp370
I1
aI0
aI0
asI394
(lp371
I1
aI2
aI0
asI395
(lp372
I1
aI0
aI0
asI396
(lp373
I0
aI32
aI17
asI397
(lp374
I0
aI0
aI0
asI398
(lp375
I21
aI18
aI32
asI400
(lp376
I1
aI0
aI0
asI401
(lp377
I15
aI16
aI14
asI402
(lp378
I0
aI0
aI0
asI403
(lp379
I0
aI0
aI0
asI405
(lp380
I0
aI0
aI0
asI406
(lp381
I1
aI0
aI0
asI407
(lp382
I1
aI0
aI0
asI409
(lp383
I3
aI4
aI1
asI410
(lp384
I5
aI5
aI0
asI411
(lp385
I2
aI1
aI0
asI412
(lp386
I1
aI0
aI0
asI413
(lp387
I2
aI0
aI0
asI414
(lp388
I4
aI0
aI2
asI415
(lp389
I12
aI15
aI2
asI417
(lp390
I0
aI0
aI0
asI418
(lp391
I4
aI11
aI0
asI419
(lp392
I1
aI0
aI0
asI420
(lp393
I8
aI85
aI20
asI421
(lp394
I2
aI2
aI0
asI422
(lp395
I2
aI1
aI3
asI423
(lp396
I6
aI6
aI2
asI424
(lp397
I3
aI0
aI1
asI425
(lp398
I1
aI0
aI0
asI426
(lp399
I1
aI0
aI14
asI427
(lp400
I1
aI0
aI0
asI428
(lp401
I1
aI0
aI0
asI429
(lp402
I20
aI1
aI0
asI430
(lp403
I0
aI0
aI0
asI431
(lp404
I0
aI1
aI0
asI432
(lp405
I0
aI0
aI0
asI433
(lp406
I9
aI7
aI1
asI434
(lp407
I0
aI0
aI0
asI435
(lp408
I0
aI0
aI0
asI436
(lp409
I1
aI0
aI0
asI437
(lp410
I1
aI0
aI0
asI438
(lp411
I7
aI0
aI0
asI439
(lp412
I7
aI1
aI10
asI440
(lp413
I5
aI2
aI0
asI441
(lp414
I1
aI0
aI0
asI442
(lp415
I1
aI1
aI0
asI444
(lp416
I1
aI0
aI2
asI445
(lp417
I1
aI0
aI0
asI446
(lp418
I3
aI1
aI6
asI447
(lp419
I2
aI1
aI0
asI449
(lp420
I1
aI0
aI1
asI450
(lp421
I2
aI1
aI0
asI451
(lp422
I0
aI0
aI0
asI452
(lp423
I1
aI0
aI0
asI453
(lp424
I2
aI0
aI0
asI454
(lp425
I1
aI0
aI0
asI455
(lp426
I1
aI0
aI0
asI456
(lp427
I9
aI7
aI1
asI457
(lp428
I3
aI0
aI5
asI458
(lp429
I3
aI0
aI0
asI459
(lp430
I0
aI0
aI0
asI460
(lp431
I2
aI0
aI7
asI461
(lp432
I1
aI0
aI0
asI463
(lp433
I0
aI1
aI0
asI464
(lp434
I4
aI0
aI0
asI465
(lp435
I8
aI0
aI3
asI466
(lp436
I1
aI0
aI0
asI467
(lp437
I2
aI0
aI0
asI468
(lp438
I1
aI0
aI0
asI469
(lp439
I8
aI4
aI0
asI471
(lp440
I4
aI5
aI9
asI472
(lp441
I1
aI0
aI0
asI473
(lp442
I2
aI0
aI0
asI474
(lp443
I26
aI23
aI23
asI475
(lp444
I0
aI0
aI2
asI476
(lp445
I0
aI0
aI0
asI478
(lp446
I9
aI2
aI2
asI479
(lp447
I1
aI0
aI0
asI480
(lp448
I10
aI1
aI1
asI481
(lp449
I0
aI4
aI0
asI482
(lp450
I1
aI0
aI0
asI483
(lp451
I10
aI44
aI22
asI484
(lp452
I2
aI1
aI1
asI485
(lp453
I1
aI0
aI0
asI486
(lp454
I0
aI0
aI0
asI487
(lp455
I1
aI0
aI0
asI488
(lp456
I3
aI2
aI0
asI490
(lp457
I1
aI0
aI0
asI491
(lp458
I3
aI1
aI1
asI492
(lp459
I4
aI0
aI1
asI493
(lp460
I0
aI0
aI0
asI494
(lp461
I1
aI0
aI1
asI495
(lp462
I3
aI0
aI0
asI496
(lp463
I3
aI0
aI1
asI497
(lp464
I0
aI0
aI0
asI498
(lp465
I0
aI0
aI0
asI499
(lp466
I10
aI2
aI2
asI500
(lp467
I1
aI121
aI4
asI501
(lp468
I0
aI0
aI0
asI502
(lp469
I2
aI1
aI0
asI504
(lp470
I1
aI0
aI0
asI505
(lp471
I6
aI4
aI4
asI506
(lp472
I2
aI0
aI1
asI507
(lp473
I0
aI0
aI0
asI508
(lp474
I0
aI0
aI0
asI509
(lp475
I1
aI0
aI0
asI510
(lp476
I2
aI2
aI0
asI511
(lp477
I1
aI2
aI0
asI512
(lp478
I0
aI0
aI0
asI513
(lp479
I0
aI0
aI0
asI514
(lp480
I0
aI0
aI0
asI515
(lp481
I0
aI0
aI0
asI517
(lp482
I17
aI2
aI0
asI518
(lp483
I1
aI0
aI0
asI519
(lp484
I6
aI4
aI7
asI520
(lp485
I0
aI20
aI12
asI521
(lp486
I1
aI5
aI4
asI522
(lp487
I4
aI2
aI0
asI523
(lp488
I1
aI0
aI0
asI524
(lp489
I3
aI0
aI1
asI525
(lp490
I0
aI0
aI1
asI526
(lp491
I0
aI0
aI0
asI527
(lp492
I0
aI0
aI0
asI528
(lp493
I0
aI1
aI0
asI529
(lp494
I1
aI0
aI0
asI530
(lp495
I6
aI0
aI4
asI531
(lp496
I1
aI1
aI0
asI532
(lp497
I0
aI0
aI0
asI533
(lp498
I12
aI2
aI6
asI534
(lp499
I1
aI0
aI0
asI535
(lp500
I3
aI1
aI0
asI536
(lp501
I0
aI0
aI0
asI537
(lp502
I3
aI0
aI1
asI538
(lp503
I1
aI0
aI0
asI539
(lp504
I3
aI1
aI5
asI540
(lp505
I2
aI0
aI0
asI541
(lp506
I1
aI0
aI0
asI542
(lp507
I2
aI0
aI0
asI543
(lp508
I1
aI0
aI0
asI544
(lp509
I1
aI0
aI1
asI545
(lp510
I2
aI1
aI0
asI547
(lp511
I7
aI0
aI0
asI548
(lp512
I2
aI0
aI1
asI549
(lp513
I1
aI1
aI1
asI550
(lp514
I1
aI0
aI0
asI551
(lp515
I3
aI0
aI2
asI552
(lp516
I6
aI1
aI4
asI553
(lp517
I1
aI0
aI0
asI554
(lp518
I1
aI0
aI0
asI555
(lp519
I0
aI0
aI0
asI556
(lp520
I1
aI0
aI0
asI557
(lp521
I10
aI0
aI2
asI558
(lp522
I0
aI0
aI0
asI559
(lp523
I6
aI4
aI2
asI560
(lp524
I0
aI0
aI0
asI562
(lp525
I2
aI1
aI1
asI563
(lp526
I0
aI0
aI0
asI564
(lp527
I0
aI0
aI0
asI565
(lp528
I0
aI0
aI0
asI566
(lp529
I0
aI0
aI0
asI568
(lp530
I1
aI0
aI0
asI569
(lp531
I1
aI0
aI0
asI570
(lp532
I5
aI0
aI0
asI571
(lp533
I0
aI1
aI0
asI572
(lp534
I0
aI0
aI0
asI573
(lp535
I2
aI0
aI0
asI575
(lp536
I0
aI0
aI0
asI576
(lp537
I0
aI0
aI0
asI577
(lp538
I0
aI0
aI0
asI578
(lp539
I1
aI0
aI0
asI579
(lp540
I1
aI0
aI0
asI581
(lp541
I10
aI3
aI13
asI582
(lp542
I0
aI0
aI0
asI583
(lp543
I1
aI0
aI0
asI584
(lp544
I1
aI0
aI0
asI585
(lp545
I1
aI1
aI0
asI586
(lp546
I7
aI1
aI13
asI587
(lp547
I0
aI0
aI0
asI588
(lp548
I3
aI0
aI1
asI589
(lp549
I2
aI0
aI0
asI590
(lp550
I0
aI1
aI0
asI592
(lp551
I1
aI1
aI0
asI593
(lp552
I1
aI0
aI0
asI594
(lp553
I2
aI0
aI0
asI595
(lp554
I1
aI0
aI0
asI596
(lp555
I1
aI0
aI2
asI597
(lp556
I0
aI0
aI0
asI599
(lp557
I1
aI1
aI0
asI600
(lp558
I1
aI0
aI0
asI601
(lp559
I0
aI0
aI0
asI602
(lp560
I0
aI1
aI0
asI603
(lp561
I0
aI0
aI0
asI604
(lp562
I1
aI0
aI0
asI606
(lp563
I4
aI1
aI5
asI608
(lp564
I1
aI0
aI0
asI609
(lp565
I2
aI0
aI0
asI610
(lp566
I13
aI20
aI2
asI611
(lp567
I0
aI0
aI0
asI612
(lp568
I0
aI0
aI0
asI614
(lp569
I1
aI0
aI0
asI615
(lp570
I0
aI0
aI0
asI616
(lp571
I0
aI0
aI0
asI617
(lp572
I3
aI0
aI0
asI618
(lp573
I0
aI0
aI0
asI619
(lp574
I9
aI1
aI1
asI621
(lp575
I3
aI1
aI5
asI622
(lp576
I0
aI0
aI0
asI623
(lp577
I7
aI2
aI0
asI624
(lp578
I2
aI0
aI0
asI625
(lp579
I1
aI1
aI0
asI626
(lp580
I0
aI0
aI0
asI627
(lp581
I4
aI1
aI0
asI628
(lp582
I0
aI0
aI0
asI629
(lp583
I1
aI1
aI0
asI630
(lp584
I1
aI0
aI0
asI631
(lp585
I2
aI0
aI2
asI632
(lp586
I0
aI0
aI0
asI633
(lp587
I1
aI0
aI0
asI634
(lp588
I0
aI0
aI0
asI635
(lp589
I18
aI6
aI22
asI637
(lp590
I9
aI3
aI14
asI638
(lp591
I8
aI3
aI16
asI639
(lp592
I1
aI0
aI0
asI640
(lp593
I5
aI0
aI2
asI641
(lp594
I5
aI1
aI0
asI642
(lp595
I4
aI1
aI1
asI643
(lp596
I1
aI0
aI0
asI644
(lp597
I4
aI2
aI1
asI645
(lp598
I3
aI0
aI0
asI646
(lp599
I6
aI0
aI0
asI647
(lp600
I2
aI0
aI3
asI648
(lp601
I4
aI2
aI6
asI649
(lp602
I1
aI1
aI0
asI650
(lp603
I2
aI1
aI73
asI651
(lp604
I4
aI0
aI0
asI652
(lp605
I34
aI17
aI20
asI653
(lp606
I8
aI2
aI14
asI654
(lp607
I4
aI2
aI0
asI655
(lp608
I8
aI0
aI0
asI656
(lp609
I1
aI0
aI0
asI657
(lp610
I2
aI1
aI0
asI658
(lp611
I1
aI0
aI0
asI660
(lp612
I19
aI6
aI25
asI662
(lp613
I0
aI0
aI0
asI663
(lp614
I1
aI0
aI0
asI664
(lp615
I1
aI1
aI0
asI665
(lp616
I3
aI0
aI0
asI666
(lp617
I3
aI4
aI4
asI667
(lp618
I0
aI0
aI0
asI668
(lp619
I4
aI0
aI14
asI669
(lp620
I1
aI1
aI0
asI670
(lp621
I0
aI0
aI0
asI671
(lp622
I2
aI0
aI0
asI672
(lp623
I2
aI0
aI0
asI673
(lp624
I1
aI0
aI2
asI674
(lp625
I1
aI0
aI3
asI675
(lp626
I0
aI0
aI0
asI677
(lp627
I0
aI0
aI1
asI678
(lp628
I2
aI0
aI0
asI679
(lp629
I0
aI0
aI0
asI680
(lp630
I1
aI0
aI0
asI682
(lp631
I2
aI0
aI1
asI683
(lp632
I0
aI0
aI0
asI685
(lp633
I1
aI0
aI0
asI686
(lp634
I9
aI1
aI0
asI687
(lp635
I1
aI0
aI0
asI688
(lp636
I1
aI0
aI0
asI689
(lp637
I14
aI2
aI3
asI690
(lp638
I1
aI0
aI0
asI691
(lp639
I2
aI1
aI0
asI692
(lp640
I3
aI0
aI0
asI693
(lp641
I2
aI0
aI0
asI694
(lp642
I0
aI0
aI0
asI695
(lp643
I1
aI2
aI0
asI697
(lp644
I2
aI0
aI2
asI698
(lp645
I1
aI0
aI0
asI699
(lp646
I0
aI0
aI0
asI700
(lp647
I1
aI0
aI1
asI701
(lp648
I1
aI0
aI1
asI704
(lp649
I5
aI2
aI7
asI705
(lp650
I4
aI0
aI1
asI706
(lp651
I1
aI0
aI0
asI707
(lp652
I2
aI0
aI0
asI708
(lp653
I1
aI0
aI0
asI709
(lp654
I1
aI0
aI1
asI710
(lp655
I2
aI0
aI0
asI711
(lp656
I18
aI6
aI14
asI712
(lp657
I1
aI0
aI0
asI713
(lp658
I2
aI1
aI0
asI714
(lp659
I4
aI2
aI1
asI715
(lp660
I13
aI6
aI2
asI716
(lp661
I9
aI1
aI1
asI717
(lp662
I1
aI0
aI0
asI719
(lp663
I1
aI0
aI0
asI721
(lp664
I1
aI0
aI0
asI722
(lp665
I1
aI0
aI0
asI723
(lp666
I1
aI0
aI0
asI724
(lp667
I1
aI0
aI0
asI725
(lp668
I1
aI0
aI0
asI726
(lp669
I0
aI1
aI0
asI727
(lp670
I0
aI0
aI0
asI729
(lp671
I6
aI0
aI1
asI730
(lp672
I0
aI0
aI0
asI731
(lp673
I2
aI0
aI0
asI732
(lp674
I1
aI0
aI0
asI733
(lp675
I3
aI0
aI0
asI734
(lp676
I2
aI1
aI0
asI735
(lp677
I2
aI0
aI0
asI736
(lp678
I0
aI0
aI0
asI737
(lp679
I0
aI0
aI0
asI738
(lp680
I0
aI1
aI0
asI739
(lp681
I4
aI2
aI0
asI742
(lp682
I11
aI1
aI3
asI743
(lp683
I1
aI0
aI0
asI744
(lp684
I2
aI1
aI0
asI746
(lp685
I1
aI0
aI0
asI747
(lp686
I2
aI3
aI3
asI748
(lp687
I0
aI0
aI0
asI749
(lp688
I1
aI0
aI0
asI750
(lp689
I0
aI0
aI0
asI751
(lp690
I0
aI0
aI0
asI752
(lp691
I1
aI0
aI0
asI754
(lp692
I5
aI0
aI10
asI755
(lp693
I3
aI0
aI0
asI756
(lp694
I4
aI0
aI0
asI757
(lp695
I2
aI1
aI0
asI758
(lp696
I0
aI1
aI3
asI759
(lp697
I0
aI0
aI0
asI760
(lp698
I1
aI0
aI0
asI761
(lp699
I0
aI0
aI0
asI762
(lp700
I4
aI0
aI1
asI763
(lp701
I1
aI0
aI0
asI764
(lp702
I0
aI1
aI0
asI765
(lp703
I11
aI3
aI6
asI768
(lp704
I3
aI1
aI0
asI769
(lp705
I1
aI0
aI0
asI770
(lp706
I0
aI1
aI0
asI771
(lp707
I3
aI0
aI0
asI772
(lp708
I1
aI0
aI0
asI773
(lp709
I3
aI1
aI0
asI774
(lp710
I1
aI0
aI0
asI775
(lp711
I3
aI8
aI1
asI777
(lp712
I1
aI1
aI0
asI778
(lp713
I1
aI0
aI0
asI779
(lp714
I0
aI0
aI0
asI780
(lp715
I0
aI0
aI0
asI781
(lp716
I1
aI0
aI0
asI784
(lp717
I1
aI0
aI0
asI785
(lp718
I3
aI0
aI0
asI786
(lp719
I1
aI0
aI0
asI788
(lp720
I0
aI0
aI0
asI789
(lp721
I1
aI1
aI0
asI790
(lp722
I1
aI1
aI0
asI791
(lp723
I0
aI0
aI0
asI792
(lp724
I0
aI1
aI0
asI793
(lp725
I3
aI24
aI32
asI794
(lp726
I0
aI0
aI0
asI795
(lp727
I5
aI1
aI1
asI796
(lp728
I6
aI0
aI10
asI797
(lp729
I0
aI0
aI0
asI798
(lp730
I2
aI1
aI2
asI800
(lp731
I2
aI1
aI0
asI801
(lp732
I0
aI0
aI0
asI802
(lp733
I0
aI0
aI0
asI803
(lp734
I3
aI0
aI3
asI804
(lp735
I1
aI4
aI0
asI805
(lp736
I0
aI0
aI0
asI807
(lp737
I14
aI1
aI0
asI808
(lp738
I1
aI0
aI0
asI809
(lp739
I2
aI0
aI2
asI810
(lp740
I0
aI0
aI0
asI811
(lp741
I1
aI0
aI0
asI812
(lp742
I2
aI2
aI0
asI814
(lp743
I0
aI0
aI0
asI816
(lp744
I3
aI2
aI1
asI817
(lp745
I3
aI1
aI0
asI818
(lp746
I2
aI0
aI0
asI819
(lp747
I1
aI0
aI0
asI821
(lp748
I1
aI1
aI2
asI822
(lp749
I0
aI0
aI0
asI823
(lp750
I1
aI0
aI2
asI824
(lp751
I8
aI3
aI4
asI825
(lp752
I3
aI1
aI0
asI826
(lp753
I1
aI0
aI1
asI828
(lp754
I9
aI3
aI3
asI829
(lp755
I1
aI0
aI0
asI830
(lp756
I1
aI8
aI22
asI831
(lp757
I2
aI19
aI10
asI832
(lp758
I1
aI0
aI0
asI833
(lp759
I0
aI0
aI0
asI834
(lp760
I0
aI0
aI0
asI835
(lp761
I1
aI3
aI17
asI836
(lp762
I1
aI0
aI0
asI837
(lp763
I10
aI12
aI55
asI838
(lp764
I0
aI1
aI0
asI839
(lp765
I4
aI17
aI10
asI840
(lp766
I1
aI0
aI0
asI841
(lp767
I0
aI0
aI0
asI843
(lp768
I4
aI0
aI0
asI844
(lp769
I1
aI0
aI0
asI845
(lp770
I1
aI0
aI0
asI846
(lp771
I2
aI0
aI0
asI847
(lp772
I3
aI0
aI3
asI848
(lp773
I1
aI1
aI0
asI849
(lp774
I4
aI0
aI0
asI851
(lp775
I0
aI0
aI0
asI852
(lp776
I1
aI0
aI0
asI854
(lp777
I1
aI1
aI0
asI856
(lp778
I1
aI0
aI0
asI857
(lp779
I0
aI0
aI0
asI858
(lp780
I1
aI0
aI0
asI859
(lp781
I1
aI0
aI0
asI860
(lp782
I2
aI0
aI0
asI861
(lp783
I11
aI7
aI4
asI862
(lp784
I1
aI0
aI0
asI863
(lp785
I1
aI0
aI0
asI864
(lp786
I1
aI0
aI0
asI865
(lp787
I5
aI3
aI2
asI866
(lp788
I1
aI0
aI0
asI867
(lp789
I1
aI0
aI0
asI868
(lp790
I0
aI0
aI0
asI869
(lp791
I1
aI0
aI0
asI870
(lp792
I5
aI0
aI1
asI871
(lp793
I0
aI0
aI0
asI872
(lp794
I4
aI55
aI448
asI873
(lp795
I2
aI0
aI1
asI874
(lp796
I1
aI0
aI0
asI875
(lp797
I0
aI0
aI0
asI876
(lp798
I4
aI0
aI5
asI877
(lp799
I1
aI0
aI0
asI879
(lp800
I0
aI0
aI0
asI880
(lp801
I2
aI0
aI0
asI883
(lp802
I1
aI0
aI0
asI884
(lp803
I0
aI2
aI2
asI885
(lp804
I0
aI0
aI0
asI886
(lp805
I1
aI0
aI0
asI887
(lp806
I2
aI2
aI1
asI888
(lp807
I0
aI0
aI0
asI889
(lp808
I1
aI0
aI0
asI891
(lp809
I1
aI0
aI0
asI892
(lp810
I1
aI0
aI0
asI895
(lp811
I0
aI0
aI0
asI896
(lp812
I0
aI1
aI0
asI897
(lp813
I3
aI2
aI1
asI898
(lp814
I1
aI0
aI0
asI899
(lp815
I1
aI0
aI0
asI900
(lp816
I1
aI0
aI0
asI901
(lp817
I11
aI3
aI7
asI902
(lp818
I1
aI0
aI0
asI903
(lp819
I1
aI0
aI0
asI905
(lp820
I5
aI0
aI4
asI906
(lp821
I2
aI0
aI0
asI907
(lp822
I4
aI2
aI3
asI908
(lp823
I1
aI0
aI12
asI909
(lp824
I1
aI0
aI0
asI910
(lp825
I0
aI0
aI0
asI911
(lp826
I4
aI4
aI4
asI912
(lp827
I3
aI0
aI2
asI913
(lp828
I12
aI5
aI0
asI914
(lp829
I3
aI0
aI1
asI915
(lp830
I3
aI0
aI0
asI916
(lp831
I1
aI0
aI0
asI917
(lp832
I0
aI0
aI0
asI918
(lp833
I0
aI0
aI0
asI919
(lp834
I1
aI0
aI0
asI920
(lp835
I0
aI0
aI0
asI921
(lp836
I1
aI0
aI0
asI923
(lp837
I2
aI1
aI0
asI924
(lp838
I0
aI0
aI1
asI925
(lp839
I0
aI0
aI0
asI926
(lp840
I1
aI0
aI0
asI927
(lp841
I2
aI0
aI1
asI928
(lp842
I2
aI0
aI0
asI929
(lp843
I1
aI0
aI0
asI930
(lp844
I0
aI0
aI0
asI931
(lp845
I0
aI0
aI0
asI932
(lp846
I1
aI0
aI0
asI933
(lp847
I16
aI7
aI28
asI934
(lp848
I1
aI0
aI0
asI935
(lp849
I1
aI0
aI0
asI937
(lp850
I1
aI0
aI0
asI938
(lp851
I2
aI0
aI1
asI939
(lp852
I0
aI1
aI0
asI940
(lp853
I0
aI0
aI1
asI941
(lp854
I2
aI0
aI0
asI943
(lp855
I0
aI1
aI0
asI944
(lp856
I0
aI0
aI0
asI945
(lp857
I1
aI0
aI0
asI947
(lp858
I13
aI1
aI0
asI948
(lp859
I0
aI0
aI0
asI949
(lp860
I0
aI0
aI0
asI950
(lp861
I1
aI0
aI0
asI951
(lp862
I2
aI0
aI0
asI952
(lp863
I0
aI0
aI0
asI953
(lp864
I1
aI2
aI1
asI954
(lp865
I4
aI0
aI0
asI955
(lp866
I0
aI0
aI0
asI956
(lp867
I2
aI0
aI0
asI957
(lp868
I1
aI0
aI0
asI958
(lp869
I0
aI0
aI0
asI959
(lp870
I0
aI0
aI0
asI960
(lp871
I4
aI1
aI8
asI961
(lp872
I1
aI0
aI0
asI962
(lp873
I1
aI0
aI0
asI963
(lp874
I1
aI0
aI0
asI965
(lp875
I0
aI0
aI0
asI967
(lp876
I1
aI0
aI0
asI968
(lp877
I0
aI0
aI0
asI970
(lp878
I1
aI0
aI0
asI971
(lp879
I0
aI1
aI0
asI972
(lp880
I1
aI0
aI0
asI973
(lp881
I1
aI0
aI0
asI974
(lp882
I0
aI0
aI0
asI975
(lp883
I1
aI0
aI0
asI976
(lp884
I0
aI1
aI0
asI978
(lp885
I2
aI1
aI1
asI979
(lp886
I2
aI1
aI0
asI980
(lp887
I1
aI0
aI0
asI981
(lp888
I1
aI0
aI0
asI982
(lp889
I1
aI1
aI0
asI984
(lp890
I5
aI9
aI5
asI985
(lp891
I1
aI1
aI0
asI986
(lp892
I0
aI0
aI0
asI987
(lp893
I0
aI0
aI0
asI988
(lp894
I2
aI1
aI0
asI989
(lp895
I0
aI0
aI0
asI990
(lp896
I0
aI0
aI0
asI991
(lp897
I1
aI0
aI0
asI992
(lp898
I1
aI0
aI0
asI993
(lp899
I2
aI0
aI0
asI994
(lp900
I1
aI0
aI0
asI996
(lp901
I1
aI0
aI0
asI997
(lp902
I1
aI0
aI0
asI999
(lp903
I2
aI0
aI0
asI1000
(lp904
I1
aI1
aI0
asI1002
(lp905
I1
aI0
aI0
asI1003
(lp906
I2
aI0
aI0
asI1005
(lp907
I1
aI0
aI0
asI1006
(lp908
I1
aI0
aI0
asI1007
(lp909
I5
aI0
aI0
asI1008
(lp910
I3
aI2
aI0
asI1009
(lp911
I1
aI0
aI0
asI1011
(lp912
I1
aI0
aI0
asI1012
(lp913
I1
aI0
aI0
asI1013
(lp914
I4
aI4
aI1
asI1014
(lp915
I1
aI0
aI0
asI1015
(lp916
I0
aI0
aI0
asI1016
(lp917
I5
aI3
aI0
asI1017
(lp918
I1
aI0
aI0
asI1018
(lp919
I0
aI0
aI0
asI1019
(lp920
I0
aI0
aI27
asI1020
(lp921
I0
aI0
aI0
asI1021
(lp922
I1
aI0
aI0
asI1022
(lp923
I0
aI0
aI0
asI1023
(lp924
I0
aI0
aI0
asI1024
(lp925
I2
aI0
aI0
asI1026
(lp926
I1
aI0
aI1
asI1029
(lp927
I1
aI0
aI0
asI1030
(lp928
I1
aI0
aI0
asI1033
(lp929
I1
aI1
aI0
asI1034
(lp930
I1
aI1
aI0
asI1035
(lp931
I2
aI0
aI0
asI1036
(lp932
I2
aI0
aI0
asI1037
(lp933
I1
aI0
aI0
asI1039
(lp934
I14
aI2
aI10
asI1041
(lp935
I0
aI0
aI2
asI1042
(lp936
I0
aI0
aI1
asI1043
(lp937
I0
aI0
aI0
asI1044
(lp938
I4
aI0
aI17
asI1045
(lp939
I2
aI1
aI1
asI1046
(lp940
I0
aI7
aI6
asI1047
(lp941
I1
aI0
aI0
asI1048
(lp942
I1
aI0
aI0
asI1049
(lp943
I0
aI0
aI0
asI1050
(lp944
I1
aI0
aI0
asI1051
(lp945
I0
aI0
aI0
asI1052
(lp946
I1
aI0
aI0
asI1053
(lp947
I0
aI0
aI0
asI1054
(lp948
I2
aI0
aI0
asI1055
(lp949
I1
aI0
aI0
asI1057
(lp950
I0
aI0
aI0
asI1059
(lp951
I6
aI0
aI4
asI1060
(lp952
I0
aI0
aI0
asI1061
(lp953
I1
aI0
aI0
asI1062
(lp954
I0
aI0
aI0
asI1063
(lp955
I1
aI0
aI0
asI1064
(lp956
I1
aI0
aI0
asI1065
(lp957
I0
aI0
aI0
asI1066
(lp958
I1
aI0
aI0
asI1067
(lp959
I4
aI1
aI2
asI1068
(lp960
I0
aI0
aI0
asI1069
(lp961
I2
aI0
aI0
asI1071
(lp962
I0
aI0
aI0
asI1072
(lp963
I3
aI1
aI0
asI1073
(lp964
I1
aI1
aI8
asI1074
(lp965
I0
aI0
aI0
asI1075
(lp966
I1
aI0
aI0
asI1076
(lp967
I5
aI2
aI1
asI1077
(lp968
I1
aI0
aI0
asI2077
(lp969
I1
aI0
aI0
asI2078
(lp970
I0
aI0
aI0
asI2079
(lp971
I0
aI0
aI0
asI2080
(lp972
I1
aI0
aI2
asI2082
(lp973
I0
aI0
aI0
asI2083
(lp974
I0
aI2
aI0
asI2085
(lp975
I2
aI0
aI0
asI2086
(lp976
I1
aI0
aI0
asI2087
(lp977
I0
aI0
aI0
asI2088
(lp978
I2
aI0
aI0
asI2089
(lp979
I13
aI2
aI6
asI2091
(lp980
I1
aI0
aI0
asI2093
(lp981
I2
aI0
aI0
asI2094
(lp982
I3
aI0
aI0
asI2095
(lp983
I1
aI2
aI0
asI2096
(lp984
I1
aI0
aI0
asI2097
(lp985
I1
aI0
aI0
asI2099
(lp986
I1
aI0
aI0
asI2100
(lp987
I1
aI0
aI0
asI2101
(lp988
I0
aI0
aI0
asI2102
(lp989
I0
aI0
aI0
asI2103
(lp990
I0
aI0
aI0
asI2104
(lp991
I0
aI0
aI1
asI2105
(lp992
I0
aI1
aI0
asI2106
(lp993
I6
aI5
aI17
asI2107
(lp994
I1
aI0
aI0
asI2108
(lp995
I1
aI0
aI0
asI2109
(lp996
I1
aI0
aI0
asI2110
(lp997
I0
aI2
aI0
asI2111
(lp998
I1
aI0
aI0
asI2112
(lp999
I0
aI0
aI0
asI2113
(lp1000
I1
aI0
aI0
asI2114
(lp1001
I0
aI0
aI0
asI2115
(lp1002
I0
aI0
aI0
asI2116
(lp1003
I1
aI0
aI0
asI2117
(lp1004
I1
aI1
aI0
asI2118
(lp1005
I0
aI0
aI0
asI2119
(lp1006
I0
aI0
aI0
asI2120
(lp1007
I0
aI0
aI0
asI2121
(lp1008
I1
aI0
aI0
asI2122
(lp1009
I1
aI0
aI0
asI2123
(lp1010
I2
aI0
aI0
asI2125
(lp1011
I3
aI18
aI24
asI2127
(lp1012
I2
aI0
aI0
asI2128
(lp1013
I3
aI1
aI3
asI2129
(lp1014
I2
aI2
aI0
asI2130
(lp1015
I0
aI0
aI0
asI2131
(lp1016
I1
aI0
aI0
asI2132
(lp1017
I1
aI0
aI0
asI2133
(lp1018
I0
aI0
aI0
asI2134
(lp1019
I0
aI0
aI0
asI2135
(lp1020
I2
aI0
aI0
asI2136
(lp1021
I1
aI0
aI0
asI2137
(lp1022
I1
aI0
aI0
asI2138
(lp1023
I1
aI0
aI0
asI2139
(lp1024
I1
aI0
aI0
asI2140
(lp1025
I1
aI0
aI0
asI2141
(lp1026
I1
aI0
aI0
asI2142
(lp1027
I4
aI2
aI0
asI2143
(lp1028
I20
aI6
aI14
asI2145
(lp1029
I1
aI0
aI0
asI2146
(lp1030
I2
aI0
aI0
asI2147
(lp1031
I1
aI0
aI0
asI2148
(lp1032
I1
aI0
aI0
asI2149
(lp1033
I1
aI1
aI0
asI2150
(lp1034
I1
aI0
aI0
asI2151
(lp1035
I1
aI1
aI0
asI2152
(lp1036
I1
aI1
aI0
asI2155
(lp1037
I1
aI0
aI1
asI2157
(lp1038
I0
aI1
aI0
asI2158
(lp1039
I1
aI0
aI0
asI2159
(lp1040
I0
aI0
aI0
asI2160
(lp1041
I1
aI0
aI0
asI2161
(lp1042
I1
aI2
aI0
asI2163
(lp1043
I1
aI0
aI0
asI2164
(lp1044
I1
aI0
aI0
asI2165
(lp1045
I1
aI0
aI0
asI2166
(lp1046
I0
aI0
aI0
asI2167
(lp1047
I0
aI0
aI0
asI2168
(lp1048
I1
aI0
aI0
asI2169
(lp1049
I2
aI0
aI0
asI2170
(lp1050
I1
aI0
aI0
asI2171
(lp1051
I4
aI1
aI0
asI2173
(lp1052
I4
aI0
aI4
asI2174
(lp1053
I0
aI1
aI0
asI2176
(lp1054
I1
aI0
aI1
asI2177
(lp1055
I1
aI0
aI0
asI2178
(lp1056
I1
aI0
aI0
asI2179
(lp1057
I1
aI0
aI0
asI2180
(lp1058
I3
aI0
aI0
asI2181
(lp1059
I1
aI0
aI0
asI2182
(lp1060
I1
aI0
aI0
asI2183
(lp1061
I1
aI1
aI0
asI2184
(lp1062
I3
aI0
aI0
asI2185
(lp1063
I0
aI0
aI0
asI2186
(lp1064
I1
aI2
aI2
asI2187
(lp1065
I7
aI2
aI0
asI2188
(lp1066
I0
aI0
aI0
asI2189
(lp1067
I1
aI0
aI0
asI2190
(lp1068
I2
aI0
aI0
asI2191
(lp1069
I1
aI0
aI0
asI2192
(lp1070
I1
aI0
aI0
asI2194
(lp1071
I2
aI1
aI9
asI2195
(lp1072
I1
aI0
aI0
asI2196
(lp1073
I1
aI0
aI0
asI2197
(lp1074
I1
aI0
aI1
asI2198
(lp1075
I0
aI2
aI5
asI2199
(lp1076
I0
aI1
aI0
asI2200
(lp1077
I3
aI1
aI1
asI2201
(lp1078
I0
aI0
aI0
asI2202
(lp1079
I0
aI0
aI0
asI2204
(lp1080
I0
aI0
aI0
asI2205
(lp1081
I2
aI0
aI0
asI2206
(lp1082
I0
aI0
aI0
asI2207
(lp1083
I0
aI0
aI0
asI2209
(lp1084
I0
aI0
aI0
asI2210
(lp1085
I1
aI0
aI0
asI2211
(lp1086
I1
aI1
aI0
asI2212
(lp1087
I2
aI1
aI0
asI2214
(lp1088
I1
aI0
aI0
asI2215
(lp1089
I1
aI0
aI0
asI2216
(lp1090
I1
aI0
aI0
asI2217
(lp1091
I4
aI4
aI0
asI2218
(lp1092
I1
aI0
aI0
asI2219
(lp1093
I1
aI1
aI7
asI2220
(lp1094
I1
aI1
aI0
asI2221
(lp1095
I1
aI0
aI0
asI2222
(lp1096
I2
aI0
aI0
asI2223
(lp1097
I1
aI0
aI0
asI2224
(lp1098
I1
aI0
aI0
asI2225
(lp1099
I1
aI0
aI0
asI2227
(lp1100
I1
aI0
aI0
asI2228
(lp1101
I0
aI0
aI0
asI2230
(lp1102
I0
aI3
aI1
asI2231
(lp1103
I0
aI0
aI0
asI2232
(lp1104
I0
aI0
aI0
asI2233
(lp1105
I1
aI0
aI0
asI2234
(lp1106
I1
aI4
aI0
asI2236
(lp1107
I1
aI0
aI0
asI2237
(lp1108
I1
aI0
aI0
asI2238
(lp1109
I0
aI0
aI0
asI2239
(lp1110
I3
aI0
aI0
asI2240
(lp1111
I0
aI0
aI0
asI2241
(lp1112
I1
aI0
aI0
asI2242
(lp1113
I1
aI0
aI0
asI2243
(lp1114
I1
aI0
aI0
asI2244
(lp1115
I2
aI0
aI0
asI2246
(lp1116
I0
aI0
aI0
asI2248
(lp1117
I1
aI0
aI0
asI2251
(lp1118
I0
aI0
aI0
asI2255
(lp1119
I1
aI0
aI0
asI2256
(lp1120
I1
aI0
aI0
asI2257
(lp1121
I1
aI0
aI0
asI2259
(lp1122
I0
aI0
aI0
asI2260
(lp1123
I1
aI0
aI0
asI2261
(lp1124
I0
aI0
aI0
asI2262
(lp1125
I1
aI0
aI0
asI2264
(lp1126
I1
aI0
aI0
asI2265
(lp1127
I1
aI0
aI0
asI2266
(lp1128
I2
aI0
aI0
asI2267
(lp1129
I1
aI0
aI0
asI2268
(lp1130
I0
aI0
aI0
asI2269
(lp1131
I2
aI2
aI5
asI2270
(lp1132
I4
aI0
aI0
asI2271
(lp1133
I1
aI0
aI0
asI2272
(lp1134
I11
aI0
aI6
asI2273
(lp1135
I0
aI0
aI0
asI2274
(lp1136
I2
aI1
aI0
asI2275
(lp1137
I0
aI0
aI0
asI2277
(lp1138
I1
aI0
aI2
asI2278
(lp1139
I1
aI0
aI0
asI2280
(lp1140
I0
aI1
aI0
asI2281
(lp1141
I4
aI0
aI4
asI2282
(lp1142
I1
aI0
aI0
asI2283
(lp1143
I1
aI2
aI0
asI2284
(lp1144
I10
aI0
aI0
asI2285
(lp1145
I2
aI0
aI0
asI2286
(lp1146
I1
aI0
aI0
asI2287
(lp1147
I1
aI0
aI0
asI2288
(lp1148
I0
aI0
aI0
asI2289
(lp1149
I5
aI2
aI1
asI2290
(lp1150
I0
aI0
aI0
asI2291
(lp1151
I1
aI0
aI0
asI2292
(lp1152
I1
aI0
aI0
asI2293
(lp1153
I0
aI0
aI0
asI2294
(lp1154
I0
aI1
aI0
asI2295
(lp1155
I0
aI0
aI0
asI2297
(lp1156
I3
aI0
aI0
asI2298
(lp1157
I1
aI0
aI0
asI2299
(lp1158
I1
aI0
aI0
asI2300
(lp1159
I1
aI1
aI0
asI2301
(lp1160
I1
aI0
aI0
asI2302
(lp1161
I0
aI0
aI0
asI2303
(lp1162
I0
aI0
aI0
asI2304
(lp1163
I1
aI0
aI0
asI2306
(lp1164
I0
aI1
aI0
asI2307
(lp1165
I1
aI0
aI0
asI2308
(lp1166
I1
aI0
aI0
asI2310
(lp1167
I1
aI0
aI0
asI2312
(lp1168
I0
aI0
aI2
asI2313
(lp1169
I2
aI0
aI0
asI2314
(lp1170
I4
aI1
aI0
asI2315
(lp1171
I1
aI0
aI0
asI2316
(lp1172
I2
aI0
aI0
asI2317
(lp1173
I1
aI0
aI0
asI2318
(lp1174
I1
aI0
aI0
asI2319
(lp1175
I1
aI0
aI0
asI2321
(lp1176
I1
aI0
aI0
asI2322
(lp1177
I1
aI0
aI0
asI2323
(lp1178
I0
aI0
aI0
asI2324
(lp1179
I1
aI0
aI0
asI2325
(lp1180
I0
aI0
aI0
asI2326
(lp1181
I1
aI0
aI0
asI2327
(lp1182
I0
aI0
aI0
asI2328
(lp1183
I6
aI1
aI0
asI2329
(lp1184
I1
aI0
aI0
asI2330
(lp1185
I1
aI0
aI0
asI2331
(lp1186
I1
aI0
aI0
asI2332
(lp1187
I0
aI1
aI0
asI2333
(lp1188
I0
aI0
aI0
asI2334
(lp1189
I0
aI0
aI0
asI2335
(lp1190
I1
aI0
aI0
asI2336
(lp1191
I2
aI0
aI0
asI2337
(lp1192
I0
aI0
aI0
asI2338
(lp1193
I1
aI0
aI0
asI2339
(lp1194
I2
aI0
aI1
asI2340
(lp1195
I2
aI0
aI0
asI2341
(lp1196
I1
aI0
aI0
asI2342
(lp1197
I1
aI1
aI1
asI2343
(lp1198
I1
aI0
aI0
asI2345
(lp1199
I0
aI0
aI0
asI2346
(lp1200
I2
aI2
aI1
asI2347
(lp1201
I1
aI0
aI0
asI2348
(lp1202
I3
aI0
aI0
asI2350
(lp1203
I0
aI11
aI3
asI2351
(lp1204
I1
aI0
aI0
asI2353
(lp1205
I1
aI0
aI0
asI2354
(lp1206
I1
aI0
aI0
asI2355
(lp1207
I0
aI0
aI0
asI2356
(lp1208
I4
aI0
aI2
asI2357
(lp1209
I1
aI0
aI0
asI2359
(lp1210
I0
aI0
aI0
asI2360
(lp1211
I4
aI1
aI0
asI2361
(lp1212
I1
aI0
aI0
asI2362
(lp1213
I1
aI0
aI0
asI2363
(lp1214
I2
aI0
aI0
asI2365
(lp1215
I6
aI2
aI4
asI2366
(lp1216
I0
aI0
aI0
asI2367
(lp1217
I2
aI0
aI0
asI2369
(lp1218
I1
aI0
aI0
asI2370
(lp1219
I1
aI0
aI0
asI2371
(lp1220
I0
aI1
aI0
asI2373
(lp1221
I0
aI0
aI0
asI2374
(lp1222
I1
aI2
aI0
asI2375
(lp1223
I4
aI0
aI0
asI2376
(lp1224
I1
aI1
aI0
asI2377
(lp1225
I0
aI0
aI0
asI2378
(lp1226
I1
aI0
aI0
asI2379
(lp1227
I2
aI1
aI0
asI2380
(lp1228
I1
aI0
aI0
asI2381
(lp1229
I0
aI0
aI0
asI2382
(lp1230
I0
aI0
aI0
asI2384
(lp1231
I2
aI0
aI0
asI2385
(lp1232
I2
aI0
aI0
asI2386
(lp1233
I0
aI0
aI0
asI2387
(lp1234
I1
aI0
aI0
asI2388
(lp1235
I4
aI1
aI0
asI2389
(lp1236
I1
aI0
aI0
asI2390
(lp1237
I0
aI0
aI0
asI2391
(lp1238
I4
aI2
aI0
asI2392
(lp1239
I1
aI0
aI0
asI2393
(lp1240
I2
aI0
aI0
asI2394
(lp1241
I0
aI0
aI0
asI2395
(lp1242
I0
aI0
aI0
asI2396
(lp1243
I0
aI3
aI3
asI2397
(lp1244
I9
aI0
aI2
asI2398
(lp1245
I1
aI0
aI0
asI2399
(lp1246
I1
aI0
aI0
asI2400
(lp1247
I1
aI0
aI0
asI2401
(lp1248
I1
aI1
aI0
asI2402
(lp1249
I3
aI0
aI0
asI2403
(lp1250
I1
aI3
aI1
asI2405
(lp1251
I1
aI0
aI0
asI2406
(lp1252
I1
aI0
aI0
asI2408
(lp1253
I0
aI0
aI0
asI2409
(lp1254
I3
aI2
aI0
asI2410
(lp1255
I1
aI0
aI0
asI2412
(lp1256
I4
aI0
aI0
asI2413
(lp1257
I1
aI0
aI0
asI2415
(lp1258
I1
aI0
aI0
asI2416
(lp1259
I1
aI0
aI0
asI2417
(lp1260
I2
aI2
aI0
asI2418
(lp1261
I1
aI1
aI0
asI2420
(lp1262
I6
aI1
aI2
asI2421
(lp1263
I1
aI0
aI0
asI2422
(lp1264
I0
aI0
aI0
asI2423
(lp1265
I1
aI0
aI0
asI2425
(lp1266
I1
aI0
aI2
asI2426
(lp1267
I1
aI0
aI0
asI2428
(lp1268
I1
aI0
aI0
asI2429
(lp1269
I1
aI0
aI0
asI2430
(lp1270
I1
aI0
aI0
asI2431
(lp1271
I0
aI0
aI0
asI2432
(lp1272
I1
aI0
aI0
asI2433
(lp1273
I0
aI0
aI0
asI2434
(lp1274
I0
aI1
aI0
asI2435
(lp1275
I1
aI1
aI0
asI2437
(lp1276
I0
aI1
aI2
asI2438
(lp1277
I1
aI0
aI0
asI2439
(lp1278
I1
aI43
aI11
asI2440
(lp1279
I1
aI0
aI0
asI2441
(lp1280
I1
aI0
aI0
asI2442
(lp1281
I1
aI0
aI0
asI2443
(lp1282
I1
aI0
aI0
asI2445
(lp1283
I2
aI0
aI0
asI2446
(lp1284
I0
aI0
aI0
asI2447
(lp1285
I2
aI0
aI0
asI2448
(lp1286
I0
aI0
aI0
asI2449
(lp1287
I1
aI0
aI0
asI2450
(lp1288
I0
aI0
aI0
asI2451
(lp1289
I1
aI0
aI0
asI2452
(lp1290
I1
aI0
aI0
asI2453
(lp1291
I1
aI0
aI0
asI2454
(lp1292
I1
aI1
aI0
asI2455
(lp1293
I0
aI0
aI0
asI2456
(lp1294
I2
aI0
aI0
asI2458
(lp1295
I1
aI0
aI0
asI2460
(lp1296
I0
aI0
aI0
asI2461
(lp1297
I12
aI0
aI0
asI2463
(lp1298
I1
aI0
aI0
asI2464
(lp1299
I1
aI0
aI0
asI2465
(lp1300
I1
aI0
aI0
asI2467
(lp1301
I0
aI0
aI0
asI2469
(lp1302
I1
aI0
aI0
asI2470
(lp1303
I0
aI0
aI1
asI2471
(lp1304
I0
aI0
aI1
asI2472
(lp1305
I2
aI0
aI0
asI2473
(lp1306
I1
aI0
aI0
asI2474
(lp1307
I3
aI1
aI0
asI2475
(lp1308
I1
aI0
aI0
asI2477
(lp1309
I0
aI0
aI0
asI2478
(lp1310
I0
aI0
aI0
asI2479
(lp1311
I0
aI0
aI0
asI2480
(lp1312
I1
aI0
aI0
asI2482
(lp1313
I2
aI0
aI0
asI2483
(lp1314
I0
aI0
aI2
asI2484
(lp1315
I1
aI0
aI0
asI2485
(lp1316
I0
aI0
aI0
asI2486
(lp1317
I0
aI0
aI0
asI2487
(lp1318
I0
aI0
aI0
asI2488
(lp1319
I1
aI0
aI0
asI2490
(lp1320
I0
aI0
aI0
asI2492
(lp1321
I12
aI0
aI6
asI2493
(lp1322
I2
aI0
aI0
asI2494
(lp1323
I1
aI0
aI0
asI2495
(lp1324
I0
aI0
aI0
asI2496
(lp1325
I1
aI0
aI0
asI2497
(lp1326
I1
aI0
aI0
asI2499
(lp1327
I1
aI0
aI0
asI2500
(lp1328
I1
aI0
aI0
asI2501
(lp1329
I1
aI0
aI0
asI2502
(lp1330
I1
aI0
aI0
asI2503
(lp1331
I1
aI0
aI0
asI2504
(lp1332
I3
aI0
aI0
asI2505
(lp1333
I1
aI1
aI10
asI2506
(lp1334
I1
aI0
aI0
asI2507
(lp1335
I0
aI0
aI0
asI2508
(lp1336
I1
aI1
aI0
asI2509
(lp1337
I0
aI0
aI0
asI2510
(lp1338
I1
aI0
aI0
asI2511
(lp1339
I1
aI0
aI0
asI2512
(lp1340
I2
aI0
aI0
asI2513
(lp1341
I1
aI0
aI0
asI2514
(lp1342
I1
aI0
aI0
asI2515
(lp1343
I3
aI1
aI0
asI2516
(lp1344
I1
aI0
aI0
asI2517
(lp1345
I1
aI0
aI0
asI2518
(lp1346
I0
aI0
aI0
asI2519
(lp1347
I1
aI0
aI0
asI2521
(lp1348
I0
aI1
aI0
asI2522
(lp1349
I0
aI1
aI0
asI2523
(lp1350
I1
aI0
aI0
asI2524
(lp1351
I0
aI0
aI0
asI2525
(lp1352
I1
aI0
aI0
asI2526
(lp1353
I1
aI0
aI0
asI2527
(lp1354
I0
aI0
aI0
asI2528
(lp1355
I1
aI0
aI0
asI2529
(lp1356
I1
aI0
aI0
asI2530
(lp1357
I0
aI0
aI0
asI2531
(lp1358
I1
aI1
aI10
asI2532
(lp1359
I1
aI0
aI0
asI2533
(lp1360
I0
aI0
aI0
asI2534
(lp1361
I1
aI0
aI0
asI2535
(lp1362
I4
aI1
aI0
asI2536
(lp1363
I0
aI0
aI0
asI2537
(lp1364
I1
aI0
aI0
asI2538
(lp1365
I0
aI0
aI0
asI2539
(lp1366
I0
aI1
aI0
asI2540
(lp1367
I3
aI4
aI8
asI2541
(lp1368
I1
aI0
aI0
asI2542
(lp1369
I0
aI0
aI0
asI2543
(lp1370
I9
aI3
aI0
asI2544
(lp1371
I0
aI0
aI0
asI2545
(lp1372
I0
aI0
aI0
asI2546
(lp1373
I2
aI0
aI0
asI2547
(lp1374
I0
aI0
aI0
asI2548
(lp1375
I1
aI0
aI0
asI2549
(lp1376
I1
aI0
aI0
asI2550
(lp1377
I0
aI0
aI0
asI2551
(lp1378
I0
aI1
aI0
asI2552
(lp1379
I0
aI0
aI2
asI2553
(lp1380
I1
aI0
aI0
asI2554
(lp1381
I2
aI0
aI1
asI2555
(lp1382
I0
aI0
aI0
asI2556
(lp1383
I1
aI0
aI0
asI2557
(lp1384
I1
aI0
aI0
asI2558
(lp1385
I0
aI0
aI0
asI2559
(lp1386
I1
aI0
aI0
asI2560
(lp1387
I0
aI0
aI0
asI2561
(lp1388
I0
aI0
aI0
asI2562
(lp1389
I0
aI0
aI0
asI2563
(lp1390
I0
aI1
aI0
asI2564
(lp1391
I1
aI0
aI0
asI2565
(lp1392
I2
aI1
aI0
asI2566
(lp1393
I0
aI0
aI0
asI2567
(lp1394
I0
aI0
aI0
asI2568
(lp1395
I1
aI0
aI0
asI2569
(lp1396
I0
aI0
aI0
asI2570
(lp1397
I0
aI0
aI0
asI2571
(lp1398
I0
aI0
aI0
asI2572
(lp1399
I0
aI1
aI0
asI2573
(lp1400
I1
aI0
aI2
asI2574
(lp1401
I1
aI0
aI0
asI2575
(lp1402
I0
aI0
aI0
asI2576
(lp1403
I1
aI0
aI0
asI2577
(lp1404
I1
aI0
aI0
asI2578
(lp1405
I1
aI0
aI0
asI2579
(lp1406
I0
aI0
aI0
asI2580
(lp1407
I1
aI0
aI0
asI2581
(lp1408
I0
aI0
aI0
asI2582
(lp1409
I2
aI1
aI1
asI2583
(lp1410
I1
aI0
aI0
asI2584
(lp1411
I3
aI1
aI0
asI2585
(lp1412
I0
aI0
aI0
asI2586
(lp1413
I2
aI2
aI4
asI2587
(lp1414
I1
aI0
aI0
asI2588
(lp1415
I0
aI0
aI0
asI2589
(lp1416
I0
aI0
aI0
asI2590
(lp1417
I0
aI0
aI0
asI2591
(lp1418
I1
aI1
aI0
asI2592
(lp1419
I1
aI0
aI0
asI2593
(lp1420
I3
aI0
aI0
asI2594
(lp1421
I2
aI0
aI1
asI2595
(lp1422
I0
aI0
aI0
asI2596
(lp1423
I0
aI0
aI0
asI2597
(lp1424
I1
aI0
aI0
asI2598
(lp1425
I1
aI0
aI0
asI2599
(lp1426
I3
aI0
aI0
asI2600
(lp1427
I1
aI0
aI0
asI2601
(lp1428
I1
aI0
aI0
asI2602
(lp1429
I1
aI0
aI0
asI2603
(lp1430
I6
aI0
aI1
asI2604
(lp1431
I1
aI0
aI0
asI2605
(lp1432
I0
aI0
aI0
asI2606
(lp1433
I0
aI0
aI0
asI2607
(lp1434
I1
aI0
aI0
asI2608
(lp1435
I0
aI0
aI0
asI2609
(lp1436
I1
aI0
aI0
asI2610
(lp1437
I0
aI0
aI0
asI2611
(lp1438
I1
aI0
aI0
asI2612
(lp1439
I1
aI0
aI1
asI2613
(lp1440
I1
aI0
aI0
asI2614
(lp1441
I2
aI1
aI0
asI2615
(lp1442
I0
aI0
aI0
asI2616
(lp1443
I1
aI0
aI0
asI2617
(lp1444
I0
aI0
aI1
asI2618
(lp1445
I1
aI0
aI0
asI2619
(lp1446
I0
aI0
aI0
asI2620
(lp1447
I2
aI0
aI0
asI2621
(lp1448
I1
aI0
aI0
asI2622
(lp1449
I1
aI0
aI0
asI2623
(lp1450
I1
aI0
aI1
asI2624
(lp1451
I6
aI5
aI4
asI2625
(lp1452
I1
aI0
aI1
asI2626
(lp1453
I1
aI0
aI0
asI2627
(lp1454
I2
aI0
aI0
asI2628
(lp1455
I0
aI0
aI0
asI2629
(lp1456
I3
aI0
aI0
asI2630
(lp1457
I1
aI0
aI0
asI2631
(lp1458
I0
aI0
aI0
asI2632
(lp1459
I2
aI1
aI0
asI2633
(lp1460
I1
aI0
aI0
asI2634
(lp1461
I1
aI0
aI0
asI2635
(lp1462
I1
aI0
aI0
asI2636
(lp1463
I1
aI0
aI0
asI2637
(lp1464
I1
aI0
aI0
asI2638
(lp1465
I1
aI0
aI2
asI2639
(lp1466
I2
aI0
aI0
asI2640
(lp1467
I2
aI0
aI0
asI2642
(lp1468
I2
aI0
aI0
asI2643
(lp1469
I1
aI2
aI0
asI2644
(lp1470
I0
aI0
aI0
asI2645
(lp1471
I2
aI0
aI2
asI2646
(lp1472
I1
aI0
aI0
asI2647
(lp1473
I0
aI0
aI0
asI2648
(lp1474
I0
aI0
aI0
asI2649
(lp1475
I0
aI0
aI0
asI2650
(lp1476
I5
aI8
aI17
asI2651
(lp1477
I2
aI0
aI2
asI2652
(lp1478
I2
aI1
aI0
asI2653
(lp1479
I1
aI0
aI0
asI2654
(lp1480
I2
aI1
aI1
asI2655
(lp1481
I1
aI1
aI0
asI2656
(lp1482
I11
aI4
aI10
asI2657
(lp1483
I0
aI0
aI0
asI2658
(lp1484
I0
aI0
aI0
asI2659
(lp1485
I1
aI0
aI0
asI2660
(lp1486
I1
aI0
aI0
asI2661
(lp1487
I0
aI0
aI0
asI2662
(lp1488
I0
aI0
aI0
asI2663
(lp1489
I0
aI0
aI0
asI2664
(lp1490
I2
aI0
aI0
asI2665
(lp1491
I1
aI0
aI0
asI2666
(lp1492
I0
aI0
aI0
asI2667
(lp1493
I1
aI0
aI0
asI2668
(lp1494
I0
aI0
aI0
asI2669
(lp1495
I1
aI0
aI0
asI2670
(lp1496
I7
aI0
aI7
asI2671
(lp1497
I2
aI1
aI0
asI2672
(lp1498
I1
aI1
aI0
asI2673
(lp1499
I1
aI0
aI0
asI2674
(lp1500
I1
aI1
aI0
asI2675
(lp1501
I1
aI0
aI0
asI2677
(lp1502
I0
aI0
aI0
asI2678
(lp1503
I1
aI0
aI0
asI2679
(lp1504
I1
aI0
aI0
asI2680
(lp1505
I0
aI0
aI0
asI2681
(lp1506
I1
aI0
aI0
asI2682
(lp1507
I1
aI0
aI0
asI2683
(lp1508
I0
aI0
aI0
asI2684
(lp1509
I0
aI0
aI0
asI2685
(lp1510
I0
aI0
aI0
asI2686
(lp1511
I0
aI0
aI0
asI2687
(lp1512
I1
aI2
aI0
asI2688
(lp1513
I0
aI0
aI0
asI2689
(lp1514
I4
aI1
aI0
asI2690
(lp1515
I1
aI0
aI1
asI2691
(lp1516
I9
aI1
aI4
asI2692
(lp1517
I2
aI0
aI0
asI2693
(lp1518
I0
aI0
aI0
asI2694
(lp1519
I1
aI2
aI1
asI2695
(lp1520
I0
aI0
aI0
asI2696
(lp1521
I0
aI0
aI0
asI2697
(lp1522
I1
aI1
aI0
asI2698
(lp1523
I1
aI0
aI0
asI2699
(lp1524
I1
aI0
aI0
asI2700
(lp1525
I1
aI0
aI0
asI2701
(lp1526
I0
aI1
aI0
asI2702
(lp1527
I1
aI0
aI0
asI2703
(lp1528
I0
aI0
aI0
asI2704
(lp1529
I1
aI0
aI0
asI2705
(lp1530
I1
aI0
aI0
asI2706
(lp1531
I0
aI0
aI0
asI2707
(lp1532
I7
aI1
aI15
asI2708
(lp1533
I0
aI1
aI0
asI2709
(lp1534
I1
aI0
aI0
asI2710
(lp1535
I1
aI0
aI0
asI2711
(lp1536
I0
aI0
aI8
asI2712
(lp1537
I1
aI0
aI0
asI2713
(lp1538
I0
aI0
aI0
asI2714
(lp1539
I4
aI0
aI1
asI2715
(lp1540
I2
aI1
aI1
asI2716
(lp1541
I2
aI0
aI0
asI2717
(lp1542
I1
aI0
aI0
asI2718
(lp1543
I1
aI0
aI0
asI2719
(lp1544
I1
aI0
aI0
asI2720
(lp1545
I1
aI0
aI0
asI2721
(lp1546
I0
aI0
aI0
asI2722
(lp1547
I1
aI0
aI0
asI2723
(lp1548
I0
aI0
aI0
asI2724
(lp1549
I0
aI0
aI0
asI2725
(lp1550
I0
aI0
aI0
asI2726
(lp1551
I2
aI0
aI0
asI2727
(lp1552
I0
aI0
aI0
asI2728
(lp1553
I2
aI2
aI4
asI2729
(lp1554
I0
aI0
aI0
asI2730
(lp1555
I0
aI0
aI0
asI2731
(lp1556
I0
aI0
aI0
asI2732
(lp1557
I0
aI0
aI0
asI2733
(lp1558
I1
aI0
aI0
asI2734
(lp1559
I1
aI0
aI0
asI2735
(lp1560
I0
aI0
aI0
asI2736
(lp1561
I2
aI0
aI2
asI2737
(lp1562
I0
aI0
aI0
asI2738
(lp1563
I1
aI0
aI0
asI2739
(lp1564
I0
aI0
aI1
asI2740
(lp1565
I1
aI0
aI0
asI2741
(lp1566
I0
aI0
aI0
asI2742
(lp1567
I1
aI0
aI0
asI2743
(lp1568
I1
aI0
aI0
asI2744
(lp1569
I3
aI0
aI0
asI2745
(lp1570
I1
aI0
aI0
asI2746
(lp1571
I1
aI0
aI0
asI2747
(lp1572
I0
aI0
aI0
asI2748
(lp1573
I0
aI0
aI0
asI2749
(lp1574
I1
aI0
aI0
asI2750
(lp1575
I0
aI0
aI0
asI2751
(lp1576
I7
aI3
aI0
asI2752
(lp1577
I1
aI0
aI0
asI2753
(lp1578
I2
aI2
aI0
asI2754
(lp1579
I1
aI0
aI0
asI2755
(lp1580
I1
aI0
aI0
asI2756
(lp1581
I1
aI0
aI0
asI2757
(lp1582
I1
aI1
aI1
asI2758
(lp1583
I1
aI0
aI0
asI2759
(lp1584
I2
aI0
aI0
asI2760
(lp1585
I1
aI0
aI0
asI2761
(lp1586
I1
aI0
aI0
asI2762
(lp1587
I1
aI0
aI0
asI2763
(lp1588
I0
aI0
aI0
asI2765
(lp1589
I3
aI1
aI0
asI2766
(lp1590
I0
aI0
aI0
asI2767
(lp1591
I0
aI0
aI0
asI2768
(lp1592
I1
aI0
aI0
asI2769
(lp1593
I0
aI0
aI0
asI2770
(lp1594
I1
aI0
aI0
asI2771
(lp1595
I1
aI0
aI0
asI2772
(lp1596
I2
aI1
aI0
asI2773
(lp1597
I1
aI0
aI0
asI2774
(lp1598
I2
aI0
aI0
asI2775
(lp1599
I1
aI0
aI0
asI2776
(lp1600
I1
aI0
aI0
asI2777
(lp1601
I1
aI0
aI0
asI2778
(lp1602
I0
aI0
aI0
asI2779
(lp1603
I0
aI0
aI0
asI2780
(lp1604
I0
aI0
aI0
asI2781
(lp1605
I4
aI3
aI2
asI2782
(lp1606
I0
aI0
aI0
asI2783
(lp1607
I0
aI0
aI0
asI2784
(lp1608
I2
aI0
aI1
asI2785
(lp1609
I0
aI0
aI5
asI2786
(lp1610
I1
aI0
aI0
asI2787
(lp1611
I15
aI7
aI5
asI2788
(lp1612
I0
aI0
aI0
asI2789
(lp1613
I1
aI0
aI0
asI2790
(lp1614
I1
aI0
aI0
asI2791
(lp1615
I1
aI0
aI0
asI2792
(lp1616
I1
aI0
aI1
asI2793
(lp1617
I1
aI0
aI0
asI2794
(lp1618
I0
aI1
aI0
asI2795
(lp1619
I0
aI0
aI0
asI2796
(lp1620
I1
aI0
aI0
asI2797
(lp1621
I0
aI0
aI0
asI2798
(lp1622
I1
aI2
aI0
asI2799
(lp1623
I1
aI0
aI0
asI2800
(lp1624
I0
aI0
aI0
asI2801
(lp1625
I3
aI0
aI0
asI2802
(lp1626
I1
aI0
aI0
asI2803
(lp1627
I1
aI0
aI0
asI2804
(lp1628
I1
aI0
aI0
asI2805
(lp1629
I0
aI0
aI0
asI2806
(lp1630
I0
aI0
aI0
asI2807
(lp1631
I1
aI0
aI0
asI2808
(lp1632
I0
aI0
aI0
asI2809
(lp1633
I1
aI0
aI0
asI2810
(lp1634
I2
aI1
aI0
asI2811
(lp1635
I1
aI1
aI1
asI2812
(lp1636
I1
aI1
aI0
asI2813
(lp1637
I1
aI0
aI0
asI2814
(lp1638
I0
aI0
aI0
asI2815
(lp1639
I1
aI0
aI0
asI2816
(lp1640
I0
aI0
aI0
asI2817
(lp1641
I2
aI1
aI0
asI2818
(lp1642
I1
aI0
aI0
asI2819
(lp1643
I0
aI0
aI0
asI2820
(lp1644
I0
aI0
aI0
asI2821
(lp1645
I1
aI0
aI0
asI2822
(lp1646
I1
aI0
aI0
asI2823
(lp1647
I0
aI0
aI0
asI2824
(lp1648
I3
aI0
aI3
asI2825
(lp1649
I2
aI0
aI0
asI2826
(lp1650
I1
aI0
aI0
asI2827
(lp1651
I11
aI3
aI10
asI2828
(lp1652
I1
aI0
aI0
asI2829
(lp1653
I0
aI0
aI0
asI2830
(lp1654
I1
aI0
aI0
asI2831
(lp1655
I1
aI0
aI0
asI2832
(lp1656
I2
aI3
aI1
asI2833
(lp1657
I1
aI0
aI0
asI2834
(lp1658
I1
aI0
aI1
asI2835
(lp1659
I10
aI0
aI2
asI2836
(lp1660
I0
aI0
aI0
asI2837
(lp1661
I0
aI3
aI21
asI2838
(lp1662
I1
aI0
aI0
asI2839
(lp1663
I2
aI0
aI0
asI2840
(lp1664
I0
aI0
aI0
asI2841
(lp1665
I1
aI0
aI1
asI2842
(lp1666
I0
aI0
aI0
asI2843
(lp1667
I1
aI0
aI0
asI2844
(lp1668
I1
aI0
aI0
asI2845
(lp1669
I1
aI0
aI0
asI2846
(lp1670
I1
aI0
aI0
asI2847
(lp1671
I1
aI1
aI0
asI2848
(lp1672
I2
aI0
aI0
asI2849
(lp1673
I0
aI0
aI0
asI2850
(lp1674
I7
aI2
aI2
asI2851
(lp1675
I0
aI0
aI0
asI2852
(lp1676
I1
aI0
aI0
asI2853
(lp1677
I1
aI0
aI0
asI2854
(lp1678
I1
aI0
aI0
asI2855
(lp1679
I1
aI0
aI0
asI2856
(lp1680
I0
aI0
aI0
asI2857
(lp1681
I1
aI0
aI0
asI2858
(lp1682
I1
aI1
aI0
asI2859
(lp1683
I2
aI1
aI1
asI2860
(lp1684
I1
aI0
aI0
asI2861
(lp1685
I1
aI0
aI3
asI2862
(lp1686
I2
aI0
aI0
asI2863
(lp1687
I1
aI0
aI0
asI2864
(lp1688
I0
aI0
aI0
asI2865
(lp1689
I1
aI0
aI0
asI2866
(lp1690
I1
aI0
aI0
asI2867
(lp1691
I1
aI0
aI0
asI2868
(lp1692
I1
aI0
aI0
asI2869
(lp1693
I0
aI0
aI0
asI2870
(lp1694
I0
aI0
aI0
asI2871
(lp1695
I0
aI0
aI0
asI2872
(lp1696
I0
aI0
aI0
asI2873
(lp1697
I0
aI0
aI0
asI2874
(lp1698
I0
aI0
aI0
asI2875
(lp1699
I0
aI0
aI0
asI2876
(lp1700
I1
aI2
aI4
asI2877
(lp1701
I1
aI0
aI0
asI2878
(lp1702
I1
aI2
aI0
asI2879
(lp1703
I0
aI0
aI0
asI2880
(lp1704
I1
aI1
aI0
asI2881
(lp1705
I1
aI0
aI0
asI2882
(lp1706
I0
aI0
aI0
asI2883
(lp1707
I0
aI0
aI0
asI2884
(lp1708
I0
aI0
aI1
asI2885
(lp1709
I1
aI0
aI0
asI2886
(lp1710
I0
aI0
aI0
asI2887
(lp1711
I1
aI0
aI0
asI2888
(lp1712
I0
aI0
aI0
asI2889
(lp1713
I1
aI0
aI0
asI2890
(lp1714
I1
aI0
aI0
asI2891
(lp1715
I1
aI0
aI0
asI2892
(lp1716
I1
aI2
aI0
asI2893
(lp1717
I1
aI0
aI0
asI2894
(lp1718
I0
aI0
aI0
asI2895
(lp1719
I0
aI1
aI0
asI2896
(lp1720
I0
aI0
aI0
asI2897
(lp1721
I0
aI0
aI0
asI2898
(lp1722
I2
aI0
aI1
asI2899
(lp1723
I1
aI0
aI0
asI2900
(lp1724
I0
aI1
aI0
asI2901
(lp1725
I3
aI1
aI0
asI2902
(lp1726
I1
aI1
aI0
asI2903
(lp1727
I0
aI0
aI0
asI2904
(lp1728
I10
aI5
aI18
asI2905
(lp1729
I2
aI2
aI0
asI2906
(lp1730
I0
aI2
aI0
asI2907
(lp1731
I0
aI0
aI0
asI2908
(lp1732
I0
aI0
aI0
asI2909
(lp1733
I0
aI0
aI0
asI2910
(lp1734
I1
aI0
aI0
asI2911
(lp1735
I0
aI0
aI0
asI2912
(lp1736
I0
aI0
aI0
asI2914
(lp1737
I1
aI0
aI1
asI2915
(lp1738
I0
aI0
aI0
asI2916
(lp1739
I0
aI0
aI0
asI2917
(lp1740
I1
aI0
aI0
asI2918
(lp1741
I0
aI0
aI0
asI2919
(lp1742
I0
aI0
aI0
asI2920
(lp1743
I1
aI0
aI0
asI2921
(lp1744
I1
aI0
aI0
asI2922
(lp1745
I2
aI1
aI0
asI2923
(lp1746
I0
aI0
aI0
asI2924
(lp1747
I3
aI2
aI0
asI2925
(lp1748
I1
aI0
aI0
asI2926
(lp1749
I1
aI1
aI0
asI2927
(lp1750
I0
aI0
aI0
asI2928
(lp1751
I0
aI0
aI0
asI2929
(lp1752
I0
aI0
aI0
asI2930
(lp1753
I0
aI0
aI0
asI2931
(lp1754
I0
aI0
aI0
asI2932
(lp1755
I0
aI1
aI0
asI2933
(lp1756
I1
aI0
aI0
asI2934
(lp1757
I0
aI0
aI0
asI2935
(lp1758
I1
aI0
aI0
asI2936
(lp1759
I1
aI0
aI0
asI2937
(lp1760
I2
aI1
aI0
asI2938
(lp1761
I2
aI1
aI1
asI2939
(lp1762
I2
aI0
aI9
asI2940
(lp1763
I0
aI0
aI0
asI2941
(lp1764
I1
aI0
aI0
asI2942
(lp1765
I0
aI0
aI0
asI2943
(lp1766
I2
aI0
aI0
asI2944
(lp1767
I1
aI0
aI0
asI2945
(lp1768
I0
aI0
aI0
asI2946
(lp1769
I1
aI1
aI4
asI2947
(lp1770
I0
aI0
aI0
asI2948
(lp1771
I3
aI0
aI0
asI2949
(lp1772
I1
aI0
aI1
asI2950
(lp1773
I1
aI0
aI0
asI2951
(lp1774
I0
aI0
aI0
asI2952
(lp1775
I1
aI0
aI0
asI2953
(lp1776
I0
aI0
aI0
asI2954
(lp1777
I0
aI0
aI0
asI2955
(lp1778
I1
aI0
aI0
asI2956
(lp1779
I0
aI0
aI0
asI2957
(lp1780
I0
aI0
aI0
asI2958
(lp1781
I1
aI0
aI0
asI2959
(lp1782
I0
aI0
aI0
asI2960
(lp1783
I0
aI0
aI0
asI2961
(lp1784
I1
aI0
aI0
asI2962
(lp1785
I3
aI1
aI0
asI2963
(lp1786
I2
aI0
aI0
asI2964
(lp1787
I0
aI0
aI0
asI2965
(lp1788
I1
aI0
aI0
asI2966
(lp1789
I0
aI1
aI0
asI2967
(lp1790
I1
aI0
aI0
asI2968
(lp1791
I1
aI0
aI0
asI2969
(lp1792
I2
aI0
aI0
asI2970
(lp1793
I0
aI0
aI0
asI2971
(lp1794
I0
aI0
aI0
asI2972
(lp1795
I1
aI0
aI0
asI2973
(lp1796
I1
aI0
aI0
asI2974
(lp1797
I1
aI0
aI0
asI2975
(lp1798
I1
aI0
aI0
asI2976
(lp1799
I1
aI0
aI0
asI2977
(lp1800
I0
aI0
aI0
asI2978
(lp1801
I1
aI0
aI0
asI2979
(lp1802
I0
aI0
aI0
asI2980
(lp1803
I0
aI0
aI0
asI2981
(lp1804
I0
aI0
aI0
asI2982
(lp1805
I0
aI0
aI0
asI2983
(lp1806
I0
aI0
aI0
asI2984
(lp1807
I6
aI2
aI3
asI2985
(lp1808
I2
aI0
aI0
asI2986
(lp1809
I2
aI0
aI3
asI2987
(lp1810
I1
aI0
aI0
asI2988
(lp1811
I1
aI0
aI0
asI2989
(lp1812
I1
aI0
aI0
asI2990
(lp1813
I0
aI0
aI0
asI2991
(lp1814
I2
aI0
aI0
asI2992
(lp1815
I1
aI0
aI0
asI2993
(lp1816
I1
aI0
aI0
asI2994
(lp1817
I1
aI0
aI0
asI2995
(lp1818
I2
aI4
aI0
asI2996
(lp1819
I1
aI0
aI0
asI2997
(lp1820
I0
aI0
aI0
asI2998
(lp1821
I1
aI0
aI0
asI2999
(lp1822
I1
aI0
aI0
asI3000
(lp1823
I1
aI0
aI0
asI3001
(lp1824
I2
aI0
aI0
asI3003
(lp1825
I2
aI1
aI0
asI3004
(lp1826
I1
aI0
aI0
asI3005
(lp1827
I1
aI0
aI0
asI3006
(lp1828
I1
aI0
aI0
asI3007
(lp1829
I0
aI0
aI0
asI3008
(lp1830
I1
aI0
aI0
asI3009
(lp1831
I0
aI0
aI0
asI3010
(lp1832
I1
aI0
aI0
asI3011
(lp1833
I1
aI0
aI1
asI3012
(lp1834
I1
aI0
aI0
asI3013
(lp1835
I0
aI0
aI0
asI3014
(lp1836
I0
aI0
aI0
asI3015
(lp1837
I0
aI0
aI0
asI3016
(lp1838
I1
aI1
aI2
asI3017
(lp1839
I1
aI0
aI0
asI3018
(lp1840
I0
aI0
aI0
asI3019
(lp1841
I0
aI0
aI0
asI3020
(lp1842
I1
aI0
aI0
asI3021
(lp1843
I1
aI0
aI0
asI3022
(lp1844
I1
aI0
aI0
asI3023
(lp1845
I0
aI0
aI1
asI3024
(lp1846
I0
aI0
aI0
asI3025
(lp1847
I1
aI0
aI0
asI3026
(lp1848
I0
aI0
aI0
asI3027
(lp1849
I0
aI0
aI0
asI3028
(lp1850
I3
aI0
aI0
asI3029
(lp1851
I0
aI0
aI0
asI3030
(lp1852
I2
aI0
aI0
asI3031
(lp1853
I0
aI0
aI0
asI3032
(lp1854
I0
aI0
aI0
asI3033
(lp1855
I0
aI0
aI0
asI3034
(lp1856
I0
aI0
aI0
asI3035
(lp1857
I1
aI0
aI0
asI3036
(lp1858
I0
aI1
aI0
asI3037
(lp1859
I0
aI0
aI0
asI3038
(lp1860
I1
aI0
aI0
asI3039
(lp1861
I0
aI0
aI0
asI3040
(lp1862
I2
aI2
aI0
asI3041
(lp1863
I2
aI0
aI0
asI3042
(lp1864
I1
aI0
aI0
asI3043
(lp1865
I0
aI0
aI0
asI3044
(lp1866
I0
aI0
aI0
asI3045
(lp1867
I1
aI0
aI0
asI3046
(lp1868
I2
aI1
aI0
asI3047
(lp1869
I1
aI0
aI0
asI3048
(lp1870
I1
aI0
aI0
asI3049
(lp1871
I1
aI0
aI0
asI3050
(lp1872
I0
aI0
aI0
asI3051
(lp1873
I0
aI0
aI0
asI3052
(lp1874
I1
aI0
aI0
asI3053
(lp1875
I0
aI0
aI0
asI3054
(lp1876
I2
aI0
aI0
asI3055
(lp1877
I0
aI0
aI0
asI3056
(lp1878
I1
aI0
aI0
asI3057
(lp1879
I1
aI0
aI0
asI3058
(lp1880
I0
aI1
aI0
asI3059
(lp1881
I2
aI0
aI0
asI3060
(lp1882
I1
aI0
aI0
asI3061
(lp1883
I0
aI0
aI0
asI3062
(lp1884
I0
aI0
aI0
asI3063
(lp1885
I0
aI1
aI0
asI3064
(lp1886
I1
aI0
aI0
asI3065
(lp1887
I1
aI0
aI0
asI3066
(lp1888
I1
aI0
aI0
asI3067
(lp1889
I1
aI0
aI0
asI3068
(lp1890
I0
aI0
aI0
asI3069
(lp1891
I0
aI0
aI0
asI3070
(lp1892
I1
aI0
aI0
asI3071
(lp1893
I0
aI0
aI0
asI3072
(lp1894
I1
aI0
aI0
asI3073
(lp1895
I0
aI0
aI0
asI3074
(lp1896
I1
aI0
aI0
asI3075
(lp1897
I2
aI0
aI0
asI3076
(lp1898
I2
aI0
aI0
asI3077
(lp1899
I1
aI0
aI0
asI3078
(lp1900
I1
aI0
aI0
asI3079
(lp1901
I2
aI0
aI0
asI3080
(lp1902
I1
aI0
aI0
asI3081
(lp1903
I0
aI0
aI0
asI3082
(lp1904
I0
aI0
aI0
asI3083
(lp1905
I0
aI0
aI0
asI3084
(lp1906
I1
aI0
aI0
asI3085
(lp1907
I0
aI0
aI0
asI3086
(lp1908
I1
aI0
aI0
asI3087
(lp1909
I1
aI0
aI0
asI3088
(lp1910
I1
aI0
aI0
asI3089
(lp1911
I1
aI0
aI0
asI3090
(lp1912
I1
aI0
aI0
asI3091
(lp1913
I1
aI0
aI0
asI3092
(lp1914
I0
aI0
aI0
asI3093
(lp1915
I0
aI0
aI0
asI3094
(lp1916
I2
aI0
aI0
asI3095
(lp1917
I1
aI0
aI0
asI3096
(lp1918
I0
aI0
aI0
asI3097
(lp1919
I0
aI0
aI0
asI3098
(lp1920
I1
aI0
aI0
asI3099
(lp1921
I1
aI0
aI0
asI3100
(lp1922
I3
aI4
aI4
asI3101
(lp1923
I1
aI0
aI0
asI3102
(lp1924
I1
aI0
aI0
asI3103
(lp1925
I0
aI0
aI0
asI3104
(lp1926
I1
aI0
aI0
asI3105
(lp1927
I0
aI0
aI0
asI3106
(lp1928
I0
aI0
aI0
asI3107
(lp1929
I0
aI0
aI0
asI3110
(lp1930
I0
aI0
aI0
asI3111
(lp1931
I0
aI0
aI0
asI3112
(lp1932
I1
aI0
aI0
asI3113
(lp1933
I1
aI0
aI0
asI3114
(lp1934
I1
aI0
aI0
asI3115
(lp1935
I0
aI0
aI0
asI3116
(lp1936
I1
aI0
aI0
asI3117
(lp1937
I0
aI0
aI0
asI3118
(lp1938
I0
aI0
aI0
asI3119
(lp1939
I1
aI0
aI0
asI3120
(lp1940
I2
aI0
aI0
asI3121
(lp1941
I2
aI0
aI0
asI3122
(lp1942
I0
aI0
aI0
asI3123
(lp1943
I1
aI0
aI0
asI3124
(lp1944
I0
aI0
aI0
asI3125
(lp1945
I0
aI0
aI0
asI3126
(lp1946
I1
aI1
aI0
asI3127
(lp1947
I1
aI1
aI0
asI3128
(lp1948
I6
aI0
aI0
asI3129
(lp1949
I1
aI0
aI0
asI3130
(lp1950
I1
aI0
aI0
asI3131
(lp1951
I3
aI3
aI5
asI3132
(lp1952
I1
aI1
aI0
asI3133
(lp1953
I1
aI0
aI0
asI3134
(lp1954
I0
aI0
aI0
asI3135
(lp1955
I1
aI0
aI0
asI3136
(lp1956
I0
aI0
aI0
asI3137
(lp1957
I1
aI0
aI0
asI3138
(lp1958
I1
aI0
aI0
asI3139
(lp1959
I0
aI0
aI0
asI3140
(lp1960
I2
aI1
aI0
asI3141
(lp1961
I0
aI0
aI0
asI3142
(lp1962
I0
aI1
aI0
asI3143
(lp1963
I1
aI0
aI0
asI3144
(lp1964
I0
aI0
aI0
asI3145
(lp1965
I4
aI0
aI0
asI3146
(lp1966
I1
aI0
aI0
asI3147
(lp1967
I1
aI1
aI0
asI3148
(lp1968
I1
aI0
aI0
asI3149
(lp1969
I0
aI0
aI0
asI3150
(lp1970
I1
aI0
aI0
asI3151
(lp1971
I1
aI0
aI0
asI3152
(lp1972
I0
aI2
aI0
asI3153
(lp1973
I0
aI0
aI0
asI3154
(lp1974
I1
aI0
aI2
asI3155
(lp1975
I1
aI1
aI2
asI3156
(lp1976
I1
aI0
aI0
asI3157
(lp1977
I0
aI0
aI0
asI3158
(lp1978
I0
aI0
aI0
asI3159
(lp1979
I1
aI0
aI0
asI3160
(lp1980
I0
aI0
aI0
asI3161
(lp1981
I2
aI0
aI0
asI3162
(lp1982
I1
aI0
aI0
asI3164
(lp1983
I0
aI0
aI0
asI3165
(lp1984
I1
aI0
aI0
asI3166
(lp1985
I0
aI0
aI0
asI3167
(lp1986
I1
aI0
aI0
asI3168
(lp1987
I0
aI0
aI0
asI3169
(lp1988
I0
aI0
aI0
asI3170
(lp1989
I1
aI1
aI0
asI3171
(lp1990
I0
aI0
aI0
asI3172
(lp1991
I2
aI0
aI0
asI3173
(lp1992
I0
aI2
aI0
asI3174
(lp1993
I1
aI0
aI0
asI3175
(lp1994
I2
aI0
aI0
asI3176
(lp1995
I0
aI0
aI0
asI3177
(lp1996
I12
aI3
aI7
asI3178
(lp1997
I1
aI0
aI0
asI3179
(lp1998
I0
aI0
aI0
asI3180
(lp1999
I1
aI9
aI0
asI3181
(lp2000
I1
aI0
aI0
asI3183
(lp2001
I1
aI0
aI0
asI3184
(lp2002
I0
aI1
aI0
asI3185
(lp2003
I1
aI0
aI0
asI3186
(lp2004
I1
aI0
aI0
asI3187
(lp2005
I1
aI0
aI0
asI3188
(lp2006
I0
aI0
aI0
asI3189
(lp2007
I1
aI2
aI2
asI3190
(lp2008
I5
aI0
aI0
asI3191
(lp2009
I0
aI0
aI0
asI3192
(lp2010
I0
aI0
aI0
asI3193
(lp2011
I1
aI0
aI0
asI3194
(lp2012
I1
aI0
aI1
asI3195
(lp2013
I1
aI0
aI0
asI3196
(lp2014
I2
aI0
aI0
asI3197
(lp2015
I1
aI0
aI3
asI3198
(lp2016
I1
aI0
aI0
asI3199
(lp2017
I0
aI0
aI2
asI3200
(lp2018
I1
aI0
aI0
asI3201
(lp2019
I0
aI0
aI0
asI3202
(lp2020
I0
aI0
aI0
asI3203
(lp2021
I1
aI0
aI0
asI3204
(lp2022
I0
aI0
aI0
asI3205
(lp2023
I1
aI0
aI0
asI3206
(lp2024
I0
aI0
aI0
asI3207
(lp2025
I0
aI1
aI0
asI3208
(lp2026
I1
aI0
aI0
asI3209
(lp2027
I1
aI0
aI0
asI3210
(lp2028
I0
aI0
aI0
asI3211
(lp2029
I1
aI0
aI0
asI3212
(lp2030
I1
aI0
aI0
asI3213
(lp2031
I1
aI0
aI0
asI3214
(lp2032
I0
aI0
aI0
asI3215
(lp2033
I0
aI0
aI0
asI3216
(lp2034
I1
aI0
aI0
asI3217
(lp2035
I1
aI1
aI0
asI3218
(lp2036
I1
aI1
aI0
asI3219
(lp2037
I1
aI0
aI0
asI3220
(lp2038
I1
aI0
aI0
asI3221
(lp2039
I1
aI0
aI0
asI3222
(lp2040
I2
aI0
aI0
asI3223
(lp2041
I1
aI0
aI0
asI3224
(lp2042
I0
aI0
aI0
asI3225
(lp2043
I0
aI0
aI4
asI3226
(lp2044
I1
aI0
aI0
asI3227
(lp2045
I0
aI2
aI0
asI3228
(lp2046
I0
aI0
aI0
asI3229
(lp2047
I1
aI0
aI0
asI3230
(lp2048
I0
aI0
aI0
asI3231
(lp2049
I0
aI0
aI0
asI3232
(lp2050
I1
aI0
aI0
asI3233
(lp2051
I0
aI0
aI0
asI3234
(lp2052
I1
aI0
aI0
asI3235
(lp2053
I1
aI0
aI0
asI3236
(lp2054
I1
aI0
aI0
asI3237
(lp2055
I1
aI0
aI0
asI3238
(lp2056
I0
aI0
aI0
asI3239
(lp2057
I1
aI0
aI0
asI3240
(lp2058
I0
aI1
aI0
asI3241
(lp2059
I1
aI0
aI0
asI3242
(lp2060
I0
aI0
aI0
asI3243
(lp2061
I0
aI0
aI0
asI3244
(lp2062
I0
aI0
aI0
asI3245
(lp2063
I0
aI0
aI0
asI3246
(lp2064
I0
aI0
aI0
asI3247
(lp2065
I1
aI0
aI0
asI3248
(lp2066
I0
aI0
aI0
asI3249
(lp2067
I1
aI0
aI0
asI3250
(lp2068
I0
aI0
aI0
asI3251
(lp2069
I1
aI0
aI0
asI3252
(lp2070
I1
aI0
aI0
asI3253
(lp2071
I0
aI0
aI0
asI3254
(lp2072
I0
aI0
aI0
asI3255
(lp2073
I1
aI0
aI0
asI3256
(lp2074
I3
aI1
aI0
asI3257
(lp2075
I0
aI0
aI0
asI3258
(lp2076
I3
aI0
aI2
asI3259
(lp2077
I0
aI0
aI0
asI3260
(lp2078
I0
aI0
aI0
asI3261
(lp2079
I1
aI0
aI0
asI3262
(lp2080
I1
aI0
aI0
asI3263
(lp2081
I0
aI0
aI0
asI3264
(lp2082
I0
aI0
aI0
asI3265
(lp2083
I1
aI0
aI0
asI3266
(lp2084
I0
aI0
aI0
asI3267
(lp2085
I1
aI0
aI0
asI3268
(lp2086
I1
aI0
aI0
asI3269
(lp2087
I0
aI0
aI0
asI3270
(lp2088
I1
aI0
aI0
asI3271
(lp2089
I0
aI0
aI0
asI3272
(lp2090
I4
aI1
aI0
asI3273
(lp2091
I1
aI0
aI0
asI3274
(lp2092
I0
aI0
aI0
asI3275
(lp2093
I4
aI0
aI1
asI3276
(lp2094
I1
aI0
aI0
asI3277
(lp2095
I1
aI0
aI0
asI3278
(lp2096
I1
aI0
aI0
asI3279
(lp2097
I1
aI0
aI0
asI3280
(lp2098
I0
aI1
aI0
asI3281
(lp2099
I0
aI0
aI0
asI3282
(lp2100
I1
aI0
aI0
asI3283
(lp2101
I2
aI0
aI0
asI3284
(lp2102
I0
aI0
aI0
asI3285
(lp2103
I0
aI0
aI0
asI3286
(lp2104
I1
aI0
aI0
asI3287
(lp2105
I0
aI0
aI0
asI3288
(lp2106
I0
aI0
aI0
asI3289
(lp2107
I1
aI0
aI0
asI3290
(lp2108
I1
aI0
aI0
asI3291
(lp2109
I0
aI0
aI0
asI3292
(lp2110
I1
aI0
aI0
asI3293
(lp2111
I0
aI0
aI0
asI3294
(lp2112
I1
aI0
aI0
asI3295
(lp2113
I0
aI0
aI0
asI3296
(lp2114
I0
aI0
aI0
asI3297
(lp2115
I1
aI0
aI0
asI3298
(lp2116
I1
aI0
aI0
asI3299
(lp2117
I0
aI0
aI0
asI3300
(lp2118
I1
aI1
aI0
asI3301
(lp2119
I1
aI0
aI0
asI3302
(lp2120
I0
aI0
aI0
asI3303
(lp2121
I1
aI0
aI0
asI3304
(lp2122
I1
aI0
aI0
asI3305
(lp2123
I0
aI0
aI0
asI3306
(lp2124
I1
aI1
aI0
asI3307
(lp2125
I1
aI0
aI0
asI3308
(lp2126
I0
aI0
aI0
asI3309
(lp2127
I0
aI0
aI0
asI3310
(lp2128
I0
aI0
aI0
asI3311
(lp2129
I0
aI0
aI0
asI3312
(lp2130
I1
aI0
aI0
asI3313
(lp2131
I0
aI0
aI0
asI3314
(lp2132
I1
aI0
aI0
asI3315
(lp2133
I0
aI0
aI2
asI3316
(lp2134
I1
aI0
aI0
asI3317
(lp2135
I1
aI0
aI0
asI3318
(lp2136
I1
aI0
aI0
asI3319
(lp2137
I1
aI0
aI0
asI3321
(lp2138
I2
aI0
aI0
asI3322
(lp2139
I1
aI0
aI0
asI3323
(lp2140
I0
aI0
aI0
asI3324
(lp2141
I3
aI0
aI0
asI3325
(lp2142
I1
aI0
aI0
asI3326
(lp2143
I0
aI0
aI0
asI3327
(lp2144
I1
aI0
aI1
asI3328
(lp2145
I1
aI0
aI0
asI3329
(lp2146
I0
aI0
aI0
asI3330
(lp2147
I0
aI0
aI0
asI3331
(lp2148
I0
aI0
aI0
asI3332
(lp2149
I0
aI1
aI5
asI3333
(lp2150
I1
aI0
aI0
asI3334
(lp2151
I3
aI0
aI0
asI3335
(lp2152
I3
aI2
aI7
asI3336
(lp2153
I1
aI0
aI0
asI3337
(lp2154
I0
aI0
aI0
asI3338
(lp2155
I0
aI0
aI0
asI3339
(lp2156
I1
aI0
aI0
asI3340
(lp2157
I1
aI0
aI0
asI3341
(lp2158
I0
aI0
aI0
asI3342
(lp2159
I1
aI0
aI0
asI3343
(lp2160
I1
aI0
aI0
asI3344
(lp2161
I0
aI0
aI0
asI3345
(lp2162
I1
aI1
aI0
asI3346
(lp2163
I4
aI0
aI0
asI3347
(lp2164
I1
aI0
aI0
asI3348
(lp2165
I0
aI0
aI0
asI3349
(lp2166
I1
aI0
aI0
asI3350
(lp2167
I1
aI0
aI0
asI3351
(lp2168
I2
aI4
aI1
asI3352
(lp2169
I2
aI0
aI0
asI3353
(lp2170
I1
aI0
aI0
asI3354
(lp2171
I1
aI0
aI0
asI3355
(lp2172
I2
aI0
aI0
asI3356
(lp2173
I0
aI0
aI2
asI3357
(lp2174
I0
aI0
aI0
asI3358
(lp2175
I0
aI0
aI0
asI3359
(lp2176
I0
aI2
aI0
asI3360
(lp2177
I0
aI0
aI0
asI3361
(lp2178
I0
aI1
aI0
asI3362
(lp2179
I1
aI0
aI0
asI3363
(lp2180
I1
aI0
aI0
asI3364
(lp2181
I0
aI0
aI0
asI3365
(lp2182
I0
aI0
aI0
asI3366
(lp2183
I0
aI0
aI0
asI3367
(lp2184
I0
aI0
aI0
asI3368
(lp2185
I1
aI0
aI0
asI3369
(lp2186
I1
aI0
aI0
asI3370
(lp2187
I0
aI0
aI0
asI3371
(lp2188
I0
aI0
aI0
asI3372
(lp2189
I0
aI0
aI0
asI3373
(lp2190
I1
aI0
aI0
asI3374
(lp2191
I0
aI0
aI0
asI3375
(lp2192
I0
aI0
aI0
asI3376
(lp2193
I0
aI0
aI0
asI3377
(lp2194
I0
aI0
aI1
asI3378
(lp2195
I0
aI0
aI0
asI3379
(lp2196
I1
aI0
aI0
asI3380
(lp2197
I1
aI0
aI0
asI3381
(lp2198
I0
aI0
aI0
asI3382
(lp2199
I1
aI0
aI0
asI3383
(lp2200
I1
aI0
aI0
asI3384
(lp2201
I1
aI0
aI0
asI3385
(lp2202
I0
aI0
aI0
asI3386
(lp2203
I0
aI0
aI0
asI3387
(lp2204
I0
aI0
aI0
asI3388
(lp2205
I1
aI0
aI0
asI3389
(lp2206
I1
aI0
aI0
asI-1
(lp2207
I0
aI0
aI167
as.