(dp0
I1
(lp1
I0
aI0
aI0
asI2
(lp2
I0
aI4
aI7
asI3
(lp3
I0
aI0
aI0
asI4
(lp4
I0
aI0
aI0
asI5
(lp5
I0
aI0
aI1
asI6
(lp6
I0
aI0
aI0
asI7
(lp7
I1
aI0
aI2
asI8
(lp8
I0
aI0
aI0
asI9
(lp9
I0
aI0
aI0
asI10
(lp10
I1
aI0
aI1
asI11
(lp11
I1
aI0
aI20
asI12
(lp12
I0
aI0
aI7
asI13
(lp13
I0
aI0
aI0
asI14
(lp14
I0
aI0
aI2
asI15
(lp15
I1
aI1
aI7
asI16
(lp16
I2
aI2
aI18
asI17
(lp17
I4
aI2
aI30
asI18
(lp18
I1
aI0
aI2
asI19
(lp19
I0
aI5
aI5
asI20
(lp20
I10
aI13
aI119
asI21
(lp21
I0
aI0
aI0
asI22
(lp22
I2
aI0
aI3
asI23
(lp23
I1
aI0
aI1
asI24
(lp24
I30
aI21
aI199
asI25
(lp25
I0
aI0
aI0
asI26
(lp26
I0
aI0
aI0
asI27
(lp27
I0
aI1
aI3
asI28
(lp28
I0
aI0
aI0
asI29
(lp29
I0
aI0
aI14
asI30
(lp30
I12
aI11
aI263
asI31
(lp31
I0
aI0
aI0
asI32
(lp32
I0
aI1
aI0
asI33
(lp33
I3
aI1
aI18
asI34
(lp34
I5
aI12
aI27
asI35
(lp35
I0
aI0
aI5
asI36
(lp36
I0
aI0
aI0
asI37
(lp37
I1
aI3
aI19
asI38
(lp38
I0
aI0
aI5
asI39
(lp39
I0
aI0
aI0
asI40
(lp40
I0
aI0
aI1
asI41
(lp41
I0
aI0
aI0
asI42
(lp42
I0
aI0
aI0
asI43
(lp43
I4
aI9
aI113
asI44
(lp44
I30
aI46
aI381
asI45
(lp45
I2
aI2
aI24
asI46
(lp46
I2
aI2
aI19
asI47
(lp47
I0
aI0
aI179
asI48
(lp48
I4
aI0
aI6
asI49
(lp49
I0
aI0
aI0
asI50
(lp50
I0
aI0
aI0
asI51
(lp51
I0
aI2
aI0
asI52
(lp52
I2
aI16
aI105
asI53
(lp53
I1
aI0
aI26
asI54
(lp54
I0
aI0
aI0
asI55
(lp55
I0
aI0
aI0
asI56
(lp56
I0
aI0
aI0
asI57
(lp57
I0
aI0
aI0
asI58
(lp58
I2
aI2
aI47
asI59
(lp59
I1
aI4
aI11
asI60
(lp60
I0
aI0
aI0
asI61
(lp61
I1
aI0
aI1
asI62
(lp62
I0
aI0
aI0
asI63
(lp63
I4
aI8
aI23
asI64
(lp64
I0
aI0
aI0
asI65
(lp65
I1
aI0
aI29
asI66
(lp66
I0
aI0
aI0
asI67
(lp67
I0
aI0
aI0
asI68
(lp68
I0
aI0
aI1
asI69
(lp69
I0
aI0
aI0
asI70
(lp70
I2
aI6
aI8
asI71
(lp71
I8
aI2
aI66
asI72
(lp72
I3
aI1
aI26
asI73
(lp73
I0
aI0
aI1
asI74
(lp74
I0
aI0
aI10
asI75
(lp75
I0
aI0
aI0
asI76
(lp76
I0
aI0
aI1
asI77
(lp77
I1
aI0
aI5
asI78
(lp78
I0
aI0
aI0
asI79
(lp79
I1
aI4
aI7
asI80
(lp80
I0
aI0
aI0
asI81
(lp81
I0
aI0
aI1
asI82
(lp82
I0
aI2
aI5
asI83
(lp83
I0
aI0
aI0
asI84
(lp84
I6
aI9
aI21
asI85
(lp85
I3
aI10
aI48
asI86
(lp86
I4
aI1
aI9
asI87
(lp87
I0
aI0
aI0
asI88
(lp88
I0
aI0
aI0
asI89
(lp89
I0
aI0
aI0
asI90
(lp90
I0
aI4
aI25
asI91
(lp91
I0
aI0
aI0
asI92
(lp92
I4
aI1
aI24
asI93
(lp93
I0
aI0
aI0
asI94
(lp94
I0
aI0
aI2
asI95
(lp95
I3
aI7
aI15
asI96
(lp96
I27
aI1
aI234
asI97
(lp97
I0
aI0
aI0
asI98
(lp98
I0
aI0
aI0
asI99
(lp99
I0
aI0
aI0
asI100
(lp100
I1
aI0
aI0
asI101
(lp101
I0
aI0
aI50
asI102
(lp102
I0
aI0
aI0
asI103
(lp103
I0
aI0
aI0
asI104
(lp104
I0
aI0
aI0
asI105
(lp105
I0
aI0
aI0
asI106
(lp106
I0
aI0
aI0
asI107
(lp107
I0
aI0
aI0
asI108
(lp108
I0
aI0
aI0
asI109
(lp109
I3
aI0
aI4
asI110
(lp110
I0
aI0
aI0
asI111
(lp111
I0
aI0
aI0
asI112
(lp112
I1
aI1
aI3
asI113
(lp113
I1
aI0
aI0
asI114
(lp114
I0
aI1
aI1
asI115
(lp115
I0
aI0
aI0
asI116
(lp116
I2
aI0
aI4
asI117
(lp117
I0
aI2
aI51
asI118
(lp118
I0
aI0
aI0
asI119
(lp119
I0
aI1
aI3
asI120
(lp120
I0
aI0
aI22
asI121
(lp121
I0
aI0
aI2
asI122
(lp122
I0
aI0
aI0
asI123
(lp123
I0
aI0
aI1
asI124
(lp124
I0
aI0
aI0
asI125
(lp125
I0
aI0
aI0
asI126
(lp126
I0
aI0
aI0
asI127
(lp127
I0
aI0
aI0
asI128
(lp128
I0
aI0
aI0
asI129
(lp129
I0
aI2
aI4
asI130
(lp130
I0
aI2
aI5
asI131
(lp131
I0
aI0
aI5
asI132
(lp132
I4
aI7
aI53
asI133
(lp133
I0
aI0
aI4
asI134
(lp134
I2
aI0
aI65
asI135
(lp135
I0
aI2
aI1
asI136
(lp136
I0
aI0
aI0
asI137
(lp137
I3
aI10
aI8
asI138
(lp138
I0
aI2
aI37
asI139
(lp139
I0
aI1
aI0
asI140
(lp140
I0
aI3
aI18
asI141
(lp141
I0
aI0
aI0
asI142
(lp142
I0
aI0
aI1
asI143
(lp143
I0
aI0
aI0
asI144
(lp144
I0
aI0
aI0
asI145
(lp145
I0
aI0
aI0
asI146
(lp146
I0
aI0
aI1
asI147
(lp147
I0
aI0
aI0
asI148
(lp148
I0
aI0
aI0
asI149
(lp149
I0
aI0
aI0
asI150
(lp150
I0
aI1
aI2
asI151
(lp151
I0
aI0
aI9
asI152
(lp152
I0
aI0
aI0
asI153
(lp153
I0
aI1
aI3
asI154
(lp154
I0
aI0
aI0
asI155
(lp155
I0
aI0
aI0
asI156
(lp156
I1
aI0
aI2
asI157
(lp157
I0
aI0
aI0
asI158
(lp158
I0
aI0
aI0
asI159
(lp159
I0
aI0
aI1
asI160
(lp160
I0
aI0
aI0
asI161
(lp161
I0
aI0
aI1
asI162
(lp162
I0
aI0
aI0
asI163
(lp163
I2
aI5
aI8
asI164
(lp164
I0
aI0
aI0
asI165
(lp165
I0
aI0
aI0
asI166
(lp166
I0
aI0
aI4
asI167
(lp167
I0
aI0
aI0
asI168
(lp168
I0
aI0
aI6
asI169
(lp169
I0
aI0
aI0
asI170
(lp170
I0
aI0
aI0
asI171
(lp171
I0
aI0
aI0
asI172
(lp172
I0
aI0
aI0
asI173
(lp173
I0
aI0
aI0
asI174
(lp174
I0
aI0
aI0
asI175
(lp175
I0
aI0
aI0
asI176
(lp176
I0
aI0
aI0
asI177
(lp177
I0
aI0
aI0
asI178
(lp178
I0
aI0
aI0
asI179
(lp179
I0
aI0
aI1
asI180
(lp180
I0
aI0
aI0
asI181
(lp181
I0
aI0
aI1
asI182
(lp182
I0
aI0
aI0
asI183
(lp183
I1
aI0
aI1
asI184
(lp184
I0
aI6
aI5
asI185
(lp185
I0
aI0
aI0
asI186
(lp186
I0
aI0
aI8
asI187
(lp187
I0
aI0
aI0
asI188
(lp188
I0
aI0
aI1
asI189
(lp189
I0
aI0
aI0
asI190
(lp190
I0
aI0
aI5
asI191
(lp191
I0
aI6
aI3
asI192
(lp192
I0
aI5
aI28
asI193
(lp193
I0
aI0
aI4
asI194
(lp194
I1
aI0
aI1
asI195
(lp195
I0
aI0
aI3
asI196
(lp196
I0
aI0
aI0
asI197
(lp197
I0
aI2
aI0
asI198
(lp198
I0
aI0
aI0
asI199
(lp199
I3
aI0
aI2
asI200
(lp200
I0
aI0
aI0
asI201
(lp201
I0
aI0
aI0
asI202
(lp202
I0
aI0
aI0
asI203
(lp203
I0
aI1
aI1
asI204
(lp204
I0
aI0
aI0
asI205
(lp205
I0
aI0
aI0
asI206
(lp206
I0
aI0
aI0
asI207
(lp207
I0
aI0
aI0
asI208
(lp208
I0
aI1
aI0
asI209
(lp209
I0
aI0
aI0
asI210
(lp210
I0
aI0
aI10
asI211
(lp211
I0
aI0
aI0
asI214
(lp212
I0
aI0
aI0
asI215
(lp213
I0
aI0
aI0
asI216
(lp214
I0
aI0
aI0
asI217
(lp215
I0
aI0
aI0
asI218
(lp216
I0
aI0
aI1
asI219
(lp217
I0
aI0
aI0
asI220
(lp218
I1
aI0
aI0
asI221
(lp219
I0
aI0
aI8
asI222
(lp220
I0
aI0
aI0
asI223
(lp221
I1
aI0
aI1
asI224
(lp222
I0
aI0
aI0
asI225
(lp223
I0
aI1
aI3
asI226
(lp224
I0
aI0
aI0
asI227
(lp225
I0
aI0
aI0
asI228
(lp226
I0
aI0
aI0
asI229
(lp227
I0
aI0
aI0
asI230
(lp228
I1
aI0
aI0
asI231
(lp229
I0
aI0
aI0
asI232
(lp230
I3
aI10
aI63
asI233
(lp231
I0
aI0
aI0
asI234
(lp232
I2
aI1
aI48
asI235
(lp233
I0
aI0
aI0
asI236
(lp234
I0
aI0
aI0
asI237
(lp235
I0
aI0
aI0
asI238
(lp236
I0
aI0
aI0
asI239
(lp237
I0
aI2
aI6
asI240
(lp238
I0
aI0
aI0
asI241
(lp239
I0
aI0
aI0
asI242
(lp240
I0
aI0
aI0
asI243
(lp241
I0
aI0
aI10
asI244
(lp242
I0
aI1
aI0
asI245
(lp243
I0
aI1
aI0
asI246
(lp244
I0
aI0
aI0
asI247
(lp245
I0
aI0
aI4
asI248
(lp246
I0
aI0
aI1
asI249
(lp247
I0
aI0
aI5
asI250
(lp248
I0
aI0
aI2
asI251
(lp249
I0
aI0
aI1
asI252
(lp250
I0
aI0
aI0
asI253
(lp251
I0
aI5
aI0
asI254
(lp252
I0
aI0
aI0
asI255
(lp253
I0
aI0
aI7
asI256
(lp254
I0
aI3
aI10
asI257
(lp255
I0
aI0
aI1
asI258
(lp256
I0
aI0
aI1
asI259
(lp257
I0
aI0
aI0
asI260
(lp258
I0
aI0
aI2
asI261
(lp259
I0
aI0
aI0
asI262
(lp260
I0
aI0
aI2
asI263
(lp261
I0
aI0
aI0
asI264
(lp262
I0
aI0
aI2
asI265
(lp263
I0
aI0
aI0
asI266
(lp264
I0
aI0
aI0
asI267
(lp265
I0
aI0
aI0
asI268
(lp266
I0
aI0
aI0
asI269
(lp267
I0
aI0
aI0
asI270
(lp268
I0
aI0
aI13
asI271
(lp269
I0
aI1
aI0
asI272
(lp270
I0
aI0
aI2
asI273
(lp271
I0
aI0
aI0
asI274
(lp272
I0
aI0
aI0
asI275
(lp273
I0
aI0
aI0
asI276
(lp274
I0
aI0
aI0
asI277
(lp275
I0
aI0
aI0
asI278
(lp276
I0
aI0
aI1
asI279
(lp277
I0
aI1
aI12
asI280
(lp278
I0
aI0
aI0
asI281
(lp279
I1
aI0
aI0
asI282
(lp280
I0
aI0
aI0
asI283
(lp281
I0
aI0
aI0
asI284
(lp282
I0
aI0
aI0
asI285
(lp283
I0
aI0
aI4
asI286
(lp284
I0
aI0
aI14
asI287
(lp285
I0
aI0
aI0
asI288
(lp286
I0
aI0
aI0
asI289
(lp287
I0
aI0
aI3
asI290
(lp288
I0
aI0
aI0
asI291
(lp289
I0
aI0
aI0
asI292
(lp290
I0
aI0
aI0
asI293
(lp291
I0
aI0
aI0
asI294
(lp292
I0
aI0
aI0
asI295
(lp293
I0
aI0
aI0
asI296
(lp294
I0
aI0
aI2
asI297
(lp295
I0
aI0
aI0
asI298
(lp296
I0
aI0
aI0
asI299
(lp297
I0
aI0
aI0
asI300
(lp298
I0
aI0
aI0
asI301
(lp299
I0
aI0
aI2
asI302
(lp300
I0
aI0
aI1
asI303
(lp301
I0
aI0
aI0
asI304
(lp302
I0
aI0
aI0
asI305
(lp303
I0
aI0
aI0
asI306
(lp304
I0
aI0
aI0
asI307
(lp305
I0
aI6
aI15
asI308
(lp306
I0
aI1
aI0
asI309
(lp307
I0
aI0
aI2
asI310
(lp308
I0
aI0
aI0
asI311
(lp309
I0
aI0
aI0
asI312
(lp310
I0
aI0
aI0
asI313
(lp311
I0
aI0
aI0
asI314
(lp312
I1
aI0
aI0
asI315
(lp313
I0
aI0
aI0
asI316
(lp314
I0
aI0
aI0
asI317
(lp315
I0
aI0
aI0
asI318
(lp316
I0
aI0
aI0
asI319
(lp317
I0
aI2
aI5
asI320
(lp318
I0
aI0
aI0
asI321
(lp319
I0
aI0
aI1
asI322
(lp320
I0
aI0
aI0
asI323
(lp321
I0
aI0
aI0
asI324
(lp322
I0
aI4
aI22
asI325
(lp323
I0
aI0
aI0
asI326
(lp324
I0
aI1
aI0
asI327
(lp325
I0
aI0
aI1
asI328
(lp326
I0
aI0
aI1
asI329
(lp327
I0
aI0
aI0
asI330
(lp328
I0
aI0
aI2
asI331
(lp329
I0
aI1
aI0
asI332
(lp330
I0
aI0
aI0
asI333
(lp331
I0
aI0
aI7
asI334
(lp332
I0
aI0
aI5
asI335
(lp333
I0
aI1
aI0
asI336
(lp334
I0
aI0
aI0
asI337
(lp335
I0
aI0
aI2
asI338
(lp336
I0
aI0
aI0
asI339
(lp337
I0
aI0
aI0
asI340
(lp338
I0
aI0
aI0
asI341
(lp339
I0
aI0
aI0
asI342
(lp340
I0
aI0
aI0
asI343
(lp341
I1
aI4
aI1
asI344
(lp342
I0
aI6
aI6
asI345
(lp343
I0
aI0
aI0
asI346
(lp344
I0
aI0
aI0
asI347
(lp345
I0
aI0
aI0
asI348
(lp346
I0
aI0
aI0
asI349
(lp347
I1
aI0
aI0
asI350
(lp348
I0
aI0
aI0
asI351
(lp349
I0
aI0
aI0
asI352
(lp350
I0
aI0
aI18
asI353
(lp351
I0
aI0
aI0
asI354
(lp352
I0
aI0
aI0
asI355
(lp353
I0
aI1
aI0
asI356
(lp354
I0
aI0
aI0
asI357
(lp355
I0
aI1
aI1
asI358
(lp356
I2
aI1
aI9
asI359
(lp357
I0
aI0
aI0
asI360
(lp358
I0
aI0
aI0
asI361
(lp359
I0
aI1
aI0
asI362
(lp360
I0
aI1
aI0
asI363
(lp361
I0
aI0
aI0
asI364
(lp362
I0
aI1
aI0
asI365
(lp363
I1
aI0
aI8
asI366
(lp364
I0
aI0
aI2
asI367
(lp365
I0
aI0
aI1
asI368
(lp366
I0
aI0
aI0
asI369
(lp367
I0
aI0
aI0
asI370
(lp368
I0
aI1
aI0
asI371
(lp369
I0
aI0
aI0
asI372
(lp370
I0
aI0
aI1
asI373
(lp371
I0
aI0
aI0
asI374
(lp372
I0
aI1
aI0
asI375
(lp373
I0
aI0
aI0
asI376
(lp374
I0
aI0
aI0
asI377
(lp375
I0
aI0
aI0
asI378
(lp376
I0
aI0
aI0
asI379
(lp377
I0
aI0
aI0
asI380
(lp378
I1
aI0
aI0
asI381
(lp379
I0
aI0
aI0
asI382
(lp380
I0
aI1
aI0
asI383
(lp381
I0
aI0
aI0
asI384
(lp382
I0
aI0
aI0
asI385
(lp383
I0
aI0
aI1
asI386
(lp384
I0
aI0
aI0
asI387
(lp385
I0
aI0
aI0
asI388
(lp386
I0
aI0
aI0
asI389
(lp387
I0
aI0
aI0
asI390
(lp388
I0
aI0
aI0
asI391
(lp389
I0
aI0
aI2
asI392
(lp390
I0
aI0
aI0
asI393
(lp391
I0
aI0
aI0
asI394
(lp392
I0
aI1
aI0
asI395
(lp393
I0
aI0
aI0
asI396
(lp394
I0
aI1
aI0
asI397
(lp395
I0
aI0
aI0
asI398
(lp396
I0
aI0
aI0
asI399
(lp397
I1
aI0
aI0
asI400
(lp398
I0
aI5
aI87
asI401
(lp399
I0
aI0
aI0
asI402
(lp400
I0
aI0
aI0
asI403
(lp401
I0
aI0
aI0
asI404
(lp402
I0
aI0
aI0
asI405
(lp403
I0
aI0
aI0
asI406
(lp404
I0
aI0
aI0
asI407
(lp405
I0
aI0
aI0
asI408
(lp406
I2
aI0
aI1
asI409
(lp407
I0
aI0
aI0
asI410
(lp408
I0
aI0
aI3
asI411
(lp409
I0
aI1
aI0
asI412
(lp410
I1
aI0
aI1
asI413
(lp411
I0
aI0
aI0
asI414
(lp412
I0
aI0
aI1
asI415
(lp413
I0
aI0
aI0
asI416
(lp414
I0
aI1
aI0
asI417
(lp415
I0
aI0
aI0
asI418
(lp416
I0
aI0
aI0
asI419
(lp417
I0
aI0
aI2
asI420
(lp418
I0
aI0
aI1
asI421
(lp419
I0
aI0
aI0
asI422
(lp420
I0
aI0
aI0
asI423
(lp421
I0
aI0
aI0
asI424
(lp422
I0
aI0
aI4
asI425
(lp423
I0
aI0
aI2
asI426
(lp424
I1
aI3
aI55
asI427
(lp425
I0
aI0
aI0
asI428
(lp426
I0
aI0
aI0
asI429
(lp427
I0
aI0
aI0
asI430
(lp428
I1
aI0
aI3
asI431
(lp429
I0
aI1
aI0
asI432
(lp430
I0
aI0
aI0
asI433
(lp431
I0
aI0
aI0
asI434
(lp432
I0
aI0
aI0
asI435
(lp433
I1
aI0
aI0
asI436
(lp434
I0
aI0
aI0
asI437
(lp435
I0
aI0
aI0
asI438
(lp436
I0
aI0
aI0
asI439
(lp437
I0
aI0
aI0
asI440
(lp438
I0
aI0
aI3
asI441
(lp439
I0
aI1
aI5
asI442
(lp440
I0
aI0
aI0
asI443
(lp441
I0
aI0
aI0
asI444
(lp442
I0
aI3
aI0
asI445
(lp443
I0
aI0
aI0
asI446
(lp444
I0
aI0
aI0
asI447
(lp445
I1
aI0
aI0
asI448
(lp446
I0
aI2
aI1
asI449
(lp447
I0
aI0
aI0
asI450
(lp448
I0
aI1
aI0
asI451
(lp449
I0
aI0
aI0
asI452
(lp450
I0
aI0
aI0
asI453
(lp451
I0
aI0
aI0
asI454
(lp452
I0
aI0
aI0
asI455
(lp453
I0
aI0
aI0
asI456
(lp454
I0
aI3
aI0
asI457
(lp455
I0
aI0
aI0
asI458
(lp456
I0
aI0
aI0
asI459
(lp457
I0
aI0
aI0
asI460
(lp458
I0
aI0
aI0
asI461
(lp459
I0
aI0
aI0
asI462
(lp460
I1
aI0
aI0
asI463
(lp461
I0
aI0
aI2
asI464
(lp462
I0
aI0
aI0
asI465
(lp463
I0
aI0
aI0
asI466
(lp464
I0
aI0
aI0
asI467
(lp465
I1
aI0
aI0
asI468
(lp466
I0
aI0
aI0
asI469
(lp467
I0
aI0
aI0
asI470
(lp468
I0
aI1
aI0
asI471
(lp469
I0
aI0
aI0
asI472
(lp470
I0
aI0
aI0
asI473
(lp471
I1
aI0
aI2
asI474
(lp472
I0
aI0
aI0
asI475
(lp473
I0
aI0
aI0
asI476
(lp474
I0
aI0
aI0
asI477
(lp475
I0
aI0
aI0
asI478
(lp476
I0
aI1
aI0
asI479
(lp477
I0
aI0
aI0
asI480
(lp478
I1
aI0
aI0
asI481
(lp479
I0
aI0
aI0
asI482
(lp480
I0
aI0
aI0
asI-1
(lp481
I0
aI0
aI13
as.