(dp0
I0
(lp1
I32
aI35
aI0
asI1
(lp2
I0
aI0
aI0
asI2
(lp3
I0
aI0
aI0
asI4
(lp4
I0
aI0
aI0
asI5
(lp5
I0
aI0
aI1
asI6
(lp6
I0
aI0
aI1
asI7
(lp7
I4
aI0
aI1
asI8
(lp8
I0
aI0
aI0
asI9
(lp9
I17
aI9
aI185
asI10
(lp10
I0
aI0
aI0
asI11
(lp11
I0
aI0
aI0
asI12
(lp12
I0
aI1
aI0
asI13
(lp13
I0
aI1
aI3
asI14
(lp14
I0
aI0
aI0
asI15
(lp15
I0
aI0
aI0
asI16
(lp16
I0
aI0
aI0
asI17
(lp17
I0
aI0
aI0
asI18
(lp18
I0
aI0
aI1
asI19
(lp19
I2
aI13
aI29
asI20
(lp20
I0
aI0
aI5
asI21
(lp21
I0
aI0
aI2
asI22
(lp22
I1
aI46
aI376
asI23
(lp23
I0
aI0
aI0
asI24
(lp24
I0
aI0
aI0
asI25
(lp25
I2
aI15
aI26
asI26
(lp26
I5
aI58
aI853
asI27
(lp27
I1
aI0
aI2
asI28
(lp28
I2
aI0
aI18
asI29
(lp29
I0
aI5
aI8
asI30
(lp30
I0
aI0
aI0
asI31
(lp31
I0
aI0
aI2
asI32
(lp32
I0
aI0
aI4
asI33
(lp33
I0
aI0
aI0
asI34
(lp34
I3
aI19
aI97
asI35
(lp35
I0
aI0
aI0
asI36
(lp36
I0
aI1
aI0
asI37
(lp37
I0
aI29
aI74
asI38
(lp38
I12
aI0
aI32
asI39
(lp39
I0
aI0
aI0
asI40
(lp40
I0
aI1
aI5
asI41
(lp41
I0
aI0
aI6
asI42
(lp42
I0
aI1
aI10
asI43
(lp43
I0
aI0
aI2
asI44
(lp44
I0
aI0
aI0
asI45
(lp45
I5
aI130
aI559
asI46
(lp46
I0
aI0
aI1
asI47
(lp47
I5
aI15
aI39
asI48
(lp48
I0
aI1
aI0
asI49
(lp49
I0
aI3
aI8
asI50
(lp50
I0
aI0
aI0
asI51
(lp51
I0
aI0
aI0
asI52
(lp52
I0
aI0
aI6
asI53
(lp53
I0
aI1
aI1
asI54
(lp54
I0
aI0
aI0
asI55
(lp55
I12
aI23
aI81
asI56
(lp56
I0
aI0
aI0
asI57
(lp57
I0
aI0
aI0
asI58
(lp58
I0
aI0
aI0
asI59
(lp59
I4
aI0
aI41
asI60
(lp60
I0
aI0
aI0
asI61
(lp61
I0
aI0
aI0
asI63
(lp62
I0
aI1
aI0
asI65
(lp63
I0
aI0
aI10
asI66
(lp64
I0
aI0
aI1
asI67
(lp65
I0
aI0
aI0
asI68
(lp66
I5
aI32
aI402
asI69
(lp67
I0
aI1
aI1
asI70
(lp68
I0
aI1
aI0
asI71
(lp69
I0
aI0
aI5
asI72
(lp70
I0
aI0
aI0
asI73
(lp71
I0
aI0
aI0
asI75
(lp72
I0
aI39
aI128
asI76
(lp73
I0
aI0
aI0
asI77
(lp74
I0
aI0
aI7
asI78
(lp75
I4
aI12
aI36
asI79
(lp76
I0
aI0
aI0
asI80
(lp77
I4
aI4
aI51
asI81
(lp78
I2
aI4
aI12
asI82
(lp79
I0
aI0
aI0
asI83
(lp80
I0
aI3
aI1
asI84
(lp81
I7
aI4
aI96
asI85
(lp82
I1
aI6
aI22
asI86
(lp83
I1
aI1
aI0
asI87
(lp84
I0
aI0
aI1
asI88
(lp85
I0
aI1
aI3
asI89
(lp86
I0
aI0
aI0
asI90
(lp87
I1
aI0
aI1
asI91
(lp88
I0
aI0
aI0
asI92
(lp89
I0
aI0
aI0
asI93
(lp90
I0
aI1
aI1
asI94
(lp91
I0
aI5
aI7
asI95
(lp92
I1
aI0
aI2
asI96
(lp93
I0
aI0
aI0
asI97
(lp94
I0
aI0
aI0
asI98
(lp95
I0
aI0
aI5
asI99
(lp96
I0
aI0
aI3
asI100
(lp97
I2
aI0
aI12
asI101
(lp98
I0
aI0
aI6
asI102
(lp99
I0
aI1
aI6
asI103
(lp100
I0
aI0
aI0
asI104
(lp101
I2
aI0
aI6
asI105
(lp102
I0
aI0
aI5
asI106
(lp103
I0
aI0
aI0
asI107
(lp104
I5
aI22
aI42
asI108
(lp105
I1
aI0
aI1
asI109
(lp106
I0
aI0
aI1
asI110
(lp107
I1
aI1
aI1
asI112
(lp108
I0
aI0
aI0
asI113
(lp109
I0
aI0
aI0
asI114
(lp110
I0
aI0
aI17
asI115
(lp111
I8
aI4
aI68
asI116
(lp112
I0
aI0
aI0
asI118
(lp113
I0
aI0
aI1
asI119
(lp114
I0
aI0
aI21
asI120
(lp115
I6
aI2
aI18
asI121
(lp116
I0
aI0
aI3
asI122
(lp117
I0
aI0
aI1
asI123
(lp118
I1
aI0
aI1
asI124
(lp119
I0
aI5
aI0
asI125
(lp120
I0
aI0
aI0
asI126
(lp121
I0
aI0
aI0
asI127
(lp122
I0
aI0
aI0
asI128
(lp123
I2
aI1
aI13
asI129
(lp124
I7
aI6
aI80
asI130
(lp125
I0
aI0
aI3
asI131
(lp126
I0
aI0
aI0
asI132
(lp127
I3
aI10
aI81
asI133
(lp128
I0
aI0
aI0
asI134
(lp129
I0
aI1
aI3
asI135
(lp130
I0
aI0
aI1
asI136
(lp131
I0
aI0
aI2
asI137
(lp132
I1
aI35
aI347
asI138
(lp133
I12
aI42
aI412
asI139
(lp134
I0
aI0
aI2
asI140
(lp135
I2
aI0
aI1
asI141
(lp136
I0
aI0
aI0
asI142
(lp137
I3
aI5
aI122
asI143
(lp138
I0
aI0
aI14
asI144
(lp139
I2
aI2
aI0
asI145
(lp140
I1
aI2
aI3
asI146
(lp141
I1
aI5
aI23
asI147
(lp142
I21
aI6
aI68
asI148
(lp143
I1
aI0
aI6
asI149
(lp144
I0
aI0
aI0
asI150
(lp145
I0
aI0
aI0
asI151
(lp146
I4
aI2
aI25
asI152
(lp147
I0
aI0
aI6
asI154
(lp148
I0
aI0
aI5
asI155
(lp149
I0
aI1
aI0
asI156
(lp150
I0
aI0
aI0
asI157
(lp151
I0
aI4
aI14
asI158
(lp152
I3
aI10
aI96
asI159
(lp153
I0
aI0
aI0
asI160
(lp154
I8
aI39
aI212
asI161
(lp155
I0
aI0
aI1
asI162
(lp156
I0
aI0
aI0
asI163
(lp157
I0
aI0
aI1
asI164
(lp158
I1
aI0
aI0
asI165
(lp159
I0
aI0
aI0
asI166
(lp160
I0
aI0
aI0
asI167
(lp161
I0
aI0
aI0
asI168
(lp162
I0
aI0
aI1
asI169
(lp163
I0
aI4
aI8
asI170
(lp164
I34
aI26
aI157
asI171
(lp165
I0
aI0
aI0
asI172
(lp166
I0
aI0
aI2
asI174
(lp167
I0
aI0
aI0
asI176
(lp168
I0
aI0
aI0
asI177
(lp169
I0
aI0
aI0
asI178
(lp170
I0
aI0
aI5
asI179
(lp171
I8
aI10
aI218
asI180
(lp172
I0
aI0
aI0
asI182
(lp173
I0
aI0
aI0
asI183
(lp174
I0
aI0
aI0
asI184
(lp175
I0
aI0
aI0
asI185
(lp176
I1
aI2
aI1
asI186
(lp177
I0
aI0
aI0
asI187
(lp178
I0
aI0
aI0
asI188
(lp179
I0
aI0
aI6
asI189
(lp180
I1
aI0
aI7
asI190
(lp181
I1
aI7
aI221
asI191
(lp182
I3
aI14
aI54
asI192
(lp183
I0
aI0
aI0
asI193
(lp184
I1
aI0
aI6
asI194
(lp185
I0
aI0
aI0
asI195
(lp186
I1
aI0
aI3
asI196
(lp187
I0
aI0
aI0
asI197
(lp188
I0
aI0
aI0
asI198
(lp189
I1
aI0
aI0
asI199
(lp190
I0
aI0
aI0
asI200
(lp191
I0
aI0
aI4
asI201
(lp192
I0
aI0
aI0
asI202
(lp193
I0
aI0
aI11
asI204
(lp194
I0
aI0
aI2
asI205
(lp195
I0
aI0
aI8
asI206
(lp196
I0
aI0
aI0
asI207
(lp197
I2
aI1
aI0
asI208
(lp198
I1
aI2
aI0
asI209
(lp199
I0
aI0
aI1
asI210
(lp200
I0
aI0
aI0
asI211
(lp201
I0
aI4
aI27
asI212
(lp202
I0
aI0
aI167
asI213
(lp203
I0
aI0
aI0
asI214
(lp204
I0
aI0
aI2
asI216
(lp205
I0
aI0
aI0
asI217
(lp206
I0
aI0
aI0
asI218
(lp207
I1
aI13
aI4
asI219
(lp208
I0
aI0
aI0
asI220
(lp209
I0
aI0
aI5
asI221
(lp210
I0
aI0
aI0
asI222
(lp211
I0
aI0
aI0
asI224
(lp212
I0
aI0
aI0
asI225
(lp213
I0
aI0
aI0
asI226
(lp214
I0
aI1
aI2
asI227
(lp215
I5
aI12
aI113
asI228
(lp216
I0
aI4
aI14
asI229
(lp217
I5
aI6
aI85
asI230
(lp218
I0
aI1
aI4
asI231
(lp219
I0
aI0
aI4
asI232
(lp220
I0
aI0
aI0
asI233
(lp221
I0
aI1
aI0
asI234
(lp222
I0
aI0
aI0
asI235
(lp223
I0
aI0
aI0
asI236
(lp224
I0
aI0
aI0
asI237
(lp225
I0
aI0
aI0
asI238
(lp226
I0
aI0
aI0
asI239
(lp227
I0
aI1
aI0
asI240
(lp228
I0
aI0
aI0
asI241
(lp229
I1
aI0
aI0
asI242
(lp230
I15
aI22
aI420
asI243
(lp231
I0
aI0
aI0
asI244
(lp232
I0
aI2
aI26
asI245
(lp233
I0
aI0
aI0
asI246
(lp234
I0
aI0
aI0
asI247
(lp235
I0
aI0
aI0
asI248
(lp236
I0
aI0
aI0
asI249
(lp237
I0
aI0
aI0
asI250
(lp238
I0
aI0
aI0
asI251
(lp239
I0
aI0
aI0
asI252
(lp240
I0
aI0
aI0
asI253
(lp241
I0
aI0
aI0
asI254
(lp242
I1
aI0
aI1
asI255
(lp243
I0
aI0
aI0
asI258
(lp244
I0
aI0
aI0
asI260
(lp245
I0
aI0
aI0
asI261
(lp246
I0
aI0
aI0
asI262
(lp247
I0
aI0
aI0
asI264
(lp248
I0
aI0
aI0
asI265
(lp249
I0
aI0
aI0
asI266
(lp250
I0
aI0
aI2
asI267
(lp251
I0
aI0
aI4
asI268
(lp252
I0
aI0
aI0
asI269
(lp253
I0
aI0
aI0
asI271
(lp254
I0
aI0
aI0
asI272
(lp255
I0
aI0
aI1
asI273
(lp256
I1
aI0
aI2
asI274
(lp257
I0
aI0
aI0
asI275
(lp258
I0
aI0
aI0
asI277
(lp259
I4
aI1
aI5
asI279
(lp260
I0
aI0
aI0
asI280
(lp261
I2
aI0
aI1
asI281
(lp262
I2
aI1
aI0
asI282
(lp263
I1
aI1
aI2
asI283
(lp264
I0
aI0
aI0
asI284
(lp265
I0
aI0
aI0
asI285
(lp266
I0
aI0
aI0
asI286
(lp267
I0
aI0
aI0
asI287
(lp268
I0
aI0
aI0
asI288
(lp269
I1
aI1
aI1
asI289
(lp270
I0
aI0
aI0
asI290
(lp271
I0
aI0
aI9
asI291
(lp272
I2
aI0
aI0
asI292
(lp273
I0
aI0
aI6
asI293
(lp274
I0
aI0
aI0
asI294
(lp275
I0
aI0
aI0
asI295
(lp276
I0
aI0
aI0
asI296
(lp277
I0
aI0
aI0
asI297
(lp278
I0
aI0
aI0
asI298
(lp279
I1
aI0
aI0
asI299
(lp280
I1
aI1
aI0
asI300
(lp281
I0
aI0
aI1
asI301
(lp282
I1
aI1
aI2
asI302
(lp283
I0
aI0
aI0
asI303
(lp284
I0
aI0
aI1
asI304
(lp285
I2
aI1
aI0
asI306
(lp286
I1
aI0
aI0
asI307
(lp287
I0
aI0
aI1
asI308
(lp288
I1
aI6
aI46
asI309
(lp289
I0
aI0
aI0
asI310
(lp290
I9
aI5
aI13
asI311
(lp291
I0
aI0
aI0
asI312
(lp292
I0
aI0
aI2
asI313
(lp293
I0
aI0
aI0
asI315
(lp294
I0
aI0
aI2
asI316
(lp295
I0
aI0
aI2
asI317
(lp296
I0
aI0
aI0
asI318
(lp297
I0
aI0
aI2
asI319
(lp298
I0
aI0
aI0
asI320
(lp299
I0
aI4
aI22
asI321
(lp300
I0
aI0
aI0
asI322
(lp301
I0
aI0
aI0
asI323
(lp302
I0
aI0
aI0
asI324
(lp303
I0
aI0
aI0
asI325
(lp304
I1
aI1
aI6
asI328
(lp305
I0
aI0
aI1
asI329
(lp306
I0
aI0
aI0
asI330
(lp307
I1
aI0
aI0
asI331
(lp308
I1
aI0
aI7
asI333
(lp309
I0
aI0
aI0
asI334
(lp310
I0
aI0
aI0
asI335
(lp311
I2
aI2
aI6
asI336
(lp312
I0
aI0
aI0
asI337
(lp313
I0
aI0
aI0
asI338
(lp314
I0
aI0
aI0
asI339
(lp315
I1
aI0
aI0
asI340
(lp316
I0
aI0
aI0
asI341
(lp317
I0
aI0
aI0
asI342
(lp318
I1
aI1
aI4
asI343
(lp319
I0
aI0
aI0
asI344
(lp320
I0
aI0
aI0
asI345
(lp321
I0
aI0
aI0
asI346
(lp322
I0
aI0
aI0
asI347
(lp323
I0
aI0
aI0
asI348
(lp324
I0
aI0
aI0
asI349
(lp325
I1
aI2
aI0
asI350
(lp326
I0
aI0
aI0
asI351
(lp327
I0
aI0
aI0
asI352
(lp328
I0
aI0
aI0
asI353
(lp329
I0
aI0
aI0
asI354
(lp330
I2
aI0
aI0
asI355
(lp331
I0
aI0
aI0
asI356
(lp332
I0
aI0
aI0
asI357
(lp333
I1
aI4
aI4
asI358
(lp334
I0
aI0
aI0
asI359
(lp335
I0
aI0
aI0
asI360
(lp336
I0
aI0
aI0
asI361
(lp337
I3
aI0
aI2
asI362
(lp338
I0
aI0
aI0
asI363
(lp339
I0
aI1
aI0
asI364
(lp340
I0
aI0
aI0
asI365
(lp341
I0
aI0
aI0
asI366
(lp342
I1
aI0
aI0
asI367
(lp343
I0
aI0
aI0
asI368
(lp344
I0
aI0
aI6
asI369
(lp345
I2
aI1
aI2
asI370
(lp346
I5
aI0
aI3
asI371
(lp347
I0
aI0
aI1
asI372
(lp348
I0
aI0
aI0
asI373
(lp349
I0
aI0
aI0
asI374
(lp350
I1
aI8
aI18
asI375
(lp351
I0
aI0
aI0
asI376
(lp352
I0
aI0
aI0
asI377
(lp353
I0
aI0
aI2
asI378
(lp354
I1
aI0
aI2
asI379
(lp355
I0
aI1
aI0
asI380
(lp356
I0
aI0
aI0
asI381
(lp357
I0
aI0
aI0
asI382
(lp358
I0
aI0
aI0
asI383
(lp359
I0
aI15
aI94
asI384
(lp360
I0
aI0
aI0
asI385
(lp361
I0
aI0
aI0
asI386
(lp362
I1
aI15
aI53
asI387
(lp363
I2
aI5
aI21
asI388
(lp364
I1
aI1
aI0
asI390
(lp365
I2
aI23
aI19
asI391
(lp366
I1
aI0
aI0
asI392
(lp367
I0
aI0
aI0
asI393
(lp368
I0
aI0
aI0
asI394
(lp369
I1
aI3
aI1
asI395
(lp370
I0
aI0
aI0
asI396
(lp371
I0
aI0
aI0
asI397
(lp372
I0
aI0
aI0
asI398
(lp373
I1
aI0
aI0
asI399
(lp374
I1
aI0
aI1
asI400
(lp375
I0
aI0
aI0
asI401
(lp376
I0
aI0
aI0
asI403
(lp377
I1
aI0
aI0
asI404
(lp378
I0
aI0
aI0
asI405
(lp379
I0
aI0
aI0
asI406
(lp380
I1
aI0
aI0
asI407
(lp381
I0
aI0
aI0
asI408
(lp382
I0
aI0
aI7
asI409
(lp383
I1
aI0
aI0
asI410
(lp384
I0
aI0
aI1
asI411
(lp385
I0
aI0
aI0
asI412
(lp386
I0
aI0
aI0
asI413
(lp387
I3
aI0
aI0
asI414
(lp388
I0
aI0
aI0
asI415
(lp389
I1
aI0
aI0
asI416
(lp390
I1
aI0
aI0
asI418
(lp391
I0
aI0
aI0
asI420
(lp392
I4
aI0
aI1
asI421
(lp393
I0
aI0
aI0
asI423
(lp394
I4
aI6
aI5
asI424
(lp395
I0
aI0
aI0
asI425
(lp396
I6
aI1
aI14
asI426
(lp397
I0
aI0
aI0
asI427
(lp398
I1
aI0
aI0
asI428
(lp399
I0
aI0
aI0
asI429
(lp400
I0
aI0
aI2
asI430
(lp401
I0
aI0
aI0
asI431
(lp402
I2
aI0
aI1
asI432
(lp403
I0
aI0
aI0
asI433
(lp404
I0
aI0
aI0
asI434
(lp405
I0
aI0
aI0
asI435
(lp406
I0
aI0
aI0
asI436
(lp407
I1
aI0
aI0
asI437
(lp408
I0
aI0
aI0
asI438
(lp409
I0
aI0
aI1
asI439
(lp410
I0
aI1
aI0
asI440
(lp411
I1
aI0
aI0
asI441
(lp412
I0
aI0
aI0
asI442
(lp413
I0
aI0
aI2
asI443
(lp414
I0
aI2
aI1
asI444
(lp415
I0
aI0
aI0
asI445
(lp416
I0
aI0
aI0
asI446
(lp417
I0
aI0
aI13
asI447
(lp418
I0
aI0
aI0
asI448
(lp419
I1
aI0
aI0
asI449
(lp420
I0
aI0
aI0
asI450
(lp421
I1
aI0
aI0
asI452
(lp422
I1
aI1
aI2
asI453
(lp423
I1
aI0
aI0
asI455
(lp424
I0
aI1
aI21
asI456
(lp425
I1
aI0
aI0
asI457
(lp426
I0
aI0
aI0
asI458
(lp427
I6
aI0
aI0
asI460
(lp428
I0
aI0
aI0
asI461
(lp429
I0
aI0
aI2
asI462
(lp430
I2
aI1
aI0
asI463
(lp431
I0
aI0
aI2
asI464
(lp432
I0
aI0
aI0
asI465
(lp433
I0
aI0
aI0
asI466
(lp434
I0
aI0
aI0
asI468
(lp435
I1
aI0
aI2
asI469
(lp436
I1
aI0
aI0
asI470
(lp437
I1
aI0
aI0
asI472
(lp438
I3
aI0
aI6
asI473
(lp439
I1
aI0
aI0
asI474
(lp440
I3
aI1
aI16
asI475
(lp441
I1
aI0
aI0
asI476
(lp442
I0
aI0
aI4
asI477
(lp443
I0
aI0
aI0
asI478
(lp444
I0
aI0
aI0
asI479
(lp445
I3
aI1
aI0
asI480
(lp446
I0
aI0
aI0
asI481
(lp447
I0
aI0
aI0
asI482
(lp448
I0
aI0
aI0
asI483
(lp449
I1
aI0
aI0
asI484
(lp450
I1
aI0
aI1
asI485
(lp451
I0
aI0
aI0
asI486
(lp452
I0
aI1
aI1
asI487
(lp453
I0
aI0
aI2
asI488
(lp454
I1
aI0
aI0
asI489
(lp455
I3
aI0
aI3
asI490
(lp456
I0
aI0
aI0
asI491
(lp457
I0
aI0
aI1
asI492
(lp458
I0
aI0
aI0
asI493
(lp459
I0
aI0
aI0
asI494
(lp460
I0
aI0
aI0
asI495
(lp461
I2
aI1
aI4
asI496
(lp462
I0
aI0
aI0
asI497
(lp463
I0
aI0
aI0
asI498
(lp464
I0
aI0
aI0
asI499
(lp465
I1
aI0
aI0
asI500
(lp466
I0
aI0
aI0
asI501
(lp467
I0
aI0
aI0
asI502
(lp468
I1
aI0
aI0
asI503
(lp469
I0
aI0
aI0
asI504
(lp470
I1
aI0
aI0
asI505
(lp471
I1
aI0
aI0
asI506
(lp472
I1
aI0
aI0
asI507
(lp473
I0
aI0
aI5
asI508
(lp474
I0
aI0
aI0
asI509
(lp475
I2
aI0
aI1
asI510
(lp476
I0
aI0
aI0
asI511
(lp477
I2
aI1
aI0
asI512
(lp478
I0
aI0
aI0
asI514
(lp479
I0
aI0
aI0
asI516
(lp480
I0
aI0
aI0
asI517
(lp481
I0
aI1
aI1
asI518
(lp482
I1
aI0
aI1
asI519
(lp483
I0
aI0
aI0
asI520
(lp484
I0
aI0
aI0
asI521
(lp485
I2
aI0
aI0
asI522
(lp486
I0
aI0
aI0
asI523
(lp487
I1
aI6
aI35
asI524
(lp488
I1
aI0
aI0
asI526
(lp489
I0
aI0
aI0
asI527
(lp490
I0
aI0
aI0
asI528
(lp491
I2
aI0
aI2
asI529
(lp492
I1
aI0
aI0
asI530
(lp493
I0
aI0
aI0
asI531
(lp494
I0
aI0
aI0
asI533
(lp495
I0
aI6
aI11
asI534
(lp496
I2
aI1
aI0
asI535
(lp497
I0
aI0
aI0
asI537
(lp498
I0
aI0
aI0
asI538
(lp499
I0
aI0
aI0
asI539
(lp500
I1
aI1
aI0
asI540
(lp501
I0
aI0
aI0
asI541
(lp502
I0
aI0
aI0
asI542
(lp503
I0
aI0
aI1
asI543
(lp504
I1
aI0
aI0
asI544
(lp505
I0
aI0
aI0
asI545
(lp506
I0
aI0
aI0
asI546
(lp507
I1
aI0
aI0
asI547
(lp508
I1
aI0
aI0
asI548
(lp509
I0
aI1
aI1
asI549
(lp510
I1
aI0
aI0
asI550
(lp511
I1
aI0
aI0
asI551
(lp512
I2
aI0
aI1
asI552
(lp513
I0
aI0
aI0
asI553
(lp514
I0
aI1
aI0
asI554
(lp515
I0
aI0
aI0
asI555
(lp516
I2
aI2
aI0
asI556
(lp517
I0
aI0
aI0
asI557
(lp518
I0
aI0
aI1
asI559
(lp519
I0
aI0
aI0
asI561
(lp520
I0
aI0
aI0
asI562
(lp521
I0
aI0
aI0
asI563
(lp522
I2
aI0
aI5
asI564
(lp523
I0
aI0
aI0
asI565
(lp524
I0
aI57
aI26
asI566
(lp525
I1
aI0
aI0
asI567
(lp526
I1
aI0
aI0
asI568
(lp527
I1
aI0
aI0
asI569
(lp528
I2
aI0
aI0
asI570
(lp529
I1
aI0
aI0
asI572
(lp530
I0
aI0
aI0
asI573
(lp531
I4
aI0
aI0
asI574
(lp532
I0
aI0
aI0
asI575
(lp533
I2
aI0
aI8
asI576
(lp534
I0
aI0
aI0
asI578
(lp535
I0
aI0
aI15
asI579
(lp536
I0
aI0
aI0
asI580
(lp537
I1
aI0
aI0
asI581
(lp538
I0
aI0
aI0
asI582
(lp539
I0
aI0
aI0
asI583
(lp540
I1
aI0
aI0
asI586
(lp541
I1
aI0
aI0
asI588
(lp542
I1
aI0
aI0
asI589
(lp543
I0
aI0
aI0
asI590
(lp544
I0
aI0
aI9
asI591
(lp545
I11
aI4
aI9
asI592
(lp546
I0
aI0
aI0
asI595
(lp547
I0
aI3
aI0
asI596
(lp548
I2
aI12
aI150
asI597
(lp549
I0
aI0
aI0
asI598
(lp550
I1
aI0
aI0
asI599
(lp551
I1
aI0
aI1
asI600
(lp552
I3
aI0
aI0
asI601
(lp553
I0
aI2
aI3
asI602
(lp554
I2
aI2
aI2
asI603
(lp555
I0
aI0
aI0
asI604
(lp556
I3
aI0
aI0
asI605
(lp557
I0
aI0
aI0
asI606
(lp558
I0
aI0
aI0
asI607
(lp559
I0
aI1
aI1
asI608
(lp560
I0
aI1
aI0
asI609
(lp561
I0
aI0
aI0
asI611
(lp562
I0
aI0
aI0
asI612
(lp563
I3
aI2
aI0
asI613
(lp564
I3
aI0
aI2
asI615
(lp565
I0
aI0
aI0
asI616
(lp566
I1
aI0
aI0
asI617
(lp567
I0
aI0
aI0
asI618
(lp568
I1
aI0
aI0
asI619
(lp569
I0
aI0
aI0
asI621
(lp570
I0
aI1
aI0
asI622
(lp571
I4
aI5
aI4
asI623
(lp572
I1
aI0
aI0
asI624
(lp573
I1
aI0
aI0
asI625
(lp574
I1
aI0
aI0
asI626
(lp575
I0
aI0
aI0
asI627
(lp576
I0
aI0
aI0
asI628
(lp577
I1
aI0
aI2
asI629
(lp578
I1
aI0
aI0
asI631
(lp579
I1
aI0
aI0
asI632
(lp580
I0
aI0
aI0
asI633
(lp581
I0
aI0
aI0
asI634
(lp582
I0
aI0
aI0
asI635
(lp583
I0
aI0
aI0
asI636
(lp584
I0
aI0
aI0
asI637
(lp585
I1
aI0
aI0
asI638
(lp586
I0
aI0
aI0
asI639
(lp587
I1
aI0
aI0
asI641
(lp588
I0
aI0
aI0
asI642
(lp589
I0
aI1
aI0
asI643
(lp590
I7
aI2
aI10
asI644
(lp591
I1
aI3
aI2
asI645
(lp592
I1
aI0
aI1
asI646
(lp593
I0
aI0
aI0
asI647
(lp594
I1
aI0
aI0
asI648
(lp595
I1
aI0
aI0
asI650
(lp596
I0
aI1
aI0
asI651
(lp597
I1
aI0
aI0
asI652
(lp598
I0
aI0
aI0
asI653
(lp599
I2
aI0
aI2
asI654
(lp600
I1
aI1
aI0
asI656
(lp601
I1
aI0
aI0
asI657
(lp602
I0
aI0
aI0
asI658
(lp603
I0
aI0
aI0
asI660
(lp604
I0
aI1
aI0
asI661
(lp605
I0
aI0
aI0
asI662
(lp606
I0
aI0
aI0
asI663
(lp607
I4
aI0
aI5
asI664
(lp608
I0
aI0
aI0
asI665
(lp609
I0
aI0
aI2
asI666
(lp610
I0
aI3
aI2
asI667
(lp611
I2
aI0
aI0
asI668
(lp612
I0
aI0
aI0
asI669
(lp613
I1
aI0
aI6
asI670
(lp614
I0
aI0
aI0
asI671
(lp615
I0
aI0
aI0
asI672
(lp616
I0
aI0
aI0
asI673
(lp617
I0
aI1
aI0
asI674
(lp618
I0
aI0
aI0
asI675
(lp619
I1
aI9
aI33
asI676
(lp620
I1
aI0
aI0
asI677
(lp621
I2
aI1
aI1
asI678
(lp622
I0
aI1
aI0
asI679
(lp623
I1
aI0
aI0
asI680
(lp624
I0
aI1
aI0
asI682
(lp625
I0
aI0
aI0
asI683
(lp626
I1
aI1
aI0
asI684
(lp627
I2
aI0
aI0
asI685
(lp628
I1
aI0
aI0
asI686
(lp629
I0
aI0
aI1
asI687
(lp630
I1
aI0
aI0
asI688
(lp631
I0
aI1
aI0
asI690
(lp632
I0
aI0
aI0
asI691
(lp633
I0
aI0
aI0
asI692
(lp634
I0
aI0
aI0
asI693
(lp635
I0
aI0
aI0
asI694
(lp636
I0
aI0
aI1
asI695
(lp637
I0
aI1
aI0
asI697
(lp638
I0
aI0
aI0
asI698
(lp639
I0
aI0
aI0
asI699
(lp640
I0
aI1
aI0
asI700
(lp641
I1
aI0
aI0
asI701
(lp642
I1
aI0
aI0
asI702
(lp643
I1
aI0
aI0
asI703
(lp644
I16
aI7
aI43
asI704
(lp645
I1
aI0
aI0
asI705
(lp646
I0
aI0
aI0
asI708
(lp647
I0
aI0
aI0
asI709
(lp648
I1
aI0
aI0
asI711
(lp649
I1
aI0
aI3
asI712
(lp650
I1
aI0
aI0
asI713
(lp651
I1
aI0
aI0
asI714
(lp652
I1
aI0
aI0
asI715
(lp653
I1
aI0
aI0
asI716
(lp654
I1
aI0
aI0
asI718
(lp655
I0
aI0
aI0
asI721
(lp656
I0
aI0
aI1
asI722
(lp657
I0
aI1
aI2
asI723
(lp658
I1
aI0
aI0
asI724
(lp659
I0
aI0
aI0
asI725
(lp660
I1
aI0
aI0
asI726
(lp661
I0
aI0
aI0
asI727
(lp662
I0
aI1
aI0
asI728
(lp663
I0
aI1
aI0
asI729
(lp664
I0
aI0
aI2
asI730
(lp665
I0
aI0
aI0
asI731
(lp666
I1
aI0
aI0
asI732
(lp667
I0
aI0
aI0
asI733
(lp668
I1
aI0
aI0
asI734
(lp669
I0
aI1
aI0
asI735
(lp670
I1
aI0
aI0
asI736
(lp671
I2
aI0
aI1
asI737
(lp672
I0
aI1
aI0
asI738
(lp673
I0
aI0
aI0
asI740
(lp674
I1
aI0
aI0
asI741
(lp675
I1
aI0
aI0
asI742
(lp676
I0
aI0
aI0
asI745
(lp677
I0
aI0
aI0
asI747
(lp678
I2
aI0
aI1
asI748
(lp679
I0
aI0
aI1
asI749
(lp680
I0
aI0
aI0
asI750
(lp681
I0
aI0
aI0
asI753
(lp682
I1
aI0
aI0
asI754
(lp683
I1
aI1
aI0
asI755
(lp684
I1
aI1
aI0
asI756
(lp685
I1
aI0
aI0
asI757
(lp686
I0
aI0
aI1
asI758
(lp687
I0
aI0
aI0
asI759
(lp688
I0
aI0
aI0
asI760
(lp689
I2
aI0
aI9
asI762
(lp690
I1
aI2
aI0
asI763
(lp691
I0
aI0
aI0
asI765
(lp692
I0
aI1
aI0
asI767
(lp693
I0
aI0
aI0
asI768
(lp694
I1
aI0
aI0
asI769
(lp695
I0
aI0
aI0
asI770
(lp696
I0
aI0
aI0
asI772
(lp697
I1
aI2
aI0
asI773
(lp698
I2
aI2
aI6
asI775
(lp699
I1
aI0
aI0
asI776
(lp700
I0
aI1
aI0
asI777
(lp701
I1
aI1
aI0
asI778
(lp702
I2
aI1
aI0
asI779
(lp703
I1
aI1
aI0
asI780
(lp704
I2
aI0
aI1
asI781
(lp705
I0
aI0
aI0
asI782
(lp706
I1
aI2
aI5
asI783
(lp707
I0
aI0
aI0
asI784
(lp708
I0
aI1
aI0
asI785
(lp709
I1
aI0
aI0
asI787
(lp710
I1
aI0
aI0
asI788
(lp711
I1
aI0
aI0
asI789
(lp712
I1
aI0
aI0
asI790
(lp713
I1
aI0
aI0
asI791
(lp714
I2
aI0
aI0
asI792
(lp715
I2
aI34
aI35
asI793
(lp716
I3
aI0
aI3
asI795
(lp717
I0
aI0
aI0
asI796
(lp718
I1
aI0
aI0
asI797
(lp719
I0
aI0
aI0
asI798
(lp720
I1
aI0
aI0
asI800
(lp721
I0
aI0
aI2
asI801
(lp722
I0
aI0
aI0
asI802
(lp723
I0
aI0
aI0
asI803
(lp724
I1
aI0
aI0
asI804
(lp725
I0
aI0
aI0
asI805
(lp726
I1
aI0
aI0
asI806
(lp727
I2
aI0
aI1
asI807
(lp728
I0
aI0
aI0
asI808
(lp729
I0
aI0
aI5
asI809
(lp730
I0
aI0
aI0
asI811
(lp731
I5
aI0
aI2
asI813
(lp732
I1
aI0
aI4
asI814
(lp733
I0
aI0
aI32
asI815
(lp734
I1
aI0
aI0
asI816
(lp735
I1
aI0
aI2
asI817
(lp736
I2
aI0
aI0
asI818
(lp737
I0
aI0
aI0
asI819
(lp738
I1
aI0
aI6
asI822
(lp739
I0
aI0
aI0
asI823
(lp740
I0
aI0
aI0
asI824
(lp741
I0
aI0
aI0
asI825
(lp742
I0
aI0
aI0
asI826
(lp743
I0
aI0
aI0
asI827
(lp744
I2
aI1
aI0
asI828
(lp745
I1
aI0
aI0
asI829
(lp746
I0
aI0
aI0
asI830
(lp747
I0
aI0
aI0
asI831
(lp748
I1
aI0
aI0
asI832
(lp749
I2
aI0
aI0
asI833
(lp750
I0
aI0
aI0
asI834
(lp751
I0
aI0
aI2
asI835
(lp752
I1
aI0
aI0
asI837
(lp753
I0
aI0
aI0
asI838
(lp754
I0
aI0
aI0
asI839
(lp755
I1
aI0
aI0
asI840
(lp756
I1
aI0
aI0
asI841
(lp757
I0
aI0
aI0
asI842
(lp758
I0
aI0
aI0
asI843
(lp759
I0
aI0
aI0
asI844
(lp760
I0
aI0
aI0
asI846
(lp761
I1
aI0
aI0
asI848
(lp762
I0
aI1
aI0
asI849
(lp763
I0
aI0
aI0
asI850
(lp764
I1
aI0
aI0
asI851
(lp765
I0
aI12
aI6
asI852
(lp766
I0
aI0
aI0
asI853
(lp767
I0
aI0
aI1
asI854
(lp768
I1
aI0
aI0
asI855
(lp769
I1
aI0
aI0
asI856
(lp770
I0
aI0
aI0
asI857
(lp771
I0
aI0
aI1
asI858
(lp772
I0
aI0
aI0
asI860
(lp773
I1
aI0
aI0
asI861
(lp774
I1
aI3
aI4
asI862
(lp775
I1
aI0
aI0
asI863
(lp776
I0
aI0
aI0
asI864
(lp777
I0
aI0
aI0
asI865
(lp778
I0
aI0
aI0
asI866
(lp779
I0
aI0
aI0
asI867
(lp780
I0
aI0
aI0
asI868
(lp781
I1
aI0
aI0
asI869
(lp782
I0
aI1
aI0
asI870
(lp783
I4
aI1
aI5
asI871
(lp784
I0
aI0
aI0
asI872
(lp785
I1
aI0
aI0
asI875
(lp786
I1
aI0
aI0
asI876
(lp787
I0
aI0
aI0
asI877
(lp788
I2
aI0
aI0
asI878
(lp789
I0
aI0
aI0
asI880
(lp790
I0
aI0
aI0
asI881
(lp791
I3
aI0
aI0
asI882
(lp792
I0
aI0
aI0
asI883
(lp793
I0
aI0
aI0
asI884
(lp794
I5
aI1
aI4
asI885
(lp795
I1
aI0
aI0
asI886
(lp796
I1
aI0
aI0
asI887
(lp797
I1
aI0
aI0
asI888
(lp798
I3
aI1
aI0
asI889
(lp799
I0
aI0
aI0
asI890
(lp800
I1
aI0
aI0
asI891
(lp801
I2
aI0
aI0
asI892
(lp802
I1
aI2
aI0
asI893
(lp803
I1
aI0
aI0
asI895
(lp804
I0
aI0
aI0
asI896
(lp805
I0
aI0
aI0
asI897
(lp806
I0
aI0
aI1
asI898
(lp807
I0
aI0
aI0
asI899
(lp808
I1
aI0
aI0
asI900
(lp809
I0
aI0
aI0
asI901
(lp810
I1
aI0
aI0
asI902
(lp811
I0
aI0
aI0
asI903
(lp812
I2
aI0
aI0
asI905
(lp813
I2
aI0
aI0
asI906
(lp814
I0
aI0
aI0
asI907
(lp815
I0
aI0
aI0
asI908
(lp816
I2
aI0
aI0
asI909
(lp817
I1
aI0
aI0
asI910
(lp818
I0
aI0
aI0
asI911
(lp819
I2
aI0
aI1
asI912
(lp820
I1
aI0
aI0
asI913
(lp821
I0
aI0
aI0
asI914
(lp822
I0
aI0
aI0
asI916
(lp823
I0
aI1
aI7
asI917
(lp824
I1
aI0
aI0
asI918
(lp825
I0
aI0
aI0
asI919
(lp826
I4
aI1
aI0
asI920
(lp827
I0
aI0
aI0
asI921
(lp828
I0
aI0
aI0
asI922
(lp829
I1
aI8
aI21
asI923
(lp830
I1
aI1
aI0
asI924
(lp831
I1
aI0
aI0
asI926
(lp832
I0
aI0
aI0
asI928
(lp833
I1
aI0
aI0
asI929
(lp834
I2
aI1
aI0
asI931
(lp835
I1
aI1
aI0
asI932
(lp836
I1
aI1
aI0
asI933
(lp837
I1
aI0
aI0
asI934
(lp838
I0
aI1
aI0
asI935
(lp839
I0
aI0
aI0
asI936
(lp840
I1
aI0
aI0
asI937
(lp841
I0
aI0
aI0
asI938
(lp842
I1
aI0
aI0
asI939
(lp843
I1
aI1
aI0
asI940
(lp844
I1
aI0
aI0
asI941
(lp845
I0
aI0
aI0
asI942
(lp846
I1
aI1
aI0
asI944
(lp847
I0
aI0
aI6
asI945
(lp848
I1
aI2
aI2
asI946
(lp849
I2
aI1
aI4
asI947
(lp850
I1
aI0
aI0
asI948
(lp851
I2
aI0
aI0
asI949
(lp852
I1
aI1
aI0
asI950
(lp853
I0
aI0
aI0
asI951
(lp854
I0
aI0
aI0
asI953
(lp855
I1
aI0
aI0
asI954
(lp856
I0
aI0
aI0
asI955
(lp857
I1
aI0
aI0
asI956
(lp858
I0
aI1
aI0
asI958
(lp859
I1
aI0
aI0
asI959
(lp860
I0
aI1
aI0
asI960
(lp861
I1
aI0
aI0
asI961
(lp862
I0
aI0
aI0
asI962
(lp863
I1
aI1
aI1
asI963
(lp864
I4
aI0
aI0
asI964
(lp865
I0
aI1
aI0
asI965
(lp866
I0
aI0
aI8
asI966
(lp867
I0
aI0
aI2
asI967
(lp868
I0
aI1
aI0
asI968
(lp869
I1
aI2
aI17
asI969
(lp870
I0
aI0
aI0
asI970
(lp871
I0
aI0
aI0
asI971
(lp872
I1
aI0
aI0
asI972
(lp873
I1
aI1
aI0
asI973
(lp874
I0
aI0
aI0
asI974
(lp875
I0
aI0
aI0
asI975
(lp876
I1
aI0
aI0
asI978
(lp877
I1
aI0
aI0
asI980
(lp878
I0
aI0
aI0
asI981
(lp879
I1
aI0
aI0
asI982
(lp880
I0
aI0
aI0
asI983
(lp881
I1
aI0
aI0
asI984
(lp882
I0
aI1
aI0
asI985
(lp883
I2
aI0
aI0
asI986
(lp884
I0
aI0
aI0
asI987
(lp885
I1
aI0
aI0
asI988
(lp886
I0
aI0
aI0
asI989
(lp887
I0
aI1
aI0
asI990
(lp888
I2
aI1
aI5
asI992
(lp889
I0
aI0
aI0
asI993
(lp890
I1
aI0
aI0
asI994
(lp891
I0
aI1
aI1
asI995
(lp892
I0
aI0
aI0
asI996
(lp893
I1
aI0
aI0
asI997
(lp894
I0
aI0
aI0
asI998
(lp895
I0
aI0
aI0
asI1000
(lp896
I1
aI0
aI0
asI1001
(lp897
I0
aI0
aI0
asI1002
(lp898
I3
aI0
aI0
asI1003
(lp899
I1
aI0
aI0
asI1004
(lp900
I0
aI0
aI0
asI1007
(lp901
I0
aI0
aI0
asI1008
(lp902
I0
aI0
aI0
asI1009
(lp903
I0
aI1
aI3
asI1010
(lp904
I0
aI1
aI0
asI1012
(lp905
I1
aI0
aI0
asI1013
(lp906
I0
aI0
aI0
asI1014
(lp907
I0
aI0
aI0
asI1016
(lp908
I0
aI0
aI0
asI1017
(lp909
I0
aI0
aI0
asI1018
(lp910
I1
aI0
aI0
asI1019
(lp911
I1
aI0
aI0
asI1022
(lp912
I1
aI0
aI0
asI1024
(lp913
I1
aI0
aI1
asI1025
(lp914
I1
aI1
aI0
asI1026
(lp915
I1
aI1
aI0
asI1028
(lp916
I0
aI1
aI0
asI1031
(lp917
I0
aI0
aI0
asI1032
(lp918
I0
aI0
aI0
asI1037
(lp919
I0
aI0
aI0
asI1038
(lp920
I0
aI0
aI1
asI1039
(lp921
I0
aI0
aI0
asI1048
(lp922
I0
aI0
aI0
asI1054
(lp923
I0
aI0
aI0
asI1058
(lp924
I0
aI0
aI0
asI1067
(lp925
I0
aI0
aI0
asI1079
(lp926
I0
aI0
aI0
asI1080
(lp927
I0
aI0
aI0
asI1082
(lp928
I0
aI0
aI0
asI1084
(lp929
I0
aI0
aI0
asI1089
(lp930
I0
aI0
aI0
asI1090
(lp931
I0
aI1
aI0
asI1092
(lp932
I0
aI0
aI0
asI1093
(lp933
I0
aI0
aI0
asI1094
(lp934
I0
aI0
aI0
asI1095
(lp935
I0
aI0
aI0
asI1097
(lp936
I0
aI1
aI0
asI1100
(lp937
I0
aI0
aI0
asI1105
(lp938
I0
aI0
aI0
asI1108
(lp939
I0
aI0
aI0
asI1110
(lp940
I2
aI0
aI1
asI1112
(lp941
I1
aI0
aI0
asI1113
(lp942
I0
aI0
aI0
asI1115
(lp943
I2
aI1
aI1
asI1120
(lp944
I1
aI1
aI0
asI1121
(lp945
I1
aI0
aI0
asI1123
(lp946
I0
aI0
aI0
asI1124
(lp947
I2
aI0
aI0
asI1125
(lp948
I0
aI1
aI0
asI1126
(lp949
I0
aI0
aI0
asI1127
(lp950
I3
aI0
aI0
asI1128
(lp951
I3
aI0
aI1
asI1129
(lp952
I1
aI0
aI0
asI1132
(lp953
I0
aI0
aI0
asI1133
(lp954
I0
aI0
aI0
asI1135
(lp955
I1
aI0
aI0
asI1136
(lp956
I0
aI0
aI0
asI1138
(lp957
I0
aI0
aI0
asI1139
(lp958
I5
aI9
aI84
asI1141
(lp959
I0
aI0
aI0
asI1145
(lp960
I0
aI0
aI0
asI1146
(lp961
I1
aI0
aI0
asI1147
(lp962
I1
aI0
aI0
asI1149
(lp963
I0
aI0
aI0
asI1150
(lp964
I1
aI0
aI0
asI1151
(lp965
I0
aI0
aI0
asI1152
(lp966
I0
aI0
aI0
asI1153
(lp967
I5
aI0
aI1
asI1154
(lp968
I1
aI0
aI0
asI1155
(lp969
I0
aI0
aI0
asI1156
(lp970
I1
aI1
aI1
asI1159
(lp971
I1
aI0
aI0
asI1162
(lp972
I1
aI0
aI0
asI1163
(lp973
I0
aI1
aI0
asI1164
(lp974
I0
aI1
aI3
asI1165
(lp975
I0
aI0
aI0
asI1166
(lp976
I0
aI0
aI0
asI1168
(lp977
I0
aI0
aI0
asI1170
(lp978
I3
aI0
aI4
asI1171
(lp979
I1
aI0
aI0
asI1172
(lp980
I0
aI0
aI0
asI1173
(lp981
I1
aI0
aI1
asI1175
(lp982
I1
aI0
aI0
asI1176
(lp983
I1
aI0
aI0
asI1177
(lp984
I0
aI0
aI3
asI1178
(lp985
I0
aI0
aI0
asI1179
(lp986
I0
aI0
aI0
asI1180
(lp987
I1
aI5
aI0
asI1181
(lp988
I2
aI1
aI6
asI1182
(lp989
I3
aI2
aI0
asI1183
(lp990
I0
aI0
aI0
asI1184
(lp991
I1
aI0
aI0
asI1185
(lp992
I0
aI2
aI2
asI1186
(lp993
I4
aI2
aI1
asI1187
(lp994
I0
aI0
aI0
asI1189
(lp995
I1
aI0
aI0
asI1190
(lp996
I0
aI0
aI0
asI1191
(lp997
I1
aI0
aI0
asI1192
(lp998
I3
aI0
aI1
asI1193
(lp999
I4
aI3
aI10
asI1194
(lp1000
I0
aI0
aI0
asI1195
(lp1001
I0
aI0
aI0
asI1197
(lp1002
I0
aI0
aI0
asI1198
(lp1003
I0
aI0
aI0
asI1199
(lp1004
I1
aI0
aI0
asI1201
(lp1005
I0
aI0
aI0
asI1203
(lp1006
I1
aI0
aI0
asI1204
(lp1007
I0
aI0
aI0
asI1205
(lp1008
I2
aI0
aI0
asI1207
(lp1009
I0
aI0
aI0
asI1208
(lp1010
I0
aI0
aI0
asI1209
(lp1011
I0
aI0
aI0
asI1210
(lp1012
I1
aI0
aI0
asI1212
(lp1013
I1
aI0
aI0
asI1213
(lp1014
I1
aI0
aI0
asI1214
(lp1015
I0
aI0
aI0
asI1216
(lp1016
I1
aI1
aI0
asI1217
(lp1017
I1
aI1
aI0
asI1218
(lp1018
I0
aI0
aI0
asI1219
(lp1019
I0
aI0
aI0
asI1220
(lp1020
I0
aI0
aI0
asI1221
(lp1021
I1
aI0
aI0
asI1222
(lp1022
I1
aI0
aI0
asI1224
(lp1023
I2
aI0
aI1
asI1227
(lp1024
I0
aI0
aI0
asI1228
(lp1025
I2
aI0
aI0
asI1229
(lp1026
I1
aI0
aI0
asI1230
(lp1027
I1
aI0
aI0
asI1231
(lp1028
I2
aI0
aI0
asI1232
(lp1029
I0
aI0
aI0
asI1233
(lp1030
I1
aI0
aI0
asI1234
(lp1031
I0
aI0
aI0
asI1235
(lp1032
I1
aI0
aI0
asI1236
(lp1033
I2
aI1
aI0
asI1237
(lp1034
I0
aI0
aI0
asI1238
(lp1035
I0
aI0
aI0
asI1239
(lp1036
I0
aI13
aI139
asI1241
(lp1037
I0
aI0
aI0
asI1242
(lp1038
I2
aI0
aI1
asI1243
(lp1039
I0
aI0
aI0
asI1245
(lp1040
I1
aI0
aI0
asI1246
(lp1041
I0
aI0
aI4
asI1247
(lp1042
I0
aI1
aI0
asI1248
(lp1043
I0
aI0
aI0
asI1249
(lp1044
I1
aI0
aI0
asI1250
(lp1045
I1
aI0
aI0
asI1252
(lp1046
I1
aI0
aI0
asI1253
(lp1047
I0
aI0
aI1
asI1254
(lp1048
I0
aI0
aI0
asI1255
(lp1049
I2
aI1
aI0
asI1256
(lp1050
I0
aI0
aI2
asI1259
(lp1051
I0
aI0
aI0
asI1261
(lp1052
I0
aI0
aI0
asI2261
(lp1053
I0
aI0
aI0
asI2262
(lp1054
I0
aI0
aI0
asI2264
(lp1055
I0
aI0
aI0
asI2266
(lp1056
I0
aI0
aI0
asI2267
(lp1057
I0
aI0
aI0
asI2268
(lp1058
I1
aI0
aI0
asI2269
(lp1059
I0
aI0
aI0
asI2270
(lp1060
I0
aI0
aI0
asI2271
(lp1061
I0
aI0
aI0
asI2272
(lp1062
I0
aI0
aI0
asI2273
(lp1063
I0
aI0
aI0
asI2274
(lp1064
I0
aI0
aI0
asI2275
(lp1065
I1
aI1
aI0
asI2276
(lp1066
I0
aI0
aI0
asI2277
(lp1067
I3
aI1
aI0
asI2279
(lp1068
I2
aI0
aI0
asI2280
(lp1069
I0
aI1
aI0
asI2281
(lp1070
I1
aI0
aI0
asI2282
(lp1071
I1
aI0
aI0
asI2283
(lp1072
I1
aI0
aI0
asI2285
(lp1073
I1
aI0
aI0
asI2286
(lp1074
I0
aI0
aI0
asI2287
(lp1075
I1
aI0
aI0
asI2288
(lp1076
I1
aI1
aI4
asI2289
(lp1077
I1
aI0
aI0
asI2290
(lp1078
I1
aI0
aI0
asI2293
(lp1079
I0
aI0
aI0
asI2294
(lp1080
I1
aI0
aI0
asI2295
(lp1081
I1
aI0
aI0
asI2296
(lp1082
I0
aI0
aI1
asI2297
(lp1083
I0
aI0
aI0
asI2298
(lp1084
I0
aI0
aI0
asI2299
(lp1085
I1
aI0
aI0
asI2300
(lp1086
I0
aI0
aI0
asI2302
(lp1087
I0
aI0
aI0
asI2303
(lp1088
I0
aI0
aI0
asI2304
(lp1089
I1
aI0
aI0
asI2306
(lp1090
I1
aI0
aI0
asI2307
(lp1091
I1
aI0
aI0
asI2308
(lp1092
I0
aI1
aI4
asI2309
(lp1093
I1
aI0
aI0
asI2310
(lp1094
I1
aI0
aI0
asI2312
(lp1095
I2
aI0
aI0
asI2313
(lp1096
I1
aI0
aI0
asI2314
(lp1097
I1
aI0
aI0
asI2315
(lp1098
I3
aI0
aI0
asI2316
(lp1099
I2
aI0
aI0
asI2318
(lp1100
I0
aI0
aI0
asI2319
(lp1101
I1
aI0
aI0
asI2320
(lp1102
I0
aI0
aI0
asI2321
(lp1103
I0
aI0
aI0
asI2322
(lp1104
I0
aI0
aI0
asI2323
(lp1105
I0
aI1
aI0
asI2324
(lp1106
I1
aI0
aI0
asI2325
(lp1107
I1
aI0
aI0
asI2326
(lp1108
I0
aI0
aI0
asI2328
(lp1109
I0
aI0
aI2
asI2329
(lp1110
I4
aI0
aI0
asI2330
(lp1111
I0
aI0
aI0
asI2331
(lp1112
I1
aI0
aI0
asI2332
(lp1113
I1
aI0
aI0
asI2333
(lp1114
I0
aI0
aI0
asI2334
(lp1115
I0
aI0
aI0
asI2336
(lp1116
I3
aI0
aI0
asI2339
(lp1117
I1
aI0
aI0
asI2341
(lp1118
I1
aI1
aI2
asI2342
(lp1119
I0
aI0
aI0
asI2343
(lp1120
I1
aI0
aI0
asI2344
(lp1121
I0
aI0
aI0
asI2345
(lp1122
I0
aI0
aI0
asI2347
(lp1123
I1
aI0
aI0
asI2349
(lp1124
I0
aI0
aI0
asI2350
(lp1125
I0
aI0
aI0
asI2351
(lp1126
I1
aI0
aI1
asI2352
(lp1127
I1
aI0
aI0
asI2354
(lp1128
I0
aI0
aI0
asI2355
(lp1129
I1
aI0
aI0
asI2356
(lp1130
I4
aI1
aI1
asI2357
(lp1131
I1
aI0
aI0
asI2358
(lp1132
I0
aI0
aI0
asI2359
(lp1133
I0
aI0
aI0
asI2360
(lp1134
I1
aI0
aI0
asI2361
(lp1135
I0
aI6
aI1
asI2362
(lp1136
I0
aI0
aI0
asI2363
(lp1137
I0
aI0
aI0
asI2364
(lp1138
I0
aI0
aI0
asI2365
(lp1139
I0
aI0
aI0
asI2366
(lp1140
I1
aI0
aI0
asI2367
(lp1141
I0
aI0
aI0
asI2368
(lp1142
I1
aI0
aI0
asI2369
(lp1143
I1
aI0
aI0
asI2370
(lp1144
I1
aI0
aI0
asI2372
(lp1145
I1
aI0
aI0
asI2373
(lp1146
I2
aI1
aI3
asI2374
(lp1147
I1
aI0
aI0
asI2375
(lp1148
I0
aI0
aI0
asI2377
(lp1149
I1
aI1
aI0
asI2378
(lp1150
I0
aI0
aI0
asI2379
(lp1151
I1
aI1
aI0
asI2380
(lp1152
I0
aI0
aI0
asI2381
(lp1153
I0
aI0
aI0
asI2382
(lp1154
I5
aI7
aI10
asI2384
(lp1155
I1
aI0
aI0
asI2387
(lp1156
I0
aI1
aI0
asI2389
(lp1157
I0
aI0
aI0
asI2390
(lp1158
I1
aI0
aI0
asI2391
(lp1159
I1
aI0
aI0
asI2392
(lp1160
I1
aI1
aI0
asI2393
(lp1161
I0
aI0
aI0
asI2394
(lp1162
I1
aI0
aI0
asI2395
(lp1163
I1
aI0
aI0
asI2396
(lp1164
I0
aI0
aI0
asI2399
(lp1165
I0
aI0
aI0
asI2400
(lp1166
I1
aI0
aI0
asI2401
(lp1167
I0
aI1
aI0
asI2402
(lp1168
I3
aI0
aI0
asI2404
(lp1169
I1
aI0
aI0
asI2405
(lp1170
I0
aI1
aI0
asI2406
(lp1171
I0
aI1
aI0
asI2407
(lp1172
I0
aI0
aI0
asI2408
(lp1173
I0
aI0
aI2
asI2409
(lp1174
I2
aI1
aI0
asI2410
(lp1175
I1
aI0
aI0
asI2411
(lp1176
I0
aI0
aI1
asI2412
(lp1177
I1
aI0
aI0
asI2413
(lp1178
I0
aI0
aI0
asI2414
(lp1179
I1
aI0
aI0
asI2415
(lp1180
I0
aI0
aI0
asI2416
(lp1181
I0
aI5
aI0
asI2417
(lp1182
I0
aI2
aI1
asI2419
(lp1183
I0
aI1
aI0
asI2421
(lp1184
I0
aI1
aI0
asI2422
(lp1185
I0
aI1
aI0
asI2423
(lp1186
I1
aI0
aI0
asI2424
(lp1187
I4
aI0
aI4
asI2426
(lp1188
I3
aI0
aI0
asI2427
(lp1189
I1
aI3
aI5
asI2428
(lp1190
I1
aI0
aI0
asI2430
(lp1191
I0
aI0
aI0
asI2431
(lp1192
I1
aI0
aI0
asI2432
(lp1193
I1
aI0
aI0
asI2434
(lp1194
I0
aI0
aI0
asI2435
(lp1195
I1
aI1
aI0
asI2436
(lp1196
I1
aI0
aI0
asI2437
(lp1197
I0
aI0
aI0
asI2438
(lp1198
I0
aI0
aI0
asI2439
(lp1199
I1
aI0
aI0
asI2440
(lp1200
I0
aI1
aI0
asI2441
(lp1201
I0
aI0
aI0
asI2442
(lp1202
I1
aI0
aI0
asI2443
(lp1203
I0
aI0
aI0
asI2444
(lp1204
I5
aI5
aI7
asI2445
(lp1205
I1
aI0
aI0
asI2446
(lp1206
I1
aI0
aI0
asI2447
(lp1207
I0
aI0
aI0
asI2449
(lp1208
I1
aI0
aI0
asI2451
(lp1209
I0
aI0
aI0
asI2452
(lp1210
I0
aI0
aI0
asI2453
(lp1211
I0
aI0
aI0
asI2454
(lp1212
I2
aI2
aI4
asI2455
(lp1213
I0
aI0
aI0
asI2456
(lp1214
I1
aI0
aI0
asI2458
(lp1215
I0
aI0
aI0
asI2460
(lp1216
I3
aI6
aI24
asI2461
(lp1217
I0
aI23
aI67
asI2462
(lp1218
I2
aI0
aI0
asI2463
(lp1219
I0
aI1
aI0
asI2464
(lp1220
I0
aI1
aI0
asI2466
(lp1221
I0
aI0
aI0
asI2467
(lp1222
I1
aI0
aI1
asI2468
(lp1223
I1
aI0
aI0
asI2469
(lp1224
I1
aI0
aI0
asI2471
(lp1225
I0
aI0
aI0
asI2472
(lp1226
I0
aI1
aI0
asI2473
(lp1227
I0
aI0
aI0
asI2474
(lp1228
I0
aI0
aI0
asI2475
(lp1229
I1
aI0
aI0
asI2477
(lp1230
I1
aI0
aI0
asI2478
(lp1231
I0
aI1
aI0
asI2479
(lp1232
I0
aI0
aI0
asI2480
(lp1233
I1
aI0
aI0
asI2482
(lp1234
I0
aI0
aI0
asI2483
(lp1235
I1
aI0
aI0
asI2484
(lp1236
I1
aI0
aI0
asI2485
(lp1237
I4
aI5
aI9
asI2486
(lp1238
I0
aI0
aI0
asI2487
(lp1239
I1
aI0
aI0
asI2488
(lp1240
I0
aI0
aI0
asI2489
(lp1241
I0
aI0
aI0
asI2490
(lp1242
I0
aI0
aI0
asI2491
(lp1243
I2
aI1
aI0
asI2492
(lp1244
I0
aI1
aI0
asI2493
(lp1245
I0
aI0
aI0
asI2494
(lp1246
I0
aI0
aI0
asI2495
(lp1247
I1
aI0
aI0
asI2496
(lp1248
I0
aI0
aI0
asI2497
(lp1249
I1
aI0
aI0
asI2498
(lp1250
I0
aI0
aI0
asI2499
(lp1251
I1
aI0
aI0
asI2500
(lp1252
I1
aI2
aI1
asI2502
(lp1253
I0
aI0
aI0
asI2503
(lp1254
I3
aI0
aI0
asI2504
(lp1255
I1
aI0
aI0
asI2505
(lp1256
I1
aI0
aI0
asI2506
(lp1257
I0
aI0
aI4
asI2507
(lp1258
I2
aI1
aI0
asI2508
(lp1259
I1
aI0
aI0
asI2509
(lp1260
I0
aI0
aI1
asI2510
(lp1261
I0
aI0
aI0
asI2511
(lp1262
I0
aI0
aI0
asI2512
(lp1263
I1
aI1
aI2
asI2513
(lp1264
I2
aI0
aI0
asI2515
(lp1265
I0
aI0
aI0
asI2516
(lp1266
I1
aI0
aI1
asI2517
(lp1267
I0
aI0
aI0
asI2518
(lp1268
I1
aI0
aI0
asI2519
(lp1269
I0
aI1
aI0
asI2520
(lp1270
I1
aI0
aI0
asI2521
(lp1271
I0
aI0
aI0
asI2522
(lp1272
I0
aI1
aI0
asI2524
(lp1273
I2
aI2
aI3
asI2525
(lp1274
I1
aI0
aI0
asI2526
(lp1275
I0
aI0
aI0
asI2527
(lp1276
I1
aI0
aI0
asI2528
(lp1277
I1
aI0
aI0
asI2530
(lp1278
I0
aI0
aI0
asI2531
(lp1279
I1
aI0
aI0
asI2532
(lp1280
I0
aI0
aI2
asI2533
(lp1281
I0
aI0
aI0
asI2535
(lp1282
I1
aI0
aI0
asI2536
(lp1283
I0
aI0
aI0
asI2539
(lp1284
I0
aI1
aI0
asI2541
(lp1285
I0
aI0
aI0
asI2543
(lp1286
I0
aI0
aI0
asI2544
(lp1287
I0
aI0
aI0
asI2545
(lp1288
I1
aI0
aI0
asI2546
(lp1289
I1
aI0
aI0
asI2547
(lp1290
I1
aI0
aI0
asI2548
(lp1291
I0
aI0
aI0
asI2549
(lp1292
I0
aI0
aI0
asI2550
(lp1293
I1
aI0
aI0
asI2551
(lp1294
I1
aI0
aI0
asI2552
(lp1295
I1
aI4
aI7
asI2553
(lp1296
I1
aI0
aI0
asI2554
(lp1297
I4
aI3
aI0
asI2555
(lp1298
I0
aI0
aI0
asI2556
(lp1299
I2
aI5
aI0
asI2557
(lp1300
I0
aI0
aI0
asI2558
(lp1301
I1
aI0
aI0
asI2559
(lp1302
I1
aI0
aI0
asI2560
(lp1303
I0
aI0
aI0
asI2561
(lp1304
I1
aI5
aI6
asI2562
(lp1305
I0
aI0
aI0
asI2563
(lp1306
I1
aI0
aI0
asI2564
(lp1307
I0
aI0
aI0
asI2565
(lp1308
I1
aI0
aI0
asI2566
(lp1309
I0
aI1
aI0
asI2567
(lp1310
I5
aI1
aI7
asI2568
(lp1311
I0
aI0
aI0
asI2570
(lp1312
I2
aI0
aI0
asI2571
(lp1313
I0
aI0
aI2
asI2572
(lp1314
I0
aI1
aI0
asI2573
(lp1315
I1
aI2
aI0
asI2574
(lp1316
I0
aI0
aI0
asI2576
(lp1317
I0
aI0
aI0
asI2578
(lp1318
I2
aI8
aI5
asI2579
(lp1319
I0
aI0
aI0
asI2580
(lp1320
I0
aI0
aI0
asI2582
(lp1321
I3
aI0
aI0
asI2583
(lp1322
I0
aI0
aI0
asI2584
(lp1323
I1
aI0
aI0
asI2585
(lp1324
I0
aI0
aI0
asI2586
(lp1325
I1
aI0
aI0
asI2587
(lp1326
I7
aI9
aI4
asI2588
(lp1327
I0
aI0
aI0
asI2589
(lp1328
I1
aI0
aI0
asI2590
(lp1329
I1
aI0
aI0
asI2592
(lp1330
I1
aI1
aI0
asI2593
(lp1331
I0
aI0
aI0
asI2594
(lp1332
I0
aI0
aI1
asI2596
(lp1333
I1
aI0
aI0
asI2597
(lp1334
I0
aI0
aI0
asI2598
(lp1335
I1
aI0
aI0
asI2600
(lp1336
I0
aI0
aI0
asI2602
(lp1337
I0
aI0
aI0
asI2603
(lp1338
I1
aI2
aI1
asI2604
(lp1339
I2
aI1
aI0
asI2605
(lp1340
I0
aI0
aI0
asI2606
(lp1341
I1
aI0
aI0
asI2607
(lp1342
I0
aI0
aI0
asI2608
(lp1343
I0
aI0
aI0
asI2610
(lp1344
I0
aI0
aI0
asI2611
(lp1345
I1
aI0
aI0
asI2612
(lp1346
I1
aI1
aI0
asI2613
(lp1347
I1
aI0
aI0
asI2614
(lp1348
I1
aI0
aI0
asI2615
(lp1349
I0
aI0
aI0
asI2616
(lp1350
I0
aI0
aI0
asI2617
(lp1351
I0
aI0
aI0
asI2619
(lp1352
I1
aI0
aI0
asI2620
(lp1353
I0
aI0
aI0
asI2621
(lp1354
I5
aI3
aI0
asI2622
(lp1355
I1
aI0
aI0
asI2625
(lp1356
I2
aI1
aI0
asI2626
(lp1357
I1
aI1
aI0
asI2627
(lp1358
I0
aI0
aI0
asI2628
(lp1359
I1
aI0
aI0
asI2629
(lp1360
I0
aI33
aI19
asI2630
(lp1361
I0
aI0
aI2
asI2631
(lp1362
I0
aI0
aI0
asI2632
(lp1363
I0
aI0
aI0
asI2633
(lp1364
I0
aI5
aI1
asI2634
(lp1365
I1
aI0
aI0
asI2635
(lp1366
I0
aI0
aI0
asI2636
(lp1367
I1
aI0
aI0
asI2637
(lp1368
I1
aI0
aI0
asI2638
(lp1369
I0
aI1
aI0
asI2639
(lp1370
I1
aI0
aI0
asI2640
(lp1371
I1
aI1
aI0
asI2641
(lp1372
I0
aI0
aI0
asI2642
(lp1373
I0
aI0
aI0
asI2643
(lp1374
I2
aI0
aI0
asI2644
(lp1375
I1
aI0
aI0
asI2645
(lp1376
I0
aI0
aI0
asI2646
(lp1377
I0
aI0
aI0
asI2647
(lp1378
I0
aI0
aI0
asI2648
(lp1379
I2
aI0
aI0
asI2650
(lp1380
I0
aI0
aI0
asI2651
(lp1381
I1
aI0
aI0
asI2652
(lp1382
I0
aI0
aI0
asI2653
(lp1383
I1
aI0
aI0
asI2654
(lp1384
I2
aI4
aI3
asI2655
(lp1385
I0
aI0
aI0
asI2657
(lp1386
I1
aI0
aI0
asI2658
(lp1387
I0
aI0
aI0
asI2659
(lp1388
I1
aI0
aI0
asI2660
(lp1389
I2
aI4
aI0
asI2661
(lp1390
I0
aI0
aI0
asI2662
(lp1391
I2
aI0
aI0
asI2663
(lp1392
I0
aI0
aI0
asI2664
(lp1393
I1
aI0
aI0
asI2665
(lp1394
I1
aI0
aI0
asI2666
(lp1395
I0
aI0
aI0
asI2667
(lp1396
I2
aI0
aI0
asI2668
(lp1397
I1
aI0
aI0
asI2670
(lp1398
I1
aI0
aI2
asI2671
(lp1399
I1
aI1
aI0
asI2672
(lp1400
I1
aI0
aI0
asI2673
(lp1401
I0
aI0
aI0
asI2674
(lp1402
I2
aI0
aI1
asI2675
(lp1403
I0
aI0
aI0
asI2677
(lp1404
I0
aI0
aI0
asI2678
(lp1405
I1
aI0
aI0
asI2681
(lp1406
I0
aI3
aI0
asI2682
(lp1407
I0
aI0
aI0
asI2683
(lp1408
I1
aI0
aI1
asI2684
(lp1409
I3
aI1
aI1
asI2685
(lp1410
I0
aI0
aI0
asI2687
(lp1411
I1
aI0
aI0
asI2688
(lp1412
I0
aI0
aI0
asI2689
(lp1413
I0
aI0
aI0
asI2691
(lp1414
I0
aI0
aI0
asI2692
(lp1415
I0
aI0
aI0
asI2693
(lp1416
I1
aI0
aI0
asI2694
(lp1417
I0
aI0
aI0
asI2695
(lp1418
I1
aI0
aI0
asI2697
(lp1419
I1
aI0
aI0
asI2698
(lp1420
I0
aI0
aI0
asI2700
(lp1421
I0
aI0
aI0
asI2701
(lp1422
I0
aI0
aI0
asI2702
(lp1423
I1
aI0
aI0
asI2703
(lp1424
I0
aI0
aI0
asI2704
(lp1425
I0
aI1
aI0
asI2705
(lp1426
I1
aI0
aI1
asI2706
(lp1427
I1
aI0
aI0
asI2707
(lp1428
I0
aI0
aI0
asI2708
(lp1429
I62
aI175
aI770
asI2709
(lp1430
I1
aI0
aI0
asI2710
(lp1431
I2
aI0
aI0
asI2711
(lp1432
I1
aI0
aI0
asI2712
(lp1433
I0
aI0
aI0
asI2713
(lp1434
I0
aI0
aI0
asI2714
(lp1435
I1
aI0
aI0
asI2715
(lp1436
I0
aI0
aI0
asI2716
(lp1437
I0
aI0
aI0
asI2720
(lp1438
I0
aI0
aI0
asI2721
(lp1439
I1
aI0
aI0
asI2722
(lp1440
I1
aI2
aI0
asI2724
(lp1441
I0
aI0
aI0
asI2725
(lp1442
I1
aI0
aI0
asI2726
(lp1443
I0
aI0
aI0
asI2727
(lp1444
I0
aI0
aI0
asI2729
(lp1445
I1
aI0
aI0
asI2730
(lp1446
I0
aI0
aI2
asI2731
(lp1447
I1
aI2
aI0
asI2732
(lp1448
I1
aI0
aI0
asI2733
(lp1449
I1
aI0
aI0
asI2734
(lp1450
I1
aI0
aI5
asI2735
(lp1451
I0
aI1
aI0
asI2736
(lp1452
I0
aI0
aI0
asI2737
(lp1453
I1
aI0
aI0
asI2738
(lp1454
I0
aI0
aI0
asI2739
(lp1455
I0
aI0
aI4
asI2740
(lp1456
I0
aI0
aI0
asI2741
(lp1457
I0
aI0
aI0
asI2742
(lp1458
I1
aI0
aI0
asI2743
(lp1459
I1
aI1
aI0
asI2744
(lp1460
I0
aI0
aI0
asI2745
(lp1461
I0
aI0
aI0
asI2746
(lp1462
I0
aI0
aI0
asI2747
(lp1463
I1
aI0
aI0
asI2749
(lp1464
I0
aI1
aI0
asI2751
(lp1465
I1
aI0
aI0
asI2752
(lp1466
I0
aI0
aI2
asI2753
(lp1467
I0
aI0
aI0
asI2754
(lp1468
I1
aI0
aI0
asI2755
(lp1469
I1
aI0
aI0
asI2757
(lp1470
I0
aI0
aI0
asI2758
(lp1471
I2
aI0
aI4
asI2759
(lp1472
I0
aI0
aI0
asI2760
(lp1473
I0
aI0
aI0
asI2761
(lp1474
I1
aI0
aI0
asI2763
(lp1475
I1
aI0
aI0
asI2764
(lp1476
I0
aI0
aI0
asI2765
(lp1477
I1
aI0
aI0
asI2766
(lp1478
I0
aI0
aI1
asI2767
(lp1479
I4
aI5
aI3
asI2770
(lp1480
I5
aI0
aI0
asI2771
(lp1481
I0
aI0
aI0
asI2772
(lp1482
I1
aI0
aI1
asI2773
(lp1483
I1
aI0
aI0
asI2774
(lp1484
I0
aI0
aI0
asI2775
(lp1485
I0
aI0
aI0
asI2776
(lp1486
I2
aI0
aI0
asI2777
(lp1487
I0
aI0
aI0
asI2778
(lp1488
I1
aI0
aI2
asI2779
(lp1489
I1
aI0
aI1
asI2780
(lp1490
I0
aI1
aI0
asI2781
(lp1491
I0
aI0
aI0
asI2783
(lp1492
I1
aI0
aI0
asI2784
(lp1493
I1
aI0
aI0
asI2785
(lp1494
I1
aI0
aI0
asI2786
(lp1495
I0
aI2
aI1
asI2787
(lp1496
I1
aI0
aI0
asI2790
(lp1497
I1
aI0
aI0
asI2791
(lp1498
I0
aI0
aI0
asI2792
(lp1499
I0
aI0
aI0
asI2793
(lp1500
I0
aI0
aI0
asI2795
(lp1501
I0
aI0
aI0
asI2796
(lp1502
I0
aI1
aI0
asI2797
(lp1503
I1
aI0
aI0
asI2798
(lp1504
I1
aI0
aI0
asI2799
(lp1505
I1
aI1
aI0
asI2800
(lp1506
I0
aI0
aI0
asI2801
(lp1507
I1
aI0
aI0
asI2802
(lp1508
I0
aI0
aI0
asI2803
(lp1509
I0
aI1
aI0
asI2805
(lp1510
I0
aI0
aI0
asI2807
(lp1511
I0
aI0
aI0
asI2808
(lp1512
I0
aI0
aI0
asI2812
(lp1513
I1
aI0
aI0
asI2813
(lp1514
I1
aI0
aI0
asI2814
(lp1515
I0
aI0
aI0
asI2815
(lp1516
I1
aI0
aI1
asI2816
(lp1517
I1
aI0
aI0
asI2817
(lp1518
I1
aI0
aI2
asI2818
(lp1519
I1
aI0
aI0
asI2819
(lp1520
I1
aI0
aI0
asI2820
(lp1521
I0
aI0
aI0
asI2822
(lp1522
I0
aI0
aI0
asI2823
(lp1523
I0
aI0
aI0
asI2824
(lp1524
I0
aI2
aI4
asI2825
(lp1525
I1
aI0
aI0
asI2826
(lp1526
I0
aI0
aI0
asI2827
(lp1527
I2
aI0
aI2
asI2829
(lp1528
I0
aI1
aI0
asI2830
(lp1529
I1
aI0
aI0
asI2831
(lp1530
I0
aI0
aI0
asI2832
(lp1531
I0
aI0
aI0
asI2833
(lp1532
I1
aI0
aI0
asI2834
(lp1533
I0
aI0
aI0
asI2835
(lp1534
I0
aI0
aI0
asI2836
(lp1535
I1
aI0
aI0
asI2838
(lp1536
I1
aI0
aI0
asI2839
(lp1537
I0
aI0
aI0
asI2840
(lp1538
I0
aI0
aI0
asI2841
(lp1539
I0
aI0
aI0
asI2842
(lp1540
I2
aI0
aI0
asI2843
(lp1541
I0
aI1
aI0
asI2844
(lp1542
I1
aI0
aI0
asI2846
(lp1543
I0
aI0
aI0
asI2847
(lp1544
I1
aI1
aI0
asI2848
(lp1545
I3
aI0
aI0
asI2849
(lp1546
I1
aI1
aI0
asI2850
(lp1547
I1
aI0
aI0
asI2851
(lp1548
I0
aI0
aI0
asI2852
(lp1549
I1
aI0
aI0
asI2853
(lp1550
I0
aI0
aI0
asI2854
(lp1551
I1
aI0
aI0
asI2855
(lp1552
I1
aI0
aI0
asI2856
(lp1553
I5
aI2
aI11
asI2857
(lp1554
I0
aI0
aI0
asI2858
(lp1555
I0
aI0
aI0
asI2859
(lp1556
I0
aI0
aI0
asI2861
(lp1557
I1
aI2
aI0
asI2862
(lp1558
I0
aI0
aI0
asI2863
(lp1559
I0
aI0
aI0
asI2864
(lp1560
I0
aI0
aI0
asI2865
(lp1561
I1
aI0
aI0
asI2866
(lp1562
I0
aI0
aI0
asI2867
(lp1563
I0
aI1
aI0
asI2868
(lp1564
I0
aI0
aI0
asI2869
(lp1565
I1
aI0
aI0
asI2870
(lp1566
I0
aI0
aI0
asI2871
(lp1567
I0
aI1
aI0
asI2872
(lp1568
I3
aI0
aI3
asI2873
(lp1569
I0
aI0
aI0
asI2874
(lp1570
I0
aI0
aI0
asI2875
(lp1571
I1
aI0
aI0
asI2877
(lp1572
I0
aI0
aI0
asI2878
(lp1573
I0
aI1
aI0
asI2879
(lp1574
I1
aI0
aI0
asI2880
(lp1575
I0
aI1
aI0
asI2881
(lp1576
I4
aI3
aI0
asI2882
(lp1577
I2
aI1
aI0
asI2883
(lp1578
I1
aI0
aI0
asI2884
(lp1579
I1
aI0
aI0
asI2885
(lp1580
I1
aI0
aI0
asI2886
(lp1581
I2
aI0
aI2
asI2887
(lp1582
I2
aI0
aI0
asI2888
(lp1583
I6
aI4
aI23
asI2890
(lp1584
I0
aI0
aI2
asI2891
(lp1585
I1
aI0
aI0
asI2892
(lp1586
I1
aI1
aI0
asI2893
(lp1587
I0
aI0
aI0
asI2894
(lp1588
I1
aI0
aI0
asI2895
(lp1589
I1
aI0
aI0
asI2896
(lp1590
I0
aI0
aI0
asI2897
(lp1591
I1
aI0
aI0
asI2898
(lp1592
I0
aI0
aI0
asI2899
(lp1593
I0
aI0
aI0
asI2900
(lp1594
I1
aI0
aI0
asI2901
(lp1595
I0
aI0
aI0
asI2902
(lp1596
I2
aI1
aI1
asI2903
(lp1597
I0
aI0
aI0
asI2904
(lp1598
I0
aI0
aI0
asI2905
(lp1599
I1
aI0
aI0
asI2906
(lp1600
I1
aI0
aI0
asI2908
(lp1601
I0
aI0
aI0
asI2909
(lp1602
I1
aI0
aI0
asI2910
(lp1603
I1
aI0
aI0
asI2911
(lp1604
I0
aI0
aI0
asI2912
(lp1605
I0
aI0
aI0
asI2917
(lp1606
I0
aI1
aI0
asI2918
(lp1607
I0
aI0
aI0
asI2920
(lp1608
I1
aI0
aI0
asI2921
(lp1609
I0
aI0
aI0
asI2922
(lp1610
I2
aI0
aI3
asI2923
(lp1611
I1
aI1
aI0
asI2924
(lp1612
I0
aI0
aI2
asI2925
(lp1613
I2
aI1
aI3
asI2926
(lp1614
I4
aI17
aI70
asI2927
(lp1615
I0
aI0
aI0
asI2928
(lp1616
I0
aI4
aI0
asI2930
(lp1617
I1
aI0
aI0
asI2931
(lp1618
I1
aI0
aI0
asI2932
(lp1619
I1
aI1
aI1
asI2933
(lp1620
I0
aI0
aI0
asI2935
(lp1621
I0
aI0
aI0
asI2937
(lp1622
I0
aI0
aI0
asI2938
(lp1623
I0
aI0
aI0
asI2939
(lp1624
I1
aI0
aI0
asI2940
(lp1625
I0
aI0
aI0
asI2941
(lp1626
I1
aI0
aI0
asI2942
(lp1627
I0
aI0
aI0
asI2943
(lp1628
I11
aI3
aI6
asI2944
(lp1629
I0
aI0
aI0
asI2945
(lp1630
I0
aI0
aI0
asI2946
(lp1631
I0
aI0
aI0
asI2947
(lp1632
I0
aI0
aI0
asI2948
(lp1633
I0
aI0
aI0
asI2949
(lp1634
I1
aI0
aI0
asI2950
(lp1635
I1
aI0
aI0
asI2951
(lp1636
I1
aI0
aI1
asI2952
(lp1637
I1
aI0
aI0
asI2953
(lp1638
I0
aI1
aI0
asI2954
(lp1639
I0
aI0
aI0
asI2955
(lp1640
I0
aI0
aI0
asI2956
(lp1641
I0
aI1
aI0
asI2957
(lp1642
I0
aI1
aI0
asI2958
(lp1643
I0
aI0
aI0
asI2959
(lp1644
I0
aI0
aI0
asI2960
(lp1645
I1
aI0
aI0
asI2962
(lp1646
I0
aI1
aI0
asI2963
(lp1647
I0
aI0
aI0
asI2964
(lp1648
I0
aI1
aI0
asI2965
(lp1649
I0
aI1
aI0
asI2966
(lp1650
I0
aI0
aI0
asI2968
(lp1651
I0
aI0
aI0
asI2969
(lp1652
I1
aI0
aI0
asI2970
(lp1653
I1
aI0
aI0
asI2971
(lp1654
I1
aI1
aI0
asI2972
(lp1655
I0
aI0
aI0
asI2973
(lp1656
I0
aI0
aI0
asI2974
(lp1657
I1
aI0
aI0
asI2975
(lp1658
I1
aI0
aI0
asI2976
(lp1659
I0
aI0
aI0
asI2977
(lp1660
I3
aI0
aI1
asI2978
(lp1661
I0
aI0
aI0
asI2980
(lp1662
I0
aI1
aI1
asI2981
(lp1663
I1
aI0
aI0
asI2982
(lp1664
I1
aI0
aI0
asI2983
(lp1665
I0
aI0
aI0
asI2984
(lp1666
I0
aI2
aI0
asI2985
(lp1667
I1
aI1
aI0
asI2986
(lp1668
I0
aI1
aI0
asI2987
(lp1669
I0
aI0
aI5
asI2988
(lp1670
I1
aI0
aI0
asI2989
(lp1671
I0
aI0
aI0
asI2990
(lp1672
I0
aI0
aI0
asI2991
(lp1673
I0
aI0
aI0
asI2993
(lp1674
I0
aI0
aI0
asI2994
(lp1675
I0
aI0
aI0
asI2995
(lp1676
I1
aI0
aI0
asI2996
(lp1677
I2
aI0
aI0
asI2997
(lp1678
I0
aI0
aI0
asI2998
(lp1679
I1
aI0
aI0
asI3000
(lp1680
I0
aI0
aI0
asI3001
(lp1681
I1
aI0
aI0
asI3002
(lp1682
I0
aI0
aI2
asI3003
(lp1683
I0
aI1
aI0
asI3004
(lp1684
I0
aI0
aI0
asI3005
(lp1685
I1
aI0
aI0
asI3006
(lp1686
I0
aI1
aI0
asI3007
(lp1687
I0
aI0
aI1
asI3009
(lp1688
I0
aI0
aI0
asI3010
(lp1689
I0
aI0
aI5
asI3011
(lp1690
I1
aI0
aI0
asI3012
(lp1691
I1
aI0
aI0
asI3013
(lp1692
I3
aI0
aI0
asI3015
(lp1693
I0
aI1
aI0
asI3016
(lp1694
I1
aI0
aI0
asI3017
(lp1695
I0
aI0
aI0
asI3018
(lp1696
I3
aI6
aI2
asI3019
(lp1697
I0
aI0
aI0
asI3020
(lp1698
I1
aI0
aI5
asI3022
(lp1699
I0
aI0
aI0
asI3023
(lp1700
I1
aI0
aI0
asI3024
(lp1701
I0
aI0
aI0
asI3026
(lp1702
I1
aI0
aI0
asI3029
(lp1703
I0
aI0
aI0
asI3030
(lp1704
I0
aI0
aI0
asI3031
(lp1705
I0
aI0
aI0
asI3032
(lp1706
I0
aI0
aI0
asI3033
(lp1707
I0
aI0
aI0
asI3035
(lp1708
I5
aI2
aI11
asI3036
(lp1709
I1
aI0
aI0
asI3038
(lp1710
I0
aI0
aI4
asI3039
(lp1711
I0
aI0
aI0
asI3040
(lp1712
I1
aI0
aI0
asI3041
(lp1713
I0
aI0
aI0
asI3043
(lp1714
I1
aI1
aI1
asI3044
(lp1715
I1
aI1
aI0
asI3045
(lp1716
I1
aI0
aI0
asI3046
(lp1717
I0
aI0
aI0
asI3047
(lp1718
I1
aI0
aI5
asI3048
(lp1719
I0
aI0
aI0
asI3049
(lp1720
I1
aI1
aI0
asI3050
(lp1721
I1
aI1
aI6
asI3051
(lp1722
I1
aI0
aI0
asI3052
(lp1723
I0
aI0
aI1
asI3054
(lp1724
I0
aI1
aI0
asI3055
(lp1725
I3
aI4
aI1
asI3058
(lp1726
I0
aI0
aI0
asI3059
(lp1727
I0
aI1
aI0
asI3060
(lp1728
I0
aI0
aI0
asI3062
(lp1729
I0
aI0
aI1
asI3063
(lp1730
I0
aI0
aI1
asI3064
(lp1731
I0
aI0
aI0
asI3065
(lp1732
I1
aI0
aI0
asI3066
(lp1733
I0
aI0
aI0
asI3067
(lp1734
I0
aI0
aI0
asI3068
(lp1735
I0
aI0
aI0
asI3069
(lp1736
I1
aI0
aI0
asI3070
(lp1737
I0
aI0
aI2
asI3071
(lp1738
I0
aI0
aI0
asI3072
(lp1739
I1
aI0
aI0
asI3073
(lp1740
I1
aI0
aI0
asI3075
(lp1741
I1
aI0
aI0
asI3076
(lp1742
I1
aI0
aI0
asI3077
(lp1743
I0
aI1
aI0
asI3078
(lp1744
I1
aI0
aI0
asI3079
(lp1745
I2
aI1
aI0
asI3080
(lp1746
I0
aI0
aI0
asI3081
(lp1747
I0
aI0
aI0
asI3082
(lp1748
I1
aI0
aI0
asI3083
(lp1749
I0
aI0
aI0
asI3085
(lp1750
I0
aI0
aI0
asI3086
(lp1751
I1
aI0
aI0
asI3087
(lp1752
I0
aI0
aI0
asI3088
(lp1753
I2
aI1
aI0
asI3089
(lp1754
I1
aI0
aI0
asI3090
(lp1755
I1
aI0
aI0
asI3091
(lp1756
I0
aI1
aI0
asI3092
(lp1757
I0
aI0
aI0
asI3093
(lp1758
I3
aI1
aI0
asI3094
(lp1759
I0
aI0
aI0
asI3095
(lp1760
I0
aI0
aI0
asI3096
(lp1761
I0
aI0
aI0
asI3098
(lp1762
I1
aI0
aI0
asI3100
(lp1763
I1
aI0
aI6
asI3101
(lp1764
I0
aI0
aI0
asI3102
(lp1765
I1
aI0
aI0
asI3103
(lp1766
I1
aI0
aI0
asI3105
(lp1767
I0
aI0
aI0
asI3106
(lp1768
I0
aI0
aI4
asI3107
(lp1769
I4
aI1
aI0
asI3108
(lp1770
I0
aI0
aI0
asI3109
(lp1771
I0
aI0
aI0
asI3111
(lp1772
I1
aI0
aI0
asI3112
(lp1773
I16
aI19
aI4
asI3113
(lp1774
I0
aI0
aI2
asI3114
(lp1775
I0
aI0
aI0
asI3116
(lp1776
I3
aI0
aI0
asI3117
(lp1777
I0
aI0
aI2
asI3118
(lp1778
I1
aI0
aI0
asI3119
(lp1779
I1
aI0
aI0
asI3121
(lp1780
I0
aI0
aI0
asI3122
(lp1781
I0
aI0
aI0
asI3123
(lp1782
I1
aI0
aI0
asI3124
(lp1783
I2
aI1
aI0
asI3125
(lp1784
I1
aI0
aI0
asI3126
(lp1785
I1
aI0
aI0
asI3127
(lp1786
I1
aI0
aI0
asI3128
(lp1787
I0
aI0
aI0
asI3129
(lp1788
I0
aI0
aI0
asI3130
(lp1789
I0
aI0
aI0
asI3131
(lp1790
I0
aI0
aI0
asI3132
(lp1791
I1
aI0
aI0
asI3133
(lp1792
I1
aI0
aI0
asI3134
(lp1793
I0
aI0
aI0
asI3135
(lp1794
I0
aI1
aI0
asI3136
(lp1795
I4
aI2
aI2
asI3137
(lp1796
I1
aI0
aI0
asI3138
(lp1797
I0
aI0
aI0
asI3139
(lp1798
I1
aI0
aI0
asI3140
(lp1799
I0
aI1
aI2
asI3141
(lp1800
I1
aI0
aI0
asI3142
(lp1801
I0
aI0
aI0
asI3144
(lp1802
I0
aI0
aI0
asI3145
(lp1803
I1
aI0
aI0
asI3146
(lp1804
I28
aI2
aI24
asI3147
(lp1805
I0
aI0
aI0
asI3148
(lp1806
I1
aI0
aI0
asI3149
(lp1807
I1
aI0
aI0
asI3150
(lp1808
I1
aI0
aI0
asI3151
(lp1809
I0
aI0
aI0
asI3152
(lp1810
I1
aI0
aI0
asI3153
(lp1811
I0
aI0
aI0
asI3154
(lp1812
I0
aI0
aI0
asI3155
(lp1813
I1
aI0
aI0
asI3156
(lp1814
I1
aI0
aI0
asI3157
(lp1815
I0
aI0
aI0
asI3158
(lp1816
I1
aI0
aI0
asI3159
(lp1817
I0
aI0
aI0
asI3160
(lp1818
I0
aI0
aI0
asI3161
(lp1819
I1
aI0
aI0
asI3162
(lp1820
I2
aI0
aI0
asI3163
(lp1821
I1
aI0
aI7
asI3164
(lp1822
I0
aI0
aI2
asI3165
(lp1823
I0
aI0
aI0
asI3166
(lp1824
I0
aI0
aI0
asI3167
(lp1825
I0
aI0
aI2
asI3169
(lp1826
I0
aI0
aI1
asI3170
(lp1827
I0
aI0
aI0
asI3171
(lp1828
I0
aI0
aI0
asI3172
(lp1829
I0
aI0
aI0
asI3173
(lp1830
I0
aI0
aI0
asI3174
(lp1831
I0
aI0
aI0
asI3175
(lp1832
I1
aI0
aI0
asI3176
(lp1833
I0
aI0
aI0
asI3177
(lp1834
I1
aI0
aI0
asI3178
(lp1835
I1
aI0
aI0
asI3180
(lp1836
I1
aI0
aI0
asI3181
(lp1837
I1
aI0
aI0
asI3182
(lp1838
I0
aI0
aI0
asI3184
(lp1839
I1
aI0
aI0
asI3185
(lp1840
I0
aI1
aI0
asI3186
(lp1841
I1
aI0
aI0
asI3187
(lp1842
I0
aI0
aI0
asI3188
(lp1843
I0
aI1
aI0
asI3189
(lp1844
I0
aI1
aI0
asI3190
(lp1845
I1
aI0
aI0
asI3191
(lp1846
I1
aI0
aI0
asI3193
(lp1847
I1
aI0
aI0
asI3194
(lp1848
I0
aI0
aI0
asI3195
(lp1849
I1
aI0
aI0
asI3196
(lp1850
I2
aI2
aI1
asI3197
(lp1851
I0
aI0
aI0
asI3198
(lp1852
I1
aI0
aI0
asI3199
(lp1853
I1
aI0
aI0
asI3200
(lp1854
I0
aI0
aI0
asI3201
(lp1855
I0
aI0
aI0
asI3202
(lp1856
I0
aI0
aI0
asI3203
(lp1857
I0
aI0
aI0
asI3204
(lp1858
I1
aI0
aI0
asI3205
(lp1859
I1
aI0
aI0
asI3206
(lp1860
I3
aI0
aI0
asI3207
(lp1861
I1
aI2
aI0
asI3209
(lp1862
I1
aI0
aI0
asI3210
(lp1863
I0
aI0
aI0
asI3211
(lp1864
I2
aI0
aI0
asI3212
(lp1865
I1
aI0
aI0
asI3213
(lp1866
I0
aI0
aI0
asI3214
(lp1867
I0
aI0
aI0
asI3215
(lp1868
I0
aI0
aI0
asI3216
(lp1869
I1
aI0
aI0
asI3217
(lp1870
I0
aI0
aI0
asI3218
(lp1871
I0
aI0
aI0
asI3219
(lp1872
I2
aI1
aI1
asI3220
(lp1873
I0
aI0
aI0
asI3222
(lp1874
I2
aI0
aI0
asI3223
(lp1875
I0
aI1
aI0
asI3224
(lp1876
I1
aI1
aI0
asI3225
(lp1877
I0
aI0
aI0
asI3226
(lp1878
I1
aI0
aI0
asI3227
(lp1879
I1
aI0
aI0
asI3228
(lp1880
I0
aI0
aI0
asI3229
(lp1881
I0
aI0
aI0
asI3231
(lp1882
I2
aI1
aI0
asI3232
(lp1883
I0
aI0
aI0
asI3233
(lp1884
I3
aI7
aI6
asI3234
(lp1885
I0
aI0
aI1
asI3236
(lp1886
I1
aI0
aI0
asI3237
(lp1887
I1
aI0
aI1
asI3238
(lp1888
I1
aI0
aI1
asI3239
(lp1889
I1
aI0
aI0
asI3240
(lp1890
I2
aI3
aI1
asI3241
(lp1891
I0
aI0
aI0
asI3242
(lp1892
I1
aI0
aI0
asI3243
(lp1893
I0
aI0
aI0
asI3244
(lp1894
I0
aI0
aI0
asI3245
(lp1895
I1
aI0
aI0
asI3246
(lp1896
I0
aI1
aI0
asI3248
(lp1897
I0
aI0
aI0
asI3249
(lp1898
I0
aI0
aI0
asI3250
(lp1899
I0
aI17
aI1
asI3251
(lp1900
I0
aI0
aI0
asI3252
(lp1901
I0
aI0
aI0
asI3253
(lp1902
I0
aI0
aI0
asI3254
(lp1903
I1
aI0
aI0
asI3255
(lp1904
I0
aI0
aI1
asI3256
(lp1905
I0
aI0
aI0
asI3257
(lp1906
I1
aI0
aI0
asI3258
(lp1907
I2
aI0
aI0
asI3259
(lp1908
I0
aI0
aI1
asI3260
(lp1909
I1
aI2
aI1
asI3261
(lp1910
I0
aI0
aI0
asI3262
(lp1911
I1
aI0
aI0
asI3263
(lp1912
I0
aI0
aI0
asI3264
(lp1913
I1
aI0
aI0
asI3267
(lp1914
I0
aI0
aI0
asI3268
(lp1915
I1
aI0
aI0
asI3269
(lp1916
I0
aI0
aI0
asI3270
(lp1917
I0
aI0
aI0
asI3272
(lp1918
I0
aI0
aI0
asI3273
(lp1919
I1
aI0
aI0
asI3275
(lp1920
I0
aI0
aI0
asI3276
(lp1921
I0
aI0
aI0
asI3277
(lp1922
I0
aI0
aI0
asI3279
(lp1923
I0
aI0
aI0
asI3280
(lp1924
I1
aI0
aI0
asI3281
(lp1925
I0
aI0
aI3
asI3282
(lp1926
I1
aI0
aI0
asI3283
(lp1927
I1
aI0
aI0
asI3284
(lp1928
I0
aI0
aI0
asI3285
(lp1929
I0
aI0
aI0
asI3286
(lp1930
I2
aI2
aI3
asI3287
(lp1931
I1
aI0
aI0
asI3288
(lp1932
I0
aI0
aI0
asI3289
(lp1933
I0
aI0
aI0
asI3290
(lp1934
I1
aI0
aI0
asI3291
(lp1935
I1
aI0
aI0
asI3293
(lp1936
I0
aI0
aI0
asI3294
(lp1937
I0
aI0
aI0
asI3295
(lp1938
I0
aI0
aI0
asI3296
(lp1939
I0
aI0
aI3
asI3297
(lp1940
I0
aI0
aI0
asI3298
(lp1941
I0
aI0
aI0
asI3299
(lp1942
I1
aI0
aI0
asI3300
(lp1943
I0
aI0
aI0
asI3301
(lp1944
I3
aI0
aI0
asI3303
(lp1945
I1
aI0
aI0
asI3304
(lp1946
I1
aI0
aI0
asI3309
(lp1947
I0
aI0
aI0
asI3310
(lp1948
I0
aI0
aI0
asI3311
(lp1949
I0
aI0
aI0
asI3312
(lp1950
I1
aI0
aI0
asI3313
(lp1951
I0
aI0
aI0
asI3315
(lp1952
I1
aI0
aI0
asI3316
(lp1953
I0
aI0
aI0
asI3318
(lp1954
I1
aI0
aI0
asI3319
(lp1955
I0
aI0
aI0
asI3320
(lp1956
I0
aI0
aI0
asI3321
(lp1957
I1
aI1
aI0
asI3322
(lp1958
I0
aI0
aI0
asI3324
(lp1959
I1
aI0
aI0
asI3326
(lp1960
I0
aI8
aI3
asI3327
(lp1961
I0
aI2
aI3
asI3328
(lp1962
I1
aI0
aI0
asI3329
(lp1963
I0
aI0
aI0
asI3330
(lp1964
I1
aI1
aI0
asI3331
(lp1965
I1
aI0
aI0
asI3332
(lp1966
I0
aI0
aI0
asI3333
(lp1967
I1
aI0
aI0
asI3334
(lp1968
I0
aI1
aI0
asI3335
(lp1969
I0
aI0
aI0
asI3336
(lp1970
I0
aI0
aI0
asI3337
(lp1971
I0
aI0
aI0
asI3338
(lp1972
I0
aI0
aI0
asI3339
(lp1973
I1
aI0
aI0
asI3340
(lp1974
I1
aI0
aI0
asI3341
(lp1975
I0
aI0
aI0
asI3342
(lp1976
I0
aI0
aI0
asI3343
(lp1977
I0
aI0
aI0
asI3344
(lp1978
I0
aI0
aI0
asI3345
(lp1979
I0
aI1
aI0
asI3346
(lp1980
I0
aI0
aI0
asI3347
(lp1981
I0
aI0
aI0
asI3348
(lp1982
I2
aI1
aI0
asI3349
(lp1983
I0
aI1
aI2
asI3350
(lp1984
I0
aI0
aI0
asI3351
(lp1985
I0
aI0
aI0
asI3352
(lp1986
I0
aI0
aI0
asI3353
(lp1987
I6
aI0
aI1
asI3354
(lp1988
I1
aI0
aI0
asI3356
(lp1989
I0
aI0
aI0
asI3357
(lp1990
I0
aI0
aI0
asI3358
(lp1991
I0
aI0
aI0
asI3359
(lp1992
I0
aI0
aI0
asI3360
(lp1993
I1
aI0
aI0
asI3361
(lp1994
I0
aI0
aI0
asI3362
(lp1995
I0
aI0
aI0
asI3363
(lp1996
I0
aI0
aI0
asI3364
(lp1997
I0
aI0
aI0
asI3365
(lp1998
I0
aI0
aI0
asI3366
(lp1999
I0
aI0
aI0
asI3368
(lp2000
I1
aI0
aI0
asI3369
(lp2001
I0
aI0
aI0
asI3370
(lp2002
I2
aI0
aI0
asI3371
(lp2003
I0
aI1
aI0
asI3372
(lp2004
I0
aI0
aI0
asI3373
(lp2005
I0
aI0
aI0
asI3374
(lp2006
I0
aI0
aI0
asI3375
(lp2007
I1
aI1
aI0
asI3377
(lp2008
I0
aI0
aI0
asI3379
(lp2009
I1
aI0
aI0
asI3380
(lp2010
I0
aI1
aI0
asI3382
(lp2011
I1
aI0
aI0
asI3383
(lp2012
I0
aI0
aI0
asI3384
(lp2013
I0
aI0
aI1
asI3385
(lp2014
I1
aI0
aI0
asI3387
(lp2015
I1
aI0
aI0
asI3388
(lp2016
I0
aI0
aI0
asI3389
(lp2017
I1
aI0
aI0
asI3390
(lp2018
I0
aI0
aI0
asI3391
(lp2019
I0
aI0
aI2
asI3393
(lp2020
I0
aI0
aI0
asI3394
(lp2021
I0
aI0
aI0
asI3395
(lp2022
I0
aI0
aI0
asI3397
(lp2023
I0
aI0
aI0
asI3398
(lp2024
I1
aI0
aI0
asI3399
(lp2025
I0
aI0
aI0
asI3401
(lp2026
I1
aI0
aI0
asI3402
(lp2027
I1
aI0
aI0
asI3403
(lp2028
I0
aI1
aI0
asI3404
(lp2029
I1
aI0
aI0
asI3405
(lp2030
I0
aI1
aI0
asI3406
(lp2031
I0
aI0
aI0
asI3407
(lp2032
I0
aI0
aI0
asI3408
(lp2033
I0
aI0
aI0
asI3410
(lp2034
I0
aI0
aI0
asI3411
(lp2035
I0
aI0
aI0
asI3412
(lp2036
I1
aI0
aI0
asI3413
(lp2037
I0
aI0
aI0
asI3414
(lp2038
I1
aI0
aI0
asI3415
(lp2039
I1
aI0
aI2
asI3416
(lp2040
I0
aI0
aI0
asI3417
(lp2041
I0
aI0
aI0
asI3419
(lp2042
I1
aI0
aI0
asI3420
(lp2043
I1
aI0
aI0
asI3421
(lp2044
I1
aI0
aI0
asI3423
(lp2045
I1
aI0
aI0
asI3424
(lp2046
I1
aI0
aI1
asI3425
(lp2047
I1
aI0
aI0
asI3426
(lp2048
I0
aI0
aI0
asI3427
(lp2049
I0
aI2
aI0
asI3428
(lp2050
I0
aI0
aI0
asI3429
(lp2051
I0
aI0
aI0
asI3430
(lp2052
I0
aI0
aI0
asI3431
(lp2053
I0
aI0
aI0
asI3432
(lp2054
I1
aI1
aI0
asI3433
(lp2055
I0
aI5
aI2
asI3434
(lp2056
I2
aI0
aI0
asI3435
(lp2057
I1
aI0
aI0
asI3436
(lp2058
I1
aI0
aI0
asI3437
(lp2059
I1
aI0
aI0
asI3438
(lp2060
I1
aI0
aI0
asI3439
(lp2061
I0
aI0
aI0
asI3442
(lp2062
I1
aI0
aI0
asI3443
(lp2063
I0
aI0
aI2
asI3444
(lp2064
I1
aI0
aI0
asI3445
(lp2065
I0
aI0
aI0
asI3446
(lp2066
I0
aI0
aI0
asI3447
(lp2067
I1
aI0
aI1
asI3448
(lp2068
I0
aI0
aI0
asI3449
(lp2069
I0
aI0
aI1
asI3450
(lp2070
I1
aI0
aI0
asI3451
(lp2071
I0
aI0
aI0
asI3452
(lp2072
I0
aI0
aI0
asI3453
(lp2073
I1
aI0
aI0
asI3454
(lp2074
I0
aI0
aI0
asI3455
(lp2075
I0
aI0
aI0
asI3456
(lp2076
I0
aI0
aI0
asI3457
(lp2077
I1
aI0
aI0
asI3458
(lp2078
I0
aI0
aI0
asI3459
(lp2079
I0
aI1
aI0
asI3460
(lp2080
I0
aI0
aI0
asI3461
(lp2081
I0
aI0
aI0
asI3462
(lp2082
I0
aI0
aI0
asI3463
(lp2083
I0
aI0
aI0
asI3464
(lp2084
I0
aI0
aI0
asI3465
(lp2085
I3
aI0
aI0
asI3466
(lp2086
I0
aI0
aI0
asI3467
(lp2087
I0
aI0
aI5
asI3468
(lp2088
I0
aI0
aI0
asI3469
(lp2089
I0
aI0
aI0
asI3470
(lp2090
I1
aI0
aI0
asI3471
(lp2091
I0
aI0
aI2
asI3472
(lp2092
I0
aI0
aI0
asI3473
(lp2093
I0
aI0
aI0
asI3474
(lp2094
I1
aI0
aI0
asI3475
(lp2095
I1
aI0
aI0
asI3476
(lp2096
I0
aI0
aI1
asI3477
(lp2097
I0
aI0
aI0
asI3478
(lp2098
I1
aI5
aI1
asI3479
(lp2099
I0
aI1
aI0
asI3480
(lp2100
I1
aI0
aI0
asI3481
(lp2101
I0
aI0
aI0
asI3482
(lp2102
I1
aI0
aI1
asI3483
(lp2103
I1
aI0
aI0
asI3484
(lp2104
I0
aI0
aI0
asI3485
(lp2105
I0
aI0
aI0
asI3486
(lp2106
I0
aI0
aI0
asI3487
(lp2107
I0
aI0
aI0
asI3488
(lp2108
I0
aI0
aI0
asI3489
(lp2109
I1
aI0
aI0
asI3490
(lp2110
I0
aI0
aI0
asI3491
(lp2111
I1
aI0
aI0
asI3492
(lp2112
I0
aI0
aI0
asI3493
(lp2113
I0
aI0
aI13
asI3494
(lp2114
I1
aI0
aI0
asI3495
(lp2115
I0
aI0
aI0
asI3496
(lp2116
I1
aI0
aI0
asI3497
(lp2117
I1
aI1
aI0
asI3498
(lp2118
I0
aI0
aI0
asI3499
(lp2119
I0
aI0
aI0
asI3500
(lp2120
I0
aI0
aI0
asI3501
(lp2121
I1
aI0
aI0
asI3502
(lp2122
I0
aI1
aI0
asI3503
(lp2123
I0
aI0
aI0
asI3504
(lp2124
I0
aI0
aI0
asI3505
(lp2125
I6
aI2
aI3
asI3506
(lp2126
I0
aI0
aI0
asI3507
(lp2127
I2
aI0
aI1
asI3508
(lp2128
I0
aI0
aI0
asI3509
(lp2129
I0
aI0
aI0
asI3510
(lp2130
I1
aI0
aI0
asI3511
(lp2131
I0
aI0
aI0
asI3512
(lp2132
I0
aI0
aI0
asI3513
(lp2133
I1
aI0
aI0
asI3514
(lp2134
I1
aI0
aI0
asI3515
(lp2135
I2
aI1
aI0
asI3516
(lp2136
I0
aI0
aI0
asI3517
(lp2137
I1
aI0
aI0
asI3518
(lp2138
I0
aI0
aI0
asI3519
(lp2139
I1
aI0
aI0
asI3520
(lp2140
I0
aI0
aI0
asI3521
(lp2141
I0
aI0
aI0
asI3522
(lp2142
I1
aI0
aI0
asI3523
(lp2143
I1
aI0
aI0
asI3524
(lp2144
I0
aI0
aI0
asI3525
(lp2145
I0
aI0
aI0
asI3526
(lp2146
I0
aI0
aI0
asI3527
(lp2147
I0
aI0
aI0
asI3528
(lp2148
I0
aI0
aI0
asI3529
(lp2149
I1
aI0
aI0
asI3530
(lp2150
I1
aI0
aI0
asI3531
(lp2151
I1
aI0
aI0
asI3532
(lp2152
I0
aI0
aI0
asI3533
(lp2153
I0
aI0
aI2
asI3534
(lp2154
I0
aI0
aI0
asI3535
(lp2155
I1
aI0
aI0
asI3536
(lp2156
I2
aI1
aI0
asI3537
(lp2157
I1
aI0
aI0
asI3538
(lp2158
I1
aI0
aI0
asI3539
(lp2159
I1
aI3
aI0
asI3540
(lp2160
I0
aI1
aI0
asI3541
(lp2161
I0
aI0
aI0
asI3542
(lp2162
I0
aI1
aI0
asI3543
(lp2163
I0
aI0
aI0
asI3544
(lp2164
I0
aI0
aI0
asI3545
(lp2165
I0
aI1
aI0
asI3546
(lp2166
I1
aI0
aI0
asI3547
(lp2167
I1
aI0
aI0
asI3548
(lp2168
I0
aI0
aI0
asI3549
(lp2169
I0
aI0
aI0
asI3550
(lp2170
I1
aI0
aI0
asI3551
(lp2171
I0
aI0
aI0
asI3552
(lp2172
I0
aI0
aI0
asI3553
(lp2173
I1
aI0
aI0
asI3554
(lp2174
I0
aI0
aI0
asI3555
(lp2175
I0
aI0
aI0
asI3556
(lp2176
I0
aI0
aI0
asI3557
(lp2177
I0
aI0
aI0
asI3558
(lp2178
I0
aI0
aI0
asI3559
(lp2179
I0
aI0
aI0
asI3560
(lp2180
I0
aI0
aI0
asI3561
(lp2181
I7
aI5
aI6
asI3562
(lp2182
I0
aI0
aI0
asI3563
(lp2183
I1
aI0
aI0
asI3564
(lp2184
I0
aI0
aI0
asI3565
(lp2185
I1
aI0
aI0
asI3566
(lp2186
I0
aI0
aI0
asI3567
(lp2187
I1
aI1
aI0
asI3568
(lp2188
I1
aI0
aI0
asI3569
(lp2189
I0
aI0
aI0
asI3570
(lp2190
I0
aI0
aI0
asI3571
(lp2191
I0
aI4
aI7
asI3572
(lp2192
I0
aI0
aI0
asI3573
(lp2193
I0
aI0
aI0
asI3574
(lp2194
I1
aI0
aI0
asI3575
(lp2195
I1
aI0
aI0
asI3576
(lp2196
I0
aI0
aI0
asI3577
(lp2197
I1
aI0
aI0
asI3578
(lp2198
I0
aI0
aI0
asI3579
(lp2199
I0
aI0
aI2
asI3580
(lp2200
I1
aI0
aI0
asI3581
(lp2201
I1
aI4
aI0
asI3583
(lp2202
I1
aI1
aI0
asI3584
(lp2203
I1
aI0
aI0
asI3585
(lp2204
I0
aI0
aI0
asI3586
(lp2205
I0
aI0
aI2
asI3587
(lp2206
I0
aI0
aI2
asI3588
(lp2207
I1
aI0
aI0
asI3589
(lp2208
I0
aI3
aI0
asI3590
(lp2209
I0
aI0
aI0
asI3591
(lp2210
I0
aI2
aI0
asI3592
(lp2211
I0
aI0
aI0
asI3593
(lp2212
I0
aI0
aI0
asI3594
(lp2213
I0
aI0
aI0
asI3595
(lp2214
I0
aI0
aI0
asI3596
(lp2215
I0
aI0
aI0
asI3597
(lp2216
I0
aI0
aI0
asI3598
(lp2217
I0
aI0
aI8
asI3599
(lp2218
I0
aI0
aI0
asI3600
(lp2219
I0
aI0
aI0
asI3601
(lp2220
I0
aI0
aI0
asI3602
(lp2221
I0
aI0
aI0
asI3603
(lp2222
I0
aI0
aI0
asI3604
(lp2223
I0
aI0
aI0
asI3605
(lp2224
I0
aI0
aI2
asI3606
(lp2225
I0
aI0
aI0
asI3607
(lp2226
I0
aI0
aI0
asI3608
(lp2227
I0
aI0
aI0
asI3609
(lp2228
I2
aI0
aI0
asI3610
(lp2229
I0
aI0
aI0
asI3611
(lp2230
I1
aI0
aI0
asI3612
(lp2231
I0
aI0
aI0
asI3613
(lp2232
I0
aI0
aI0
asI3614
(lp2233
I0
aI0
aI2
asI3615
(lp2234
I0
aI0
aI0
asI3616
(lp2235
I0
aI0
aI0
asI3617
(lp2236
I2
aI0
aI2
asI3618
(lp2237
I0
aI0
aI0
asI3619
(lp2238
I0
aI0
aI0
asI3620
(lp2239
I1
aI0
aI0
asI3621
(lp2240
I0
aI0
aI0
asI3622
(lp2241
I2
aI1
aI4
asI3623
(lp2242
I0
aI0
aI0
asI3624
(lp2243
I0
aI0
aI4
asI3625
(lp2244
I0
aI0
aI0
asI3626
(lp2245
I1
aI0
aI0
asI3627
(lp2246
I0
aI0
aI0
asI3628
(lp2247
I0
aI0
aI0
asI3629
(lp2248
I0
aI0
aI0
asI3630
(lp2249
I0
aI0
aI0
asI3631
(lp2250
I0
aI0
aI0
asI3632
(lp2251
I1
aI0
aI0
asI3633
(lp2252
I1
aI0
aI0
asI3634
(lp2253
I0
aI0
aI4
asI3635
(lp2254
I0
aI0
aI0
asI3636
(lp2255
I1
aI1
aI0
asI3637
(lp2256
I8
aI0
aI10
asI3638
(lp2257
I0
aI0
aI0
asI3639
(lp2258
I0
aI0
aI0
asI3640
(lp2259
I0
aI0
aI0
asI3641
(lp2260
I0
aI0
aI0
asI3642
(lp2261
I0
aI0
aI0
asI3643
(lp2262
I0
aI0
aI0
asI3644
(lp2263
I0
aI0
aI0
asI3645
(lp2264
I1
aI0
aI0
asI3646
(lp2265
I2
aI1
aI0
asI3647
(lp2266
I0
aI0
aI0
asI3648
(lp2267
I1
aI0
aI0
asI3649
(lp2268
I0
aI0
aI0
asI3650
(lp2269
I0
aI0
aI0
asI3651
(lp2270
I0
aI0
aI0
asI3652
(lp2271
I0
aI0
aI0
asI3654
(lp2272
I1
aI0
aI0
asI3655
(lp2273
I1
aI0
aI0
asI3656
(lp2274
I0
aI0
aI0
asI3657
(lp2275
I2
aI2
aI0
asI3658
(lp2276
I0
aI0
aI0
asI3659
(lp2277
I0
aI0
aI0
asI3660
(lp2278
I0
aI0
aI0
asI3661
(lp2279
I0
aI0
aI0
asI3662
(lp2280
I0
aI0
aI0
asI3663
(lp2281
I1
aI0
aI0
asI3664
(lp2282
I0
aI0
aI1
asI3666
(lp2283
I0
aI0
aI1
asI3667
(lp2284
I0
aI0
aI0
asI3668
(lp2285
I0
aI0
aI0
asI3669
(lp2286
I1
aI0
aI0
asI3670
(lp2287
I0
aI0
aI0
asI3671
(lp2288
I0
aI0
aI0
asI3672
(lp2289
I0
aI0
aI2
asI3673
(lp2290
I0
aI0
aI0
asI3674
(lp2291
I1
aI0
aI0
asI3675
(lp2292
I1
aI0
aI0
asI3676
(lp2293
I0
aI0
aI0
asI3677
(lp2294
I0
aI0
aI0
asI3678
(lp2295
I0
aI0
aI1
asI3679
(lp2296
I0
aI0
aI0
asI3680
(lp2297
I1
aI0
aI0
asI3681
(lp2298
I0
aI0
aI1
asI3682
(lp2299
I0
aI0
aI0
asI3683
(lp2300
I1
aI0
aI0
asI3684
(lp2301
I0
aI0
aI0
asI3685
(lp2302
I0
aI0
aI0
asI3686
(lp2303
I0
aI0
aI0
asI3687
(lp2304
I0
aI0
aI0
asI3688
(lp2305
I0
aI0
aI0
asI3689
(lp2306
I0
aI0
aI0
asI3690
(lp2307
I0
aI0
aI0
asI3691
(lp2308
I1
aI0
aI0
asI3692
(lp2309
I0
aI0
aI0
asI3693
(lp2310
I0
aI0
aI0
asI3694
(lp2311
I0
aI0
aI0
asI3695
(lp2312
I0
aI0
aI0
asI3696
(lp2313
I1
aI0
aI0
asI3697
(lp2314
I0
aI0
aI0
asI3698
(lp2315
I0
aI0
aI2
asI3699
(lp2316
I1
aI0
aI0
asI3700
(lp2317
I0
aI0
aI0
asI3701
(lp2318
I0
aI0
aI0
asI3702
(lp2319
I0
aI1
aI0
asI3703
(lp2320
I0
aI0
aI0
asI3704
(lp2321
I0
aI0
aI0
asI3705
(lp2322
I1
aI0
aI0
asI3706
(lp2323
I0
aI0
aI0
asI3707
(lp2324
I0
aI0
aI0
asI3708
(lp2325
I0
aI0
aI0
asI3709
(lp2326
I0
aI0
aI0
asI3710
(lp2327
I0
aI0
aI0
asI3711
(lp2328
I1
aI0
aI0
asI3712
(lp2329
I0
aI1
aI0
asI3714
(lp2330
I0
aI0
aI0
asI3715
(lp2331
I1
aI0
aI0
asI3716
(lp2332
I0
aI0
aI0
asI3717
(lp2333
I0
aI0
aI0
asI3718
(lp2334
I0
aI0
aI2
asI3719
(lp2335
I1
aI0
aI0
asI3720
(lp2336
I0
aI0
aI0
asI3721
(lp2337
I0
aI0
aI0
asI3722
(lp2338
I0
aI1
aI0
asI3723
(lp2339
I0
aI0
aI0
asI3724
(lp2340
I1
aI0
aI0
asI3725
(lp2341
I0
aI0
aI0
asI3726
(lp2342
I1
aI0
aI0
asI3727
(lp2343
I0
aI0
aI0
asI3728
(lp2344
I1
aI1
aI0
asI3729
(lp2345
I0
aI0
aI0
asI3730
(lp2346
I0
aI0
aI0
asI3731
(lp2347
I1
aI1
aI0
asI3732
(lp2348
I0
aI1
aI0
asI3733
(lp2349
I2
aI0
aI0
asI3734
(lp2350
I1
aI0
aI0
asI3735
(lp2351
I0
aI0
aI0
asI3736
(lp2352
I1
aI0
aI0
asI3737
(lp2353
I1
aI0
aI0
asI3738
(lp2354
I0
aI0
aI0
asI3739
(lp2355
I1
aI2
aI5
asI3740
(lp2356
I1
aI0
aI0
asI3741
(lp2357
I1
aI0
aI0
asI3742
(lp2358
I2
aI0
aI0
asI3743
(lp2359
I1
aI0
aI0
asI3744
(lp2360
I3
aI1
aI4
asI3745
(lp2361
I1
aI0
aI0
asI3746
(lp2362
I0
aI0
aI0
asI3747
(lp2363
I0
aI7
aI1
asI3748
(lp2364
I0
aI0
aI2
asI3749
(lp2365
I1
aI0
aI0
asI3750
(lp2366
I1
aI0
aI0
asI3751
(lp2367
I1
aI1
aI0
asI3752
(lp2368
I0
aI0
aI0
asI3753
(lp2369
I1
aI1
aI0
asI3754
(lp2370
I1
aI0
aI0
asI3755
(lp2371
I0
aI1
aI0
asI3756
(lp2372
I1
aI0
aI0
asI3757
(lp2373
I25
aI88
aI860
asI3758
(lp2374
I0
aI0
aI0
asI3759
(lp2375
I0
aI0
aI0
asI3760
(lp2376
I1
aI0
aI0
asI3761
(lp2377
I2
aI0
aI0
asI3762
(lp2378
I0
aI0
aI0
asI3763
(lp2379
I1
aI0
aI0
asI3764
(lp2380
I0
aI0
aI0
asI3765
(lp2381
I2
aI0
aI0
asI3766
(lp2382
I1
aI0
aI0
asI3767
(lp2383
I0
aI0
aI0
asI3768
(lp2384
I0
aI1
aI1
asI3769
(lp2385
I0
aI1
aI0
asI3770
(lp2386
I0
aI0
aI0
asI3771
(lp2387
I0
aI0
aI0
asI3772
(lp2388
I1
aI0
aI0
asI3773
(lp2389
I0
aI0
aI0
asI3774
(lp2390
I1
aI0
aI0
asI3775
(lp2391
I1
aI0
aI0
asI3776
(lp2392
I0
aI0
aI0
asI3777
(lp2393
I0
aI0
aI0
asI3778
(lp2394
I0
aI0
aI0
asI3779
(lp2395
I1
aI0
aI0
asI3780
(lp2396
I0
aI0
aI0
asI3781
(lp2397
I0
aI0
aI0
asI3782
(lp2398
I1
aI0
aI0
asI3783
(lp2399
I0
aI0
aI0
asI3784
(lp2400
I0
aI0
aI0
asI3785
(lp2401
I0
aI0
aI0
asI3786
(lp2402
I1
aI0
aI0
asI3787
(lp2403
I0
aI0
aI0
asI3788
(lp2404
I0
aI0
aI0
asI3789
(lp2405
I0
aI1
aI0
asI3790
(lp2406
I0
aI0
aI0
asI3791
(lp2407
I0
aI0
aI0
asI3792
(lp2408
I0
aI0
aI0
asI3793
(lp2409
I0
aI1
aI0
asI3794
(lp2410
I0
aI0
aI1
asI3795
(lp2411
I0
aI0
aI2
asI3796
(lp2412
I0
aI0
aI0
asI3797
(lp2413
I0
aI1
aI0
asI3798
(lp2414
I0
aI1
aI0
asI3799
(lp2415
I1
aI1
aI0
asI3800
(lp2416
I1
aI0
aI0
asI3801
(lp2417
I0
aI0
aI0
asI3802
(lp2418
I0
aI0
aI6
asI3803
(lp2419
I0
aI0
aI0
asI3804
(lp2420
I0
aI0
aI0
asI3805
(lp2421
I1
aI2
aI0
asI3806
(lp2422
I1
aI0
aI0
asI3807
(lp2423
I0
aI0
aI0
asI3808
(lp2424
I0
aI1
aI0
asI3809
(lp2425
I0
aI0
aI0
asI3810
(lp2426
I1
aI0
aI0
asI3811
(lp2427
I0
aI0
aI0
asI3812
(lp2428
I0
aI0
aI0
asI3813
(lp2429
I4
aI1
aI2
asI3814
(lp2430
I2
aI0
aI0
asI3815
(lp2431
I0
aI0
aI0
asI3816
(lp2432
I0
aI0
aI0
asI3817
(lp2433
I0
aI0
aI0
asI3818
(lp2434
I0
aI0
aI0
asI3819
(lp2435
I0
aI0
aI2
asI3820
(lp2436
I1
aI2
aI0
asI3821
(lp2437
I0
aI0
aI0
asI3822
(lp2438
I0
aI0
aI0
asI3823
(lp2439
I1
aI1
aI0
asI3824
(lp2440
I0
aI0
aI0
asI3825
(lp2441
I0
aI0
aI0
asI3826
(lp2442
I1
aI0
aI0
asI3827
(lp2443
I2
aI0
aI0
asI3828
(lp2444
I0
aI0
aI0
asI3829
(lp2445
I0
aI0
aI0
asI3830
(lp2446
I2
aI0
aI25
asI3831
(lp2447
I0
aI0
aI0
asI3832
(lp2448
I2
aI0
aI0
asI3833
(lp2449
I0
aI0
aI0
asI3834
(lp2450
I1
aI0
aI0
asI3835
(lp2451
I0
aI0
aI0
asI3836
(lp2452
I1
aI0
aI0
asI3837
(lp2453
I0
aI0
aI0
asI3838
(lp2454
I0
aI0
aI0
asI3839
(lp2455
I0
aI0
aI0
asI3840
(lp2456
I0
aI0
aI0
asI3841
(lp2457
I0
aI0
aI0
asI3842
(lp2458
I0
aI0
aI2
asI3843
(lp2459
I0
aI1
aI0
asI3844
(lp2460
I0
aI0
aI0
asI3845
(lp2461
I0
aI0
aI0
asI3846
(lp2462
I0
aI1
aI0
asI3847
(lp2463
I2
aI0
aI0
asI3848
(lp2464
I0
aI1
aI0
asI3849
(lp2465
I1
aI0
aI0
asI3850
(lp2466
I1
aI1
aI0
asI3851
(lp2467
I0
aI0
aI0
asI3852
(lp2468
I0
aI0
aI0
asI3853
(lp2469
I0
aI0
aI0
asI3854
(lp2470
I0
aI0
aI1
asI3855
(lp2471
I1
aI0
aI5
asI3856
(lp2472
I0
aI0
aI0
asI3857
(lp2473
I0
aI1
aI0
asI3858
(lp2474
I0
aI0
aI0
asI3859
(lp2475
I0
aI0
aI1
asI3860
(lp2476
I0
aI0
aI0
asI3861
(lp2477
I0
aI0
aI2
asI3862
(lp2478
I0
aI0
aI0
asI3863
(lp2479
I0
aI0
aI0
asI3864
(lp2480
I0
aI0
aI0
asI3865
(lp2481
I1
aI0
aI0
asI3866
(lp2482
I0
aI0
aI0
asI3867
(lp2483
I0
aI0
aI0
asI3868
(lp2484
I0
aI0
aI0
asI3869
(lp2485
I2
aI0
aI0
asI3870
(lp2486
I0
aI0
aI0
asI3871
(lp2487
I1
aI0
aI0
asI3872
(lp2488
I0
aI0
aI0
asI3873
(lp2489
I1
aI0
aI0
asI3874
(lp2490
I1
aI0
aI0
asI3875
(lp2491
I1
aI0
aI0
asI3876
(lp2492
I0
aI0
aI0
asI3877
(lp2493
I0
aI0
aI0
asI3878
(lp2494
I0
aI0
aI0
asI3879
(lp2495
I0
aI0
aI0
asI3880
(lp2496
I0
aI0
aI0
asI3881
(lp2497
I0
aI0
aI0
asI3882
(lp2498
I0
aI0
aI0
asI3883
(lp2499
I0
aI0
aI0
asI3884
(lp2500
I1
aI0
aI0
asI3885
(lp2501
I0
aI0
aI0
asI3886
(lp2502
I1
aI0
aI0
asI3887
(lp2503
I1
aI0
aI0
asI3888
(lp2504
I1
aI0
aI0
asI3889
(lp2505
I0
aI0
aI0
asI3890
(lp2506
I0
aI0
aI0
asI3891
(lp2507
I0
aI0
aI0
asI3892
(lp2508
I2
aI2
aI0
asI3893
(lp2509
I0
aI0
aI0
asI3894
(lp2510
I0
aI0
aI0
asI3895
(lp2511
I0
aI0
aI0
asI3896
(lp2512
I0
aI0
aI0
asI3897
(lp2513
I0
aI0
aI0
asI3898
(lp2514
I1
aI1
aI0
asI3899
(lp2515
I1
aI0
aI0
asI3900
(lp2516
I0
aI0
aI0
asI3901
(lp2517
I0
aI0
aI0
asI3902
(lp2518
I0
aI0
aI0
asI3903
(lp2519
I0
aI0
aI0
asI3904
(lp2520
I0
aI0
aI0
asI3905
(lp2521
I0
aI0
aI0
asI3906
(lp2522
I0
aI0
aI0
asI3907
(lp2523
I0
aI0
aI0
asI3908
(lp2524
I0
aI0
aI0
asI3909
(lp2525
I0
aI0
aI0
asI3910
(lp2526
I1
aI0
aI0
asI3911
(lp2527
I0
aI15
aI1
asI3912
(lp2528
I0
aI0
aI0
asI3913
(lp2529
I1
aI1
aI0
asI3914
(lp2530
I2
aI0
aI0
asI3915
(lp2531
I0
aI0
aI0
asI3916
(lp2532
I1
aI0
aI0
asI3917
(lp2533
I0
aI0
aI0
asI3918
(lp2534
I1
aI0
aI0
asI3919
(lp2535
I0
aI0
aI0
asI3920
(lp2536
I0
aI0
aI0
asI3921
(lp2537
I0
aI0
aI0
asI3922
(lp2538
I1
aI0
aI0
asI3923
(lp2539
I0
aI0
aI0
asI3924
(lp2540
I1
aI0
aI0
asI3925
(lp2541
I1
aI0
aI0
asI3926
(lp2542
I0
aI0
aI0
asI3927
(lp2543
I1
aI1
aI0
asI3928
(lp2544
I0
aI0
aI0
asI3929
(lp2545
I1
aI0
aI0
asI3930
(lp2546
I0
aI0
aI0
asI3931
(lp2547
I0
aI0
aI0
asI3932
(lp2548
I0
aI0
aI0
asI3933
(lp2549
I0
aI0
aI0
asI3934
(lp2550
I0
aI0
aI0
asI3935
(lp2551
I0
aI0
aI0
asI3936
(lp2552
I0
aI0
aI0
asI3937
(lp2553
I1
aI0
aI2
asI3938
(lp2554
I1
aI0
aI1
asI3939
(lp2555
I2
aI0
aI0
asI3940
(lp2556
I0
aI0
aI0
asI3941
(lp2557
I1
aI0
aI1
asI3942
(lp2558
I1
aI1
aI0
asI3943
(lp2559
I1
aI2
aI2
asI3944
(lp2560
I1
aI0
aI0
asI3945
(lp2561
I0
aI0
aI0
asI3946
(lp2562
I0
aI0
aI0
asI3947
(lp2563
I0
aI0
aI0
asI3948
(lp2564
I1
aI0
aI0
asI3949
(lp2565
I2
aI0
aI0
asI3950
(lp2566
I0
aI0
aI0
asI3951
(lp2567
I0
aI0
aI0
asI3952
(lp2568
I0
aI1
aI0
asI3953
(lp2569
I0
aI0
aI0
asI3954
(lp2570
I0
aI0
aI0
asI3955
(lp2571
I1
aI1
aI2
asI3956
(lp2572
I0
aI0
aI0
asI3957
(lp2573
I2
aI0
aI0
asI3958
(lp2574
I2
aI0
aI3
asI3959
(lp2575
I0
aI0
aI1
asI3960
(lp2576
I0
aI1
aI0
asI3961
(lp2577
I0
aI0
aI0
asI3962
(lp2578
I0
aI0
aI3
asI3963
(lp2579
I0
aI0
aI3
asI3964
(lp2580
I0
aI0
aI0
asI3965
(lp2581
I1
aI0
aI0
asI3966
(lp2582
I0
aI0
aI0
asI3967
(lp2583
I0
aI0
aI0
asI3968
(lp2584
I1
aI0
aI0
asI3969
(lp2585
I1
aI0
aI0
asI3970
(lp2586
I0
aI0
aI0
asI3971
(lp2587
I0
aI0
aI0
asI3972
(lp2588
I0
aI0
aI0
asI3973
(lp2589
I0
aI0
aI0
asI3974
(lp2590
I0
aI1
aI0
asI3975
(lp2591
I0
aI0
aI0
asI3976
(lp2592
I1
aI0
aI0
asI3977
(lp2593
I0
aI4
aI0
asI3978
(lp2594
I0
aI0
aI0
asI3979
(lp2595
I0
aI0
aI0
asI3980
(lp2596
I1
aI0
aI0
asI3981
(lp2597
I0
aI0
aI0
asI3982
(lp2598
I0
aI0
aI0
asI3983
(lp2599
I5
aI3
aI1
asI3984
(lp2600
I1
aI0
aI0
asI3985
(lp2601
I0
aI0
aI3
asI3986
(lp2602
I0
aI0
aI0
asI3987
(lp2603
I1
aI0
aI0
asI3988
(lp2604
I1
aI0
aI0
asI3989
(lp2605
I0
aI0
aI0
asI3990
(lp2606
I0
aI0
aI0
asI3991
(lp2607
I3
aI0
aI0
asI3992
(lp2608
I1
aI0
aI0
asI3993
(lp2609
I0
aI0
aI0
asI3994
(lp2610
I1
aI0
aI0
asI3995
(lp2611
I0
aI0
aI0
asI3996
(lp2612
I0
aI0
aI0
asI3997
(lp2613
I0
aI0
aI0
asI3998
(lp2614
I1
aI0
aI0
asI3999
(lp2615
I0
aI0
aI0
asI4000
(lp2616
I1
aI0
aI0
asI4001
(lp2617
I0
aI0
aI0
asI4002
(lp2618
I1
aI0
aI0
asI4003
(lp2619
I0
aI0
aI1
asI4004
(lp2620
I0
aI0
aI0
asI4005
(lp2621
I1
aI0
aI0
asI4006
(lp2622
I0
aI0
aI0
asI4007
(lp2623
I1
aI0
aI0
asI4008
(lp2624
I0
aI0
aI0
asI4009
(lp2625
I0
aI0
aI0
asI4010
(lp2626
I0
aI0
aI0
asI4011
(lp2627
I0
aI0
aI0
asI4012
(lp2628
I0
aI0
aI0
asI4013
(lp2629
I0
aI0
aI1
asI4014
(lp2630
I1
aI0
aI0
asI4015
(lp2631
I0
aI0
aI0
asI4016
(lp2632
I0
aI0
aI0
asI4017
(lp2633
I0
aI0
aI0
asI4018
(lp2634
I0
aI0
aI0
asI4019
(lp2635
I0
aI0
aI1
asI4020
(lp2636
I0
aI0
aI0
asI4021
(lp2637
I0
aI0
aI0
asI4022
(lp2638
I0
aI0
aI0
asI4023
(lp2639
I0
aI0
aI0
asI4024
(lp2640
I0
aI0
aI2
asI4025
(lp2641
I0
aI0
aI0
asI4026
(lp2642
I1
aI0
aI0
asI4027
(lp2643
I1
aI0
aI0
asI4028
(lp2644
I0
aI0
aI0
asI4029
(lp2645
I1
aI0
aI0
asI4030
(lp2646
I0
aI0
aI0
asI4031
(lp2647
I0
aI0
aI0
asI4032
(lp2648
I0
aI0
aI0
asI4033
(lp2649
I0
aI0
aI0
asI4034
(lp2650
I0
aI0
aI0
asI4035
(lp2651
I1
aI0
aI0
asI4036
(lp2652
I1
aI0
aI0
asI4037
(lp2653
I1
aI0
aI2
asI4038
(lp2654
I0
aI0
aI0
asI4039
(lp2655
I0
aI0
aI0
asI4040
(lp2656
I0
aI0
aI0
asI4041
(lp2657
I0
aI0
aI1
asI4042
(lp2658
I0
aI0
aI0
asI4043
(lp2659
I0
aI1
aI0
asI4044
(lp2660
I1
aI0
aI0
asI4046
(lp2661
I0
aI0
aI0
asI4047
(lp2662
I0
aI0
aI0
asI4048
(lp2663
I0
aI0
aI0
asI4049
(lp2664
I1
aI1
aI0
asI4050
(lp2665
I0
aI0
aI0
asI4051
(lp2666
I0
aI0
aI0
asI4052
(lp2667
I0
aI0
aI0
asI4053
(lp2668
I0
aI0
aI0
asI4054
(lp2669
I0
aI0
aI0
asI4055
(lp2670
I1
aI0
aI0
asI4056
(lp2671
I2
aI0
aI0
asI4057
(lp2672
I0
aI0
aI2
asI4058
(lp2673
I0
aI0
aI0
asI4059
(lp2674
I0
aI0
aI0
asI4061
(lp2675
I0
aI0
aI0
asI4062
(lp2676
I0
aI1
aI0
asI4063
(lp2677
I2
aI1
aI0
asI4064
(lp2678
I0
aI0
aI0
asI4065
(lp2679
I0
aI0
aI0
asI4066
(lp2680
I1
aI0
aI0
asI4067
(lp2681
I0
aI0
aI0
asI4068
(lp2682
I0
aI0
aI0
asI4069
(lp2683
I0
aI0
aI0
asI4070
(lp2684
I1
aI0
aI0
asI4071
(lp2685
I1
aI0
aI0
asI4072
(lp2686
I1
aI0
aI0
asI4073
(lp2687
I0
aI0
aI0
asI4074
(lp2688
I0
aI0
aI0
asI4075
(lp2689
I1
aI0
aI0
asI4076
(lp2690
I1
aI0
aI0
asI4077
(lp2691
I0
aI0
aI0
asI4078
(lp2692
I0
aI0
aI0
asI4079
(lp2693
I0
aI0
aI0
asI4080
(lp2694
I0
aI0
aI0
asI4081
(lp2695
I0
aI0
aI0
asI4082
(lp2696
I1
aI2
aI0
asI4083
(lp2697
I0
aI0
aI0
asI4084
(lp2698
I0
aI0
aI0
asI4085
(lp2699
I0
aI0
aI0
asI4086
(lp2700
I1
aI1
aI0
asI4087
(lp2701
I0
aI0
aI0
asI4088
(lp2702
I0
aI0
aI0
asI4089
(lp2703
I0
aI0
aI0
asI4090
(lp2704
I0
aI0
aI0
asI4091
(lp2705
I0
aI0
aI0
asI4092
(lp2706
I1
aI0
aI0
asI4093
(lp2707
I0
aI0
aI0
asI4094
(lp2708
I1
aI0
aI0
asI4095
(lp2709
I1
aI0
aI0
asI4096
(lp2710
I0
aI0
aI0
asI4097
(lp2711
I0
aI1
aI0
asI4098
(lp2712
I1
aI0
aI0
asI4099
(lp2713
I1
aI1
aI0
asI4100
(lp2714
I0
aI0
aI2
asI4101
(lp2715
I0
aI0
aI0
asI4102
(lp2716
I0
aI0
aI0
asI4103
(lp2717
I1
aI0
aI0
asI4104
(lp2718
I1
aI0
aI0
asI4105
(lp2719
I1
aI0
aI0
asI4106
(lp2720
I0
aI0
aI0
asI4107
(lp2721
I2
aI0
aI0
asI4108
(lp2722
I0
aI0
aI2
asI4109
(lp2723
I0
aI0
aI0
asI4110
(lp2724
I0
aI0
aI0
asI4111
(lp2725
I2
aI0
aI0
asI4112
(lp2726
I1
aI0
aI0
asI4113
(lp2727
I0
aI0
aI0
asI4114
(lp2728
I0
aI0
aI0
asI4115
(lp2729
I0
aI0
aI0
asI4116
(lp2730
I1
aI0
aI0
asI4117
(lp2731
I1
aI0
aI0
asI4118
(lp2732
I0
aI1
aI0
asI4119
(lp2733
I0
aI0
aI0
asI4120
(lp2734
I1
aI0
aI0
asI4121
(lp2735
I1
aI0
aI0
asI4122
(lp2736
I0
aI0
aI3
asI4123
(lp2737
I1
aI0
aI0
asI4124
(lp2738
I0
aI1
aI0
asI4125
(lp2739
I1
aI0
aI0
asI4126
(lp2740
I0
aI0
aI0
asI4127
(lp2741
I0
aI0
aI0
asI4128
(lp2742
I1
aI3
aI0
asI4129
(lp2743
I0
aI0
aI0
asI4130
(lp2744
I0
aI0
aI0
asI4131
(lp2745
I0
aI0
aI0
asI4132
(lp2746
I1
aI0
aI0
asI4133
(lp2747
I0
aI0
aI0
asI4134
(lp2748
I1
aI0
aI0
asI4135
(lp2749
I1
aI0
aI0
asI4136
(lp2750
I0
aI0
aI0
asI4137
(lp2751
I0
aI0
aI0
asI4138
(lp2752
I1
aI0
aI0
asI4139
(lp2753
I1
aI0
aI0
asI4140
(lp2754
I0
aI0
aI0
asI4141
(lp2755
I0
aI0
aI0
asI4142
(lp2756
I0
aI0
aI0
asI4143
(lp2757
I0
aI0
aI0
asI4144
(lp2758
I0
aI0
aI0
asI4145
(lp2759
I0
aI0
aI2
asI4146
(lp2760
I1
aI0
aI0
asI4147
(lp2761
I0
aI0
aI0
asI4148
(lp2762
I0
aI0
aI0
asI4149
(lp2763
I0
aI0
aI0
asI4150
(lp2764
I1
aI0
aI0
asI4151
(lp2765
I0
aI0
aI9
asI4152
(lp2766
I1
aI0
aI0
asI4153
(lp2767
I1
aI0
aI0
asI4154
(lp2768
I0
aI0
aI0
asI4155
(lp2769
I1
aI0
aI0
asI4156
(lp2770
I0
aI0
aI0
asI4157
(lp2771
I0
aI0
aI0
asI4158
(lp2772
I0
aI0
aI0
asI4159
(lp2773
I0
aI0
aI0
asI4160
(lp2774
I1
aI0
aI0
asI4161
(lp2775
I0
aI0
aI0
asI4162
(lp2776
I0
aI0
aI0
asI4163
(lp2777
I0
aI0
aI0
asI4164
(lp2778
I0
aI0
aI0
asI4165
(lp2779
I0
aI0
aI0
asI4166
(lp2780
I0
aI2
aI0
asI4167
(lp2781
I0
aI0
aI0
asI4168
(lp2782
I0
aI0
aI0
asI4169
(lp2783
I1
aI1
aI0
asI4170
(lp2784
I0
aI0
aI0
asI4171
(lp2785
I0
aI0
aI0
asI4172
(lp2786
I0
aI0
aI0
asI4173
(lp2787
I0
aI0
aI0
asI4174
(lp2788
I1
aI0
aI0
asI4175
(lp2789
I1
aI0
aI0
asI4176
(lp2790
I0
aI0
aI0
asI4177
(lp2791
I1
aI0
aI0
asI4178
(lp2792
I0
aI0
aI0
asI4179
(lp2793
I0
aI0
aI0
asI4180
(lp2794
I1
aI0
aI0
asI4181
(lp2795
I1
aI0
aI0
asI4182
(lp2796
I0
aI0
aI0
asI4183
(lp2797
I0
aI0
aI0
asI4185
(lp2798
I15
aI11
aI96
asI4186
(lp2799
I0
aI0
aI0
asI4187
(lp2800
I1
aI1
aI0
asI4188
(lp2801
I0
aI3
aI0
asI4189
(lp2802
I1
aI0
aI0
asI4190
(lp2803
I1
aI0
aI0
asI4191
(lp2804
I0
aI0
aI0
asI4192
(lp2805
I1
aI0
aI3
asI4193
(lp2806
I1
aI2
aI0
asI4194
(lp2807
I0
aI0
aI0
asI4195
(lp2808
I0
aI0
aI0
asI4197
(lp2809
I0
aI0
aI0
asI4198
(lp2810
I1
aI0
aI0
asI4199
(lp2811
I1
aI1
aI0
asI4200
(lp2812
I1
aI0
aI0
asI4201
(lp2813
I0
aI0
aI0
asI4202
(lp2814
I0
aI0
aI0
asI4203
(lp2815
I0
aI0
aI0
asI4204
(lp2816
I1
aI0
aI0
asI4205
(lp2817
I0
aI0
aI0
asI4206
(lp2818
I0
aI0
aI0
asI4207
(lp2819
I0
aI0
aI0
asI4208
(lp2820
I0
aI3
aI0
asI4209
(lp2821
I0
aI0
aI2
asI4210
(lp2822
I0
aI0
aI0
asI4211
(lp2823
I0
aI0
aI0
asI4212
(lp2824
I0
aI0
aI0
asI4213
(lp2825
I0
aI0
aI0
asI4214
(lp2826
I0
aI0
aI0
asI4215
(lp2827
I0
aI0
aI0
asI4216
(lp2828
I0
aI0
aI0
asI4217
(lp2829
I0
aI0
aI0
asI4218
(lp2830
I0
aI0
aI1
asI4219
(lp2831
I0
aI0
aI1
asI4220
(lp2832
I0
aI0
aI0
asI4221
(lp2833
I1
aI2
aI0
asI4222
(lp2834
I0
aI0
aI2
asI4223
(lp2835
I0
aI0
aI0
asI4224
(lp2836
I0
aI0
aI0
asI4225
(lp2837
I0
aI0
aI0
asI4226
(lp2838
I0
aI0
aI0
asI4227
(lp2839
I1
aI0
aI0
asI4228
(lp2840
I0
aI0
aI0
asI4229
(lp2841
I0
aI0
aI3
asI4230
(lp2842
I0
aI0
aI0
asI4231
(lp2843
I1
aI0
aI0
asI4232
(lp2844
I0
aI0
aI1
asI4233
(lp2845
I0
aI0
aI1
asI4234
(lp2846
I0
aI0
aI0
asI4235
(lp2847
I1
aI0
aI0
asI4236
(lp2848
I0
aI0
aI0
asI4237
(lp2849
I0
aI0
aI0
asI4238
(lp2850
I1
aI0
aI0
asI4239
(lp2851
I0
aI0
aI0
asI4240
(lp2852
I1
aI0
aI0
asI4241
(lp2853
I0
aI0
aI0
asI4242
(lp2854
I0
aI0
aI0
asI4243
(lp2855
I1
aI1
aI0
asI4244
(lp2856
I0
aI1
aI0
asI4245
(lp2857
I0
aI0
aI0
asI4246
(lp2858
I0
aI0
aI0
asI4247
(lp2859
I1
aI0
aI0
asI4248
(lp2860
I0
aI0
aI0
asI4249
(lp2861
I1
aI0
aI0
asI4250
(lp2862
I0
aI0
aI0
asI4251
(lp2863
I0
aI0
aI1
asI4252
(lp2864
I0
aI0
aI0
asI4253
(lp2865
I1
aI0
aI0
asI4254
(lp2866
I0
aI0
aI0
asI4255
(lp2867
I0
aI0
aI0
asI4256
(lp2868
I0
aI0
aI0
asI4257
(lp2869
I1
aI0
aI0
asI4258
(lp2870
I0
aI0
aI1
asI4259
(lp2871
I0
aI0
aI0
asI4260
(lp2872
I0
aI1
aI0
asI4261
(lp2873
I1
aI1
aI0
asI4262
(lp2874
I0
aI0
aI3
asI4263
(lp2875
I0
aI0
aI0
asI4264
(lp2876
I0
aI0
aI0
asI4265
(lp2877
I0
aI0
aI0
asI4266
(lp2878
I0
aI2
aI0
asI4267
(lp2879
I1
aI1
aI0
asI4268
(lp2880
I0
aI0
aI0
asI4269
(lp2881
I0
aI0
aI0
asI4271
(lp2882
I0
aI0
aI1
asI4272
(lp2883
I0
aI0
aI0
asI4273
(lp2884
I1
aI0
aI0
asI4274
(lp2885
I0
aI0
aI0
asI4275
(lp2886
I0
aI0
aI0
asI4276
(lp2887
I1
aI1
aI0
asI4277
(lp2888
I0
aI0
aI0
asI4278
(lp2889
I1
aI0
aI0
asI4279
(lp2890
I0
aI0
aI0
asI4280
(lp2891
I1
aI1
aI0
asI4281
(lp2892
I0
aI0
aI0
asI4282
(lp2893
I0
aI0
aI0
asI4283
(lp2894
I0
aI0
aI0
asI4284
(lp2895
I0
aI0
aI0
asI4285
(lp2896
I0
aI0
aI0
asI4286
(lp2897
I0
aI0
aI0
asI4287
(lp2898
I0
aI0
aI0
asI4288
(lp2899
I0
aI0
aI0
asI4289
(lp2900
I0
aI1
aI0
asI4290
(lp2901
I0
aI0
aI0
asI4291
(lp2902
I0
aI0
aI0
asI4292
(lp2903
I1
aI0
aI0
asI4293
(lp2904
I0
aI0
aI0
asI4294
(lp2905
I0
aI0
aI0
asI4295
(lp2906
I0
aI0
aI0
asI4296
(lp2907
I0
aI0
aI0
asI4297
(lp2908
I0
aI0
aI0
asI4298
(lp2909
I1
aI0
aI1
asI4299
(lp2910
I0
aI0
aI0
asI4301
(lp2911
I0
aI0
aI0
asI4302
(lp2912
I1
aI0
aI0
asI4303
(lp2913
I0
aI0
aI0
asI4304
(lp2914
I0
aI0
aI0
asI4305
(lp2915
I0
aI1
aI0
asI4306
(lp2916
I2
aI0
aI0
asI4307
(lp2917
I0
aI1
aI0
asI4308
(lp2918
I0
aI0
aI0
asI4309
(lp2919
I0
aI0
aI0
asI4310
(lp2920
I0
aI0
aI0
asI4311
(lp2921
I0
aI0
aI0
asI4312
(lp2922
I0
aI0
aI0
asI4313
(lp2923
I0
aI0
aI0
asI4314
(lp2924
I1
aI0
aI0
asI4315
(lp2925
I0
aI0
aI0
asI4316
(lp2926
I0
aI0
aI0
asI4317
(lp2927
I0
aI0
aI0
asI4318
(lp2928
I1
aI0
aI0
asI4319
(lp2929
I2
aI0
aI0
asI4320
(lp2930
I0
aI0
aI0
asI4321
(lp2931
I0
aI0
aI3
asI4322
(lp2932
I1
aI0
aI0
asI4323
(lp2933
I0
aI0
aI0
asI4324
(lp2934
I0
aI0
aI0
asI4325
(lp2935
I0
aI0
aI0
asI4326
(lp2936
I0
aI0
aI0
asI4327
(lp2937
I0
aI0
aI0
asI4328
(lp2938
I0
aI0
aI0
asI4329
(lp2939
I0
aI0
aI0
asI4330
(lp2940
I0
aI0
aI0
asI4331
(lp2941
I0
aI0
aI1
asI4332
(lp2942
I0
aI0
aI1
asI4333
(lp2943
I0
aI0
aI0
asI4334
(lp2944
I0
aI0
aI0
asI4335
(lp2945
I0
aI0
aI0
asI4336
(lp2946
I0
aI1
aI0
asI4337
(lp2947
I0
aI0
aI0
asI4338
(lp2948
I0
aI0
aI0
asI4339
(lp2949
I0
aI0
aI0
asI4340
(lp2950
I0
aI0
aI0
asI4341
(lp2951
I0
aI0
aI0
asI4342
(lp2952
I0
aI0
aI0
asI4343
(lp2953
I0
aI0
aI0
asI4344
(lp2954
I1
aI0
aI0
asI4345
(lp2955
I1
aI0
aI0
asI4346
(lp2956
I0
aI0
aI0
asI4347
(lp2957
I0
aI0
aI0
asI4348
(lp2958
I0
aI0
aI0
asI4349
(lp2959
I0
aI0
aI2
asI4350
(lp2960
I0
aI1
aI0
asI4351
(lp2961
I0
aI0
aI1
asI4352
(lp2962
I0
aI0
aI0
asI4353
(lp2963
I0
aI0
aI0
asI4354
(lp2964
I0
aI0
aI0
asI4355
(lp2965
I0
aI0
aI0
asI4356
(lp2966
I0
aI0
aI0
asI4357
(lp2967
I0
aI0
aI0
asI4358
(lp2968
I0
aI0
aI0
asI4359
(lp2969
I0
aI0
aI0
asI4360
(lp2970
I0
aI0
aI0
asI4361
(lp2971
I0
aI0
aI0
asI4362
(lp2972
I0
aI0
aI0
asI4363
(lp2973
I0
aI0
aI0
asI4364
(lp2974
I0
aI0
aI0
asI4365
(lp2975
I0
aI0
aI0
asI4366
(lp2976
I1
aI0
aI0
asI4367
(lp2977
I0
aI0
aI0
asI4368
(lp2978
I0
aI0
aI0
asI4369
(lp2979
I0
aI0
aI0
asI4370
(lp2980
I0
aI0
aI0
asI4371
(lp2981
I1
aI0
aI0
asI4372
(lp2982
I0
aI0
aI0
asI4373
(lp2983
I0
aI0
aI0
asI4374
(lp2984
I0
aI0
aI0
asI4375
(lp2985
I0
aI0
aI0
asI4376
(lp2986
I1
aI0
aI0
asI4377
(lp2987
I0
aI0
aI0
asI4378
(lp2988
I1
aI0
aI0
asI4379
(lp2989
I1
aI0
aI0
asI4380
(lp2990
I0
aI0
aI0
asI4381
(lp2991
I0
aI0
aI0
asI4382
(lp2992
I0
aI0
aI0
asI4383
(lp2993
I0
aI0
aI0
asI4384
(lp2994
I1
aI1
aI0
asI4385
(lp2995
I0
aI0
aI0
asI4386
(lp2996
I1
aI0
aI0
asI4387
(lp2997
I3
aI2
aI0
asI4388
(lp2998
I0
aI0
aI0
asI4389
(lp2999
I1
aI0
aI0
asI4390
(lp3000
I0
aI0
aI0
asI4391
(lp3001
I0
aI0
aI0
asI4392
(lp3002
I0
aI0
aI6
asI4393
(lp3003
I0
aI0
aI0
asI4394
(lp3004
I0
aI0
aI0
asI4395
(lp3005
I1
aI0
aI0
asI4396
(lp3006
I0
aI1
aI0
asI4397
(lp3007
I0
aI2
aI0
asI4398
(lp3008
I0
aI0
aI0
asI4399
(lp3009
I1
aI0
aI0
asI4400
(lp3010
I0
aI0
aI0
asI4401
(lp3011
I0
aI0
aI0
asI4402
(lp3012
I1
aI1
aI0
asI4403
(lp3013
I0
aI0
aI0
asI4404
(lp3014
I0
aI0
aI0
asI4405
(lp3015
I0
aI0
aI0
asI4406
(lp3016
I1
aI0
aI0
asI4407
(lp3017
I0
aI0
aI0
asI4408
(lp3018
I0
aI0
aI0
asI4409
(lp3019
I0
aI0
aI0
asI4410
(lp3020
I0
aI0
aI0
asI4411
(lp3021
I1
aI0
aI0
asI4412
(lp3022
I0
aI0
aI0
asI4413
(lp3023
I0
aI0
aI0
asI4414
(lp3024
I0
aI0
aI2
asI4415
(lp3025
I0
aI0
aI0
asI4416
(lp3026
I0
aI0
aI0
asI4417
(lp3027
I0
aI0
aI0
asI4418
(lp3028
I1
aI1
aI0
asI4419
(lp3029
I0
aI0
aI0
asI4420
(lp3030
I1
aI0
aI0
asI4421
(lp3031
I1
aI0
aI0
asI4422
(lp3032
I0
aI1
aI0
asI4423
(lp3033
I0
aI1
aI1
asI4424
(lp3034
I0
aI0
aI0
asI4425
(lp3035
I0
aI0
aI0
asI4426
(lp3036
I0
aI1
aI0
asI4427
(lp3037
I0
aI0
aI0
asI4428
(lp3038
I0
aI0
aI0
asI4429
(lp3039
I2
aI0
aI0
asI4430
(lp3040
I0
aI0
aI0
asI4431
(lp3041
I0
aI0
aI0
asI4432
(lp3042
I0
aI0
aI0
asI4433
(lp3043
I0
aI0
aI1
asI4434
(lp3044
I0
aI0
aI0
asI4435
(lp3045
I0
aI0
aI0
asI4436
(lp3046
I0
aI0
aI1
asI4437
(lp3047
I0
aI1
aI0
asI4438
(lp3048
I1
aI0
aI0
asI4439
(lp3049
I0
aI2
aI0
asI4440
(lp3050
I3
aI0
aI0
asI4441
(lp3051
I0
aI0
aI0
asI4442
(lp3052
I0
aI2
aI0
asI4443
(lp3053
I0
aI0
aI0
asI4444
(lp3054
I0
aI0
aI0
asI4445
(lp3055
I0
aI0
aI0
asI4446
(lp3056
I0
aI0
aI0
asI4447
(lp3057
I0
aI0
aI0
asI4448
(lp3058
I0
aI0
aI0
asI4449
(lp3059
I0
aI0
aI0
asI4450
(lp3060
I0
aI0
aI0
asI4451
(lp3061
I1
aI0
aI0
asI4452
(lp3062
I0
aI0
aI1
asI4453
(lp3063
I0
aI0
aI0
asI4454
(lp3064
I0
aI0
aI0
asI4455
(lp3065
I0
aI0
aI0
asI4456
(lp3066
I0
aI0
aI0
asI4457
(lp3067
I0
aI0
aI0
asI4458
(lp3068
I0
aI0
aI0
asI4459
(lp3069
I1
aI0
aI0
asI4460
(lp3070
I0
aI1
aI3
asI4461
(lp3071
I0
aI0
aI0
asI4462
(lp3072
I0
aI0
aI0
asI4463
(lp3073
I0
aI0
aI0
asI4464
(lp3074
I0
aI0
aI0
asI4465
(lp3075
I0
aI0
aI0
asI4466
(lp3076
I1
aI0
aI0
asI4467
(lp3077
I0
aI0
aI0
asI4468
(lp3078
I1
aI0
aI0
asI4469
(lp3079
I1
aI0
aI0
asI4470
(lp3080
I0
aI0
aI0
asI4471
(lp3081
I0
aI0
aI0
asI4472
(lp3082
I1
aI0
aI0
asI4473
(lp3083
I0
aI0
aI0
asI4474
(lp3084
I0
aI0
aI0
asI4475
(lp3085
I1
aI0
aI0
asI4476
(lp3086
I0
aI1
aI0
asI4477
(lp3087
I0
aI0
aI0
asI4478
(lp3088
I1
aI0
aI0
asI4479
(lp3089
I0
aI0
aI0
asI4480
(lp3090
I0
aI0
aI0
asI4481
(lp3091
I0
aI0
aI0
asI4482
(lp3092
I0
aI0
aI3
asI4483
(lp3093
I0
aI0
aI0
asI4484
(lp3094
I0
aI0
aI0
asI4485
(lp3095
I0
aI0
aI0
asI4486
(lp3096
I1
aI0
aI0
asI4487
(lp3097
I0
aI0
aI0
asI4488
(lp3098
I1
aI0
aI0
asI4489
(lp3099
I0
aI0
aI0
asI4490
(lp3100
I5
aI2
aI1
asI4491
(lp3101
I0
aI0
aI0
asI4492
(lp3102
I2
aI0
aI0
asI4493
(lp3103
I0
aI0
aI0
asI4494
(lp3104
I1
aI0
aI0
asI4495
(lp3105
I0
aI0
aI0
asI4496
(lp3106
I0
aI0
aI0
asI4497
(lp3107
I0
aI0
aI0
asI4498
(lp3108
I1
aI1
aI0
asI4499
(lp3109
I0
aI0
aI0
asI4500
(lp3110
I0
aI0
aI0
asI4501
(lp3111
I0
aI0
aI2
asI4502
(lp3112
I2
aI5
aI42
asI4503
(lp3113
I0
aI0
aI0
asI4504
(lp3114
I0
aI0
aI0
asI4505
(lp3115
I1
aI1
aI0
asI4506
(lp3116
I1
aI0
aI0
asI4507
(lp3117
I0
aI0
aI0
asI4508
(lp3118
I1
aI0
aI0
asI4509
(lp3119
I0
aI0
aI0
asI4510
(lp3120
I0
aI0
aI0
asI4511
(lp3121
I0
aI0
aI0
asI4512
(lp3122
I0
aI0
aI0
asI4513
(lp3123
I1
aI0
aI0
asI4514
(lp3124
I0
aI0
aI0
asI4515
(lp3125
I1
aI0
aI0
asI4516
(lp3126
I0
aI0
aI0
asI4517
(lp3127
I1
aI0
aI0
asI4518
(lp3128
I0
aI0
aI0
asI4519
(lp3129
I0
aI0
aI0
asI4520
(lp3130
I0
aI0
aI0
asI4521
(lp3131
I0
aI0
aI0
asI4522
(lp3132
I0
aI0
aI0
asI4523
(lp3133
I1
aI0
aI0
asI4524
(lp3134
I1
aI0
aI0
asI4525
(lp3135
I0
aI1
aI0
asI4526
(lp3136
I0
aI0
aI2
asI4527
(lp3137
I1
aI0
aI0
asI4528
(lp3138
I0
aI0
aI0
asI4529
(lp3139
I0
aI0
aI0
asI4530
(lp3140
I0
aI0
aI0
asI4531
(lp3141
I1
aI28
aI4
asI4532
(lp3142
I1
aI1
aI0
asI4533
(lp3143
I0
aI0
aI0
asI4534
(lp3144
I2
aI0
aI0
asI4535
(lp3145
I1
aI0
aI0
asI4536
(lp3146
I0
aI0
aI1
asI4537
(lp3147
I0
aI1
aI0
asI4538
(lp3148
I0
aI0
aI0
asI4539
(lp3149
I0
aI0
aI0
asI4540
(lp3150
I1
aI0
aI0
asI4541
(lp3151
I1
aI0
aI0
asI4542
(lp3152
I0
aI0
aI0
asI4543
(lp3153
I0
aI0
aI0
asI4544
(lp3154
I0
aI0
aI0
asI4545
(lp3155
I0
aI0
aI0
asI4546
(lp3156
I0
aI0
aI0
asI4547
(lp3157
I0
aI0
aI0
asI4548
(lp3158
I1
aI0
aI0
asI4549
(lp3159
I0
aI0
aI0
asI4550
(lp3160
I0
aI1
aI1
asI4551
(lp3161
I0
aI3
aI0
asI4552
(lp3162
I0
aI0
aI0
asI4553
(lp3163
I1
aI0
aI0
asI4554
(lp3164
I0
aI1
aI0
asI4555
(lp3165
I0
aI0
aI0
asI4556
(lp3166
I0
aI2
aI0
asI4557
(lp3167
I0
aI0
aI0
asI4558
(lp3168
I1
aI0
aI0
asI4559
(lp3169
I0
aI0
aI0
asI4560
(lp3170
I0
aI0
aI0
asI4561
(lp3171
I0
aI0
aI0
asI4562
(lp3172
I1
aI0
aI0
asI4563
(lp3173
I0
aI0
aI0
asI4564
(lp3174
I0
aI0
aI0
asI4565
(lp3175
I0
aI0
aI0
asI4566
(lp3176
I3
aI2
aI0
asI4567
(lp3177
I0
aI0
aI0
asI4568
(lp3178
I0
aI0
aI0
asI4569
(lp3179
I0
aI0
aI0
asI4570
(lp3180
I1
aI0
aI1
asI4571
(lp3181
I0
aI0
aI0
asI4572
(lp3182
I0
aI0
aI0
asI4573
(lp3183
I0
aI0
aI0
asI4574
(lp3184
I0
aI0
aI2
asI4575
(lp3185
I0
aI0
aI3
asI4576
(lp3186
I1
aI0
aI0
asI4577
(lp3187
I2
aI1
aI0
asI4578
(lp3188
I1
aI0
aI0
asI4579
(lp3189
I0
aI0
aI0
asI4580
(lp3190
I0
aI0
aI0
asI4581
(lp3191
I1
aI0
aI0
asI4582
(lp3192
I0
aI0
aI0
asI4583
(lp3193
I1
aI0
aI0
asI4584
(lp3194
I1
aI6
aI12
asI4585
(lp3195
I0
aI0
aI0
asI4586
(lp3196
I0
aI0
aI3
asI4587
(lp3197
I1
aI0
aI0
asI4588
(lp3198
I0
aI0
aI0
asI4589
(lp3199
I0
aI0
aI0
asI4590
(lp3200
I0
aI0
aI1
asI4591
(lp3201
I0
aI2
aI0
asI4592
(lp3202
I0
aI0
aI0
asI4593
(lp3203
I1
aI0
aI0
asI4594
(lp3204
I0
aI0
aI0
asI4595
(lp3205
I0
aI0
aI0
asI4596
(lp3206
I0
aI0
aI0
asI4597
(lp3207
I1
aI0
aI0
asI4598
(lp3208
I0
aI0
aI0
asI4599
(lp3209
I0
aI0
aI0
asI4600
(lp3210
I1
aI0
aI0
asI4601
(lp3211
I1
aI0
aI0
asI4602
(lp3212
I0
aI3
aI0
asI4603
(lp3213
I0
aI0
aI0
asI4604
(lp3214
I0
aI0
aI0
asI4605
(lp3215
I0
aI1
aI0
asI4606
(lp3216
I0
aI0
aI0
asI4607
(lp3217
I0
aI0
aI0
asI4608
(lp3218
I0
aI0
aI0
asI4609
(lp3219
I0
aI0
aI0
asI4610
(lp3220
I0
aI0
aI2
asI4611
(lp3221
I0
aI0
aI0
asI4612
(lp3222
I0
aI0
aI0
asI4613
(lp3223
I1
aI0
aI0
asI4615
(lp3224
I0
aI0
aI0
asI4616
(lp3225
I1
aI0
aI0
asI4617
(lp3226
I1
aI1
aI0
asI4618
(lp3227
I0
aI0
aI0
asI4619
(lp3228
I0
aI0
aI0
asI4620
(lp3229
I0
aI0
aI0
asI4621
(lp3230
I1
aI0
aI0
asI4622
(lp3231
I0
aI0
aI0
asI4623
(lp3232
I0
aI0
aI0
asI4624
(lp3233
I0
aI0
aI0
asI4625
(lp3234
I0
aI0
aI0
asI4626
(lp3235
I0
aI0
aI0
asI4627
(lp3236
I0
aI0
aI0
asI4628
(lp3237
I0
aI0
aI0
asI4629
(lp3238
I0
aI0
aI0
asI4630
(lp3239
I0
aI0
aI0
asI4631
(lp3240
I0
aI0
aI0
asI4632
(lp3241
I0
aI0
aI0
asI4633
(lp3242
I0
aI0
aI0
asI4634
(lp3243
I1
aI1
aI0
asI4635
(lp3244
I0
aI0
aI0
asI4636
(lp3245
I0
aI0
aI0
asI4637
(lp3246
I1
aI1
aI0
asI4638
(lp3247
I1
aI0
aI0
asI4639
(lp3248
I0
aI0
aI0
asI4640
(lp3249
I1
aI0
aI0
asI4641
(lp3250
I0
aI0
aI0
asI4642
(lp3251
I0
aI0
aI0
asI4643
(lp3252
I0
aI0
aI1
asI4644
(lp3253
I1
aI0
aI0
asI4645
(lp3254
I0
aI0
aI1
asI4646
(lp3255
I1
aI1
aI11
asI4647
(lp3256
I1
aI0
aI0
asI4648
(lp3257
I0
aI0
aI0
asI4649
(lp3258
I0
aI0
aI0
asI4650
(lp3259
I0
aI0
aI0
asI4651
(lp3260
I0
aI1
aI0
asI4652
(lp3261
I0
aI0
aI0
asI4653
(lp3262
I0
aI0
aI0
asI4654
(lp3263
I0
aI0
aI0
asI4655
(lp3264
I0
aI0
aI0
asI4656
(lp3265
I0
aI0
aI0
asI4657
(lp3266
I0
aI0
aI0
asI4658
(lp3267
I0
aI0
aI0
asI4659
(lp3268
I0
aI0
aI0
asI4660
(lp3269
I0
aI0
aI0
asI4661
(lp3270
I1
aI0
aI0
asI4662
(lp3271
I0
aI0
aI0
asI4663
(lp3272
I1
aI0
aI0
asI4664
(lp3273
I1
aI0
aI0
asI4665
(lp3274
I0
aI0
aI1
asI4666
(lp3275
I0
aI0
aI0
asI4667
(lp3276
I1
aI0
aI0
asI4668
(lp3277
I1
aI1
aI0
asI4669
(lp3278
I0
aI0
aI3
asI4670
(lp3279
I0
aI0
aI0
asI4671
(lp3280
I0
aI0
aI0
asI4672
(lp3281
I0
aI0
aI0
asI4673
(lp3282
I0
aI0
aI0
asI4674
(lp3283
I0
aI0
aI0
asI4675
(lp3284
I0
aI0
aI0
asI4676
(lp3285
I1
aI0
aI0
asI4677
(lp3286
I0
aI1
aI0
asI4678
(lp3287
I0
aI0
aI0
asI4679
(lp3288
I1
aI0
aI0
asI4680
(lp3289
I0
aI0
aI0
asI4681
(lp3290
I0
aI0
aI0
asI4682
(lp3291
I0
aI0
aI0
asI4683
(lp3292
I0
aI0
aI1
asI4684
(lp3293
I0
aI1
aI0
asI4685
(lp3294
I0
aI0
aI0
asI4686
(lp3295
I0
aI1
aI0
asI4688
(lp3296
I0
aI0
aI11
asI4689
(lp3297
I0
aI1
aI0
asI4690
(lp3298
I0
aI0
aI0
asI4691
(lp3299
I0
aI0
aI0
asI4692
(lp3300
I0
aI1
aI0
asI4693
(lp3301
I0
aI0
aI0
asI4694
(lp3302
I0
aI0
aI0
asI4695
(lp3303
I0
aI0
aI0
asI4696
(lp3304
I0
aI0
aI0
asI4697
(lp3305
I1
aI0
aI0
asI4698
(lp3306
I0
aI0
aI0
asI4699
(lp3307
I0
aI0
aI0
asI4700
(lp3308
I0
aI0
aI0
asI4701
(lp3309
I1
aI0
aI0
asI4702
(lp3310
I0
aI1
aI0
asI4703
(lp3311
I0
aI1
aI5
asI4704
(lp3312
I1
aI0
aI0
asI4705
(lp3313
I1
aI0
aI0
asI4706
(lp3314
I0
aI1
aI0
asI4707
(lp3315
I0
aI0
aI0
asI4708
(lp3316
I1
aI0
aI0
asI4709
(lp3317
I0
aI0
aI1
asI4710
(lp3318
I0
aI7
aI8
asI4711
(lp3319
I0
aI0
aI0
asI4712
(lp3320
I0
aI0
aI0
asI4713
(lp3321
I1
aI4
aI0
asI4714
(lp3322
I0
aI0
aI0
asI4715
(lp3323
I1
aI0
aI0
asI4716
(lp3324
I0
aI0
aI0
asI4717
(lp3325
I1
aI0
aI0
asI4718
(lp3326
I0
aI0
aI0
asI4719
(lp3327
I0
aI0
aI0
asI4720
(lp3328
I0
aI0
aI0
asI4721
(lp3329
I0
aI0
aI0
asI4722
(lp3330
I0
aI0
aI0
asI4723
(lp3331
I0
aI0
aI0
asI4724
(lp3332
I0
aI0
aI0
asI4725
(lp3333
I0
aI0
aI0
asI4726
(lp3334
I0
aI0
aI0
asI4727
(lp3335
I0
aI0
aI1
asI4728
(lp3336
I0
aI0
aI0
asI4729
(lp3337
I0
aI0
aI0
asI4730
(lp3338
I1
aI0
aI0
asI4731
(lp3339
I0
aI0
aI1
asI4732
(lp3340
I1
aI0
aI0
asI4733
(lp3341
I0
aI0
aI0
asI4734
(lp3342
I0
aI0
aI0
asI4735
(lp3343
I0
aI0
aI0
asI4736
(lp3344
I0
aI0
aI0
asI4737
(lp3345
I1
aI0
aI0
asI4738
(lp3346
I0
aI0
aI0
asI4739
(lp3347
I2
aI0
aI0
asI4740
(lp3348
I0
aI0
aI0
asI4741
(lp3349
I0
aI0
aI0
asI4742
(lp3350
I0
aI0
aI0
asI4743
(lp3351
I0
aI0
aI4
asI4744
(lp3352
I1
aI0
aI0
asI4745
(lp3353
I1
aI0
aI0
asI4746
(lp3354
I0
aI0
aI0
asI4747
(lp3355
I0
aI0
aI1
asI4748
(lp3356
I0
aI0
aI0
asI4749
(lp3357
I0
aI0
aI0
asI4750
(lp3358
I0
aI0
aI0
asI4751
(lp3359
I3
aI0
aI0
asI4752
(lp3360
I0
aI0
aI0
asI4753
(lp3361
I0
aI1
aI0
asI4754
(lp3362
I0
aI0
aI0
asI4755
(lp3363
I0
aI0
aI0
asI4756
(lp3364
I0
aI0
aI0
asI4757
(lp3365
I1
aI0
aI0
asI4758
(lp3366
I1
aI0
aI0
asI4759
(lp3367
I0
aI0
aI0
asI4760
(lp3368
I0
aI0
aI0
asI4761
(lp3369
I0
aI0
aI2
asI4762
(lp3370
I0
aI1
aI0
asI4763
(lp3371
I0
aI0
aI0
asI4764
(lp3372
I0
aI0
aI0
asI4765
(lp3373
I1
aI0
aI0
asI4766
(lp3374
I0
aI0
aI0
asI4767
(lp3375
I2
aI1
aI0
asI4768
(lp3376
I0
aI0
aI0
asI4769
(lp3377
I0
aI0
aI0
asI4770
(lp3378
I0
aI0
aI0
asI4771
(lp3379
I0
aI0
aI0
asI4772
(lp3380
I0
aI0
aI0
asI4773
(lp3381
I0
aI0
aI0
asI4774
(lp3382
I0
aI0
aI0
asI4775
(lp3383
I0
aI1
aI0
asI4776
(lp3384
I0
aI0
aI0
asI4777
(lp3385
I0
aI0
aI0
asI4778
(lp3386
I0
aI0
aI0
asI4779
(lp3387
I2
aI0
aI0
asI4780
(lp3388
I0
aI0
aI0
asI4781
(lp3389
I0
aI0
aI0
asI4782
(lp3390
I0
aI0
aI0
asI4783
(lp3391
I1
aI0
aI0
asI4784
(lp3392
I0
aI2
aI0
asI4785
(lp3393
I0
aI0
aI0
asI4786
(lp3394
I0
aI0
aI0
asI4787
(lp3395
I0
aI0
aI0
asI4788
(lp3396
I1
aI0
aI0
asI4789
(lp3397
I0
aI0
aI0
asI4791
(lp3398
I0
aI0
aI0
asI4792
(lp3399
I0
aI0
aI0
asI4793
(lp3400
I0
aI0
aI5
asI4794
(lp3401
I0
aI0
aI0
asI4795
(lp3402
I0
aI0
aI0
asI4796
(lp3403
I0
aI0
aI0
asI4797
(lp3404
I1
aI0
aI0
asI4798
(lp3405
I0
aI0
aI0
asI4799
(lp3406
I0
aI0
aI0
asI4800
(lp3407
I1
aI4
aI0
asI4801
(lp3408
I0
aI1
aI0
asI4802
(lp3409
I0
aI0
aI0
asI4803
(lp3410
I1
aI0
aI0
asI4804
(lp3411
I1
aI0
aI0
asI4805
(lp3412
I0
aI0
aI0
asI4806
(lp3413
I4
aI0
aI0
asI4807
(lp3414
I0
aI0
aI0
asI4808
(lp3415
I1
aI0
aI0
asI4809
(lp3416
I0
aI0
aI0
asI4810
(lp3417
I0
aI0
aI0
asI4811
(lp3418
I1
aI0
aI0
asI4812
(lp3419
I0
aI0
aI0
asI4813
(lp3420
I0
aI0
aI0
asI4814
(lp3421
I0
aI0
aI0
asI4815
(lp3422
I1
aI0
aI0
asI4816
(lp3423
I0
aI1
aI0
asI4817
(lp3424
I0
aI0
aI0
asI4818
(lp3425
I0
aI0
aI0
asI4819
(lp3426
I1
aI0
aI0
asI4820
(lp3427
I0
aI0
aI0
asI4821
(lp3428
I1
aI0
aI0
asI4822
(lp3429
I0
aI0
aI0
asI4823
(lp3430
I1
aI0
aI0
asI4824
(lp3431
I0
aI0
aI0
asI4825
(lp3432
I0
aI0
aI0
asI4826
(lp3433
I1
aI0
aI0
asI4827
(lp3434
I0
aI0
aI0
asI4828
(lp3435
I1
aI2
aI0
asI4829
(lp3436
I0
aI1
aI0
asI4830
(lp3437
I0
aI0
aI0
asI4831
(lp3438
I0
aI0
aI0
asI4832
(lp3439
I1
aI0
aI0
asI4833
(lp3440
I1
aI1
aI0
asI4834
(lp3441
I1
aI0
aI0
asI4835
(lp3442
I0
aI0
aI0
asI4836
(lp3443
I1
aI0
aI0
asI4837
(lp3444
I0
aI0
aI0
asI4838
(lp3445
I0
aI0
aI0
asI4839
(lp3446
I0
aI0
aI0
asI4840
(lp3447
I0
aI0
aI0
asI4841
(lp3448
I0
aI0
aI0
asI4842
(lp3449
I1
aI3
aI0
asI4843
(lp3450
I0
aI0
aI1
asI4844
(lp3451
I2
aI0
aI0
asI4845
(lp3452
I1
aI0
aI0
asI4846
(lp3453
I0
aI0
aI0
asI4847
(lp3454
I2
aI1
aI12
asI4848
(lp3455
I0
aI0
aI0
asI4849
(lp3456
I1
aI1
aI1
asI4850
(lp3457
I0
aI0
aI0
asI4851
(lp3458
I1
aI0
aI0
asI4852
(lp3459
I0
aI0
aI0
asI4853
(lp3460
I0
aI0
aI0
asI4854
(lp3461
I1
aI0
aI0
asI4855
(lp3462
I0
aI0
aI0
asI4856
(lp3463
I0
aI0
aI2
asI4857
(lp3464
I0
aI0
aI0
asI4858
(lp3465
I0
aI0
aI0
asI4859
(lp3466
I0
aI0
aI0
asI4860
(lp3467
I0
aI0
aI0
asI4861
(lp3468
I0
aI1
aI1
asI4862
(lp3469
I1
aI0
aI0
asI4863
(lp3470
I0
aI0
aI0
asI4864
(lp3471
I1
aI1
aI0
asI4865
(lp3472
I0
aI0
aI0
asI4866
(lp3473
I0
aI0
aI0
asI4867
(lp3474
I0
aI1
aI0
asI4868
(lp3475
I0
aI0
aI0
asI4869
(lp3476
I0
aI0
aI0
asI4870
(lp3477
I0
aI1
aI0
asI4871
(lp3478
I0
aI1
aI0
asI4872
(lp3479
I0
aI0
aI0
asI4873
(lp3480
I1
aI0
aI0
asI4874
(lp3481
I0
aI0
aI0
asI4875
(lp3482
I0
aI0
aI0
asI4876
(lp3483
I0
aI0
aI0
asI4877
(lp3484
I0
aI0
aI2
asI4878
(lp3485
I0
aI0
aI0
asI4879
(lp3486
I1
aI0
aI0
asI4880
(lp3487
I0
aI0
aI0
asI4881
(lp3488
I0
aI0
aI0
asI4882
(lp3489
I0
aI0
aI0
asI4883
(lp3490
I0
aI0
aI0
asI4884
(lp3491
I2
aI0
aI0
asI4885
(lp3492
I1
aI0
aI0
asI4886
(lp3493
I0
aI0
aI0
asI4887
(lp3494
I0
aI0
aI0
asI4888
(lp3495
I0
aI0
aI0
asI4889
(lp3496
I0
aI0
aI0
asI4890
(lp3497
I1
aI0
aI0
asI4891
(lp3498
I0
aI0
aI0
asI4892
(lp3499
I1
aI0
aI0
asI4893
(lp3500
I0
aI0
aI0
asI4894
(lp3501
I0
aI0
aI0
asI4895
(lp3502
I0
aI0
aI0
asI4896
(lp3503
I0
aI0
aI0
asI4897
(lp3504
I0
aI0
aI0
asI4898
(lp3505
I0
aI0
aI0
asI4899
(lp3506
I0
aI0
aI0
asI4900
(lp3507
I0
aI0
aI0
asI4901
(lp3508
I1
aI0
aI0
asI4902
(lp3509
I1
aI1
aI0
asI4903
(lp3510
I0
aI0
aI0
asI4904
(lp3511
I0
aI0
aI0
asI4905
(lp3512
I0
aI0
aI0
asI4906
(lp3513
I1
aI0
aI0
asI4907
(lp3514
I0
aI0
aI0
asI4908
(lp3515
I1
aI0
aI0
asI4909
(lp3516
I0
aI0
aI0
asI4910
(lp3517
I0
aI0
aI0
asI4911
(lp3518
I0
aI0
aI0
asI4912
(lp3519
I0
aI0
aI0
asI4913
(lp3520
I0
aI0
aI0
asI4914
(lp3521
I0
aI0
aI0
asI4915
(lp3522
I0
aI0
aI0
asI4916
(lp3523
I1
aI1
aI0
asI4917
(lp3524
I1
aI0
aI0
asI4918
(lp3525
I0
aI0
aI0
asI4919
(lp3526
I1
aI0
aI0
asI4920
(lp3527
I0
aI0
aI0
asI4921
(lp3528
I1
aI0
aI0
asI4922
(lp3529
I1
aI0
aI0
asI4923
(lp3530
I0
aI1
aI0
asI4924
(lp3531
I0
aI0
aI0
asI4925
(lp3532
I0
aI0
aI0
asI4926
(lp3533
I0
aI0
aI0
asI4927
(lp3534
I0
aI0
aI0
asI4928
(lp3535
I1
aI0
aI0
asI4929
(lp3536
I0
aI0
aI0
asI4930
(lp3537
I1
aI0
aI0
asI4931
(lp3538
I0
aI0
aI0
asI4932
(lp3539
I0
aI0
aI0
asI4933
(lp3540
I0
aI0
aI1
asI4934
(lp3541
I1
aI0
aI0
asI4935
(lp3542
I0
aI0
aI0
asI4936
(lp3543
I1
aI0
aI0
asI4937
(lp3544
I0
aI1
aI0
asI4938
(lp3545
I0
aI0
aI0
asI4939
(lp3546
I0
aI0
aI0
asI4940
(lp3547
I0
aI0
aI0
asI4941
(lp3548
I1
aI0
aI0
asI4942
(lp3549
I0
aI0
aI0
asI4943
(lp3550
I0
aI4
aI4
asI4944
(lp3551
I0
aI0
aI1
asI4945
(lp3552
I1
aI0
aI0
asI4946
(lp3553
I1
aI0
aI0
asI4947
(lp3554
I0
aI0
aI0
asI4948
(lp3555
I1
aI0
aI0
asI4949
(lp3556
I0
aI1
aI0
asI4950
(lp3557
I0
aI0
aI0
asI4951
(lp3558
I0
aI0
aI0
asI4952
(lp3559
I1
aI0
aI0
asI4953
(lp3560
I0
aI0
aI0
asI4954
(lp3561
I0
aI0
aI0
asI4955
(lp3562
I0
aI0
aI2
asI4956
(lp3563
I1
aI0
aI0
asI4957
(lp3564
I1
aI0
aI0
asI4958
(lp3565
I0
aI0
aI0
asI4959
(lp3566
I0
aI0
aI0
asI4960
(lp3567
I0
aI0
aI0
asI4961
(lp3568
I0
aI0
aI0
asI4962
(lp3569
I0
aI0
aI0
asI4963
(lp3570
I2
aI0
aI0
asI4964
(lp3571
I0
aI0
aI0
asI4965
(lp3572
I0
aI1
aI0
asI4966
(lp3573
I0
aI0
aI0
asI4967
(lp3574
I1
aI0
aI0
asI4968
(lp3575
I0
aI0
aI0
asI4969
(lp3576
I1
aI0
aI0
asI4970
(lp3577
I1
aI0
aI0
asI4971
(lp3578
I0
aI1
aI0
asI4972
(lp3579
I0
aI0
aI0
asI4973
(lp3580
I2
aI0
aI0
asI4974
(lp3581
I1
aI0
aI0
asI4975
(lp3582
I0
aI1
aI0
asI4976
(lp3583
I1
aI0
aI0
asI4977
(lp3584
I0
aI1
aI0
asI4978
(lp3585
I0
aI0
aI0
asI4979
(lp3586
I0
aI0
aI0
asI4980
(lp3587
I0
aI0
aI0
asI4981
(lp3588
I1
aI0
aI1
asI4982
(lp3589
I0
aI0
aI0
asI4983
(lp3590
I0
aI0
aI0
asI4984
(lp3591
I3
aI0
aI0
asI4985
(lp3592
I0
aI1
aI1
asI4986
(lp3593
I0
aI0
aI0
asI4987
(lp3594
I0
aI0
aI0
asI4988
(lp3595
I0
aI0
aI0
asI4989
(lp3596
I0
aI0
aI2
asI4990
(lp3597
I0
aI0
aI0
asI4991
(lp3598
I0
aI0
aI0
asI4992
(lp3599
I1
aI0
aI0
asI4993
(lp3600
I0
aI0
aI0
asI4994
(lp3601
I0
aI0
aI0
asI4995
(lp3602
I0
aI0
aI0
asI4996
(lp3603
I0
aI0
aI0
asI4997
(lp3604
I0
aI0
aI1
asI4998
(lp3605
I2
aI0
aI0
asI4999
(lp3606
I0
aI0
aI0
asI5000
(lp3607
I0
aI0
aI0
asI5001
(lp3608
I0
aI0
aI2
asI5002
(lp3609
I1
aI0
aI0
asI5003
(lp3610
I0
aI0
aI0
asI5004
(lp3611
I0
aI0
aI0
asI5005
(lp3612
I1
aI0
aI0
asI5006
(lp3613
I0
aI0
aI0
asI5007
(lp3614
I1
aI0
aI0
asI5008
(lp3615
I1
aI0
aI0
asI5009
(lp3616
I0
aI0
aI0
asI5010
(lp3617
I0
aI0
aI0
asI5011
(lp3618
I0
aI0
aI0
asI5012
(lp3619
I0
aI0
aI0
asI5013
(lp3620
I2
aI0
aI0
asI5014
(lp3621
I0
aI0
aI0
asI5015
(lp3622
I0
aI0
aI2
asI5016
(lp3623
I0
aI0
aI2
asI5017
(lp3624
I0
aI1
aI0
asI5018
(lp3625
I1
aI0
aI0
asI5019
(lp3626
I0
aI0
aI0
asI5020
(lp3627
I0
aI0
aI1
asI5021
(lp3628
I1
aI1
aI0
asI5022
(lp3629
I0
aI0
aI0
asI5023
(lp3630
I1
aI0
aI0
asI5024
(lp3631
I0
aI0
aI0
asI5025
(lp3632
I0
aI1
aI0
asI5026
(lp3633
I0
aI0
aI0
asI5027
(lp3634
I0
aI0
aI2
asI5028
(lp3635
I0
aI0
aI2
asI5029
(lp3636
I0
aI2
aI11
asI5030
(lp3637
I1
aI1
aI0
asI5031
(lp3638
I0
aI0
aI0
asI5032
(lp3639
I0
aI1
aI0
asI5033
(lp3640
I0
aI0
aI0
asI5034
(lp3641
I0
aI0
aI0
asI5035
(lp3642
I0
aI0
aI0
asI5036
(lp3643
I1
aI0
aI0
asI5037
(lp3644
I1
aI0
aI0
asI5038
(lp3645
I0
aI0
aI0
asI5039
(lp3646
I0
aI0
aI0
asI5040
(lp3647
I0
aI0
aI0
asI5041
(lp3648
I0
aI1
aI0
asI5042
(lp3649
I0
aI0
aI0
asI5043
(lp3650
I0
aI0
aI0
asI5044
(lp3651
I0
aI0
aI0
asI5045
(lp3652
I0
aI0
aI0
asI5046
(lp3653
I0
aI1
aI0
asI5047
(lp3654
I0
aI0
aI0
asI5048
(lp3655
I0
aI0
aI0
asI5049
(lp3656
I0
aI0
aI0
asI5050
(lp3657
I1
aI0
aI0
asI5051
(lp3658
I0
aI0
aI0
asI5052
(lp3659
I0
aI0
aI0
asI5053
(lp3660
I0
aI0
aI0
asI5054
(lp3661
I0
aI0
aI0
asI5055
(lp3662
I0
aI0
aI0
asI5056
(lp3663
I0
aI0
aI2
asI5058
(lp3664
I0
aI0
aI0
asI5059
(lp3665
I0
aI0
aI0
asI5061
(lp3666
I0
aI0
aI0
asI5062
(lp3667
I0
aI0
aI0
asI5063
(lp3668
I0
aI0
aI0
asI5064
(lp3669
I0
aI0
aI0
asI5065
(lp3670
I0
aI0
aI0
asI5066
(lp3671
I0
aI0
aI0
asI5067
(lp3672
I1
aI0
aI0
asI5068
(lp3673
I0
aI0
aI0
asI5069
(lp3674
I0
aI0
aI0
asI5070
(lp3675
I1
aI0
aI0
asI5071
(lp3676
I0
aI0
aI0
asI5072
(lp3677
I0
aI0
aI0
asI5073
(lp3678
I0
aI0
aI0
asI5074
(lp3679
I1
aI0
aI0
asI5075
(lp3680
I0
aI1
aI0
asI5076
(lp3681
I1
aI0
aI0
asI5077
(lp3682
I0
aI0
aI0
asI5078
(lp3683
I1
aI0
aI0
asI5079
(lp3684
I1
aI0
aI2
asI5080
(lp3685
I0
aI0
aI0
asI5081
(lp3686
I0
aI0
aI0
asI5082
(lp3687
I0
aI0
aI0
asI5083
(lp3688
I0
aI0
aI0
asI5084
(lp3689
I0
aI0
aI0
asI5085
(lp3690
I0
aI1
aI0
asI5086
(lp3691
I0
aI1
aI0
asI5087
(lp3692
I0
aI0
aI0
asI5088
(lp3693
I0
aI0
aI0
asI5089
(lp3694
I0
aI0
aI0
asI5090
(lp3695
I1
aI0
aI0
asI5091
(lp3696
I0
aI0
aI0
asI5092
(lp3697
I0
aI0
aI0
asI5093
(lp3698
I0
aI1
aI0
asI5094
(lp3699
I0
aI0
aI0
asI5095
(lp3700
I0
aI0
aI0
asI5096
(lp3701
I1
aI0
aI0
asI5097
(lp3702
I2
aI0
aI0
asI5098
(lp3703
I0
aI0
aI0
asI5099
(lp3704
I1
aI0
aI0
asI5100
(lp3705
I0
aI0
aI0
asI5101
(lp3706
I0
aI0
aI0
asI5102
(lp3707
I1
aI0
aI0
asI5103
(lp3708
I0
aI0
aI0
asI5104
(lp3709
I1
aI0
aI0
asI5105
(lp3710
I1
aI1
aI0
asI5106
(lp3711
I0
aI0
aI0
asI5107
(lp3712
I1
aI1
aI0
asI5108
(lp3713
I0
aI0
aI0
asI5109
(lp3714
I1
aI0
aI0
asI5110
(lp3715
I0
aI0
aI0
asI5111
(lp3716
I0
aI1
aI0
asI5112
(lp3717
I0
aI0
aI2
asI5113
(lp3718
I1
aI0
aI0
asI5114
(lp3719
I0
aI0
aI1
asI5115
(lp3720
I0
aI0
aI0
asI5116
(lp3721
I0
aI0
aI0
asI5117
(lp3722
I0
aI0
aI0
asI5118
(lp3723
I0
aI0
aI0
asI5119
(lp3724
I1
aI0
aI0
asI5120
(lp3725
I0
aI0
aI0
asI5121
(lp3726
I0
aI0
aI0
asI5122
(lp3727
I0
aI0
aI0
asI5123
(lp3728
I0
aI0
aI1
asI5124
(lp3729
I3
aI0
aI0
asI5125
(lp3730
I0
aI0
aI0
asI5126
(lp3731
I3
aI3
aI0
asI5127
(lp3732
I0
aI0
aI0
asI5128
(lp3733
I1
aI0
aI0
asI5129
(lp3734
I0
aI0
aI0
asI5130
(lp3735
I0
aI0
aI0
asI5131
(lp3736
I0
aI0
aI0
asI5132
(lp3737
I0
aI0
aI0
asI5133
(lp3738
I1
aI0
aI0
asI5134
(lp3739
I1
aI0
aI4
asI5135
(lp3740
I1
aI0
aI0
asI5136
(lp3741
I0
aI0
aI0
asI5137
(lp3742
I0
aI0
aI0
asI5138
(lp3743
I0
aI0
aI0
asI5139
(lp3744
I1
aI0
aI0
asI5140
(lp3745
I0
aI0
aI0
asI5141
(lp3746
I0
aI0
aI0
asI5142
(lp3747
I1
aI0
aI0
asI5143
(lp3748
I0
aI0
aI1
asI5144
(lp3749
I1
aI0
aI0
asI5145
(lp3750
I1
aI0
aI0
asI5146
(lp3751
I1
aI0
aI0
asI5147
(lp3752
I0
aI0
aI0
asI5148
(lp3753
I0
aI0
aI1
asI5149
(lp3754
I0
aI0
aI0
asI5150
(lp3755
I1
aI0
aI0
asI5151
(lp3756
I0
aI0
aI0
asI5152
(lp3757
I1
aI0
aI0
asI5153
(lp3758
I1
aI0
aI0
asI5154
(lp3759
I1
aI0
aI0
asI5155
(lp3760
I1
aI0
aI0
asI5156
(lp3761
I0
aI0
aI0
asI5157
(lp3762
I1
aI0
aI0
asI5158
(lp3763
I0
aI0
aI0
asI5159
(lp3764
I0
aI5
aI0
asI5160
(lp3765
I0
aI0
aI0
asI5161
(lp3766
I1
aI0
aI0
asI5162
(lp3767
I0
aI0
aI0
asI5163
(lp3768
I0
aI0
aI0
asI5164
(lp3769
I0
aI0
aI0
asI5165
(lp3770
I0
aI0
aI0
asI5166
(lp3771
I0
aI0
aI0
asI5167
(lp3772
I1
aI0
aI0
asI5168
(lp3773
I0
aI0
aI0
asI5169
(lp3774
I0
aI0
aI0
asI5170
(lp3775
I0
aI0
aI0
asI5171
(lp3776
I0
aI0
aI0
asI5172
(lp3777
I0
aI0
aI2
asI5173
(lp3778
I0
aI0
aI0
asI5174
(lp3779
I0
aI0
aI0
asI5175
(lp3780
I1
aI0
aI0
asI5176
(lp3781
I0
aI0
aI0
asI5177
(lp3782
I0
aI0
aI0
asI5178
(lp3783
I1
aI0
aI0
asI5179
(lp3784
I1
aI0
aI0
asI5180
(lp3785
I0
aI0
aI0
asI5181
(lp3786
I0
aI0
aI0
asI5182
(lp3787
I0
aI0
aI0
asI5183
(lp3788
I0
aI0
aI0
asI5184
(lp3789
I0
aI0
aI0
asI5185
(lp3790
I0
aI0
aI0
asI5186
(lp3791
I1
aI0
aI0
asI5187
(lp3792
I0
aI0
aI0
asI5188
(lp3793
I0
aI0
aI0
asI5189
(lp3794
I0
aI0
aI0
asI5190
(lp3795
I0
aI0
aI0
asI5191
(lp3796
I0
aI0
aI2
asI5192
(lp3797
I0
aI0
aI0
asI5193
(lp3798
I0
aI0
aI0
asI5194
(lp3799
I0
aI0
aI0
asI5195
(lp3800
I1
aI0
aI0
asI5196
(lp3801
I1
aI0
aI0
asI5197
(lp3802
I0
aI0
aI0
asI5198
(lp3803
I1
aI0
aI0
asI5199
(lp3804
I1
aI0
aI0
asI5200
(lp3805
I0
aI0
aI1
asI5201
(lp3806
I0
aI0
aI0
asI5202
(lp3807
I0
aI0
aI0
asI5203
(lp3808
I1
aI0
aI0
asI5204
(lp3809
I0
aI0
aI0
asI5205
(lp3810
I0
aI1
aI0
asI5206
(lp3811
I1
aI0
aI0
asI5207
(lp3812
I0
aI0
aI2
asI5208
(lp3813
I1
aI1
aI1
asI5209
(lp3814
I0
aI0
aI0
asI5210
(lp3815
I0
aI0
aI0
asI5211
(lp3816
I0
aI0
aI0
asI5212
(lp3817
I1
aI0
aI0
asI5213
(lp3818
I0
aI0
aI0
asI5214
(lp3819
I0
aI0
aI0
asI5215
(lp3820
I0
aI0
aI0
asI5216
(lp3821
I0
aI0
aI0
asI5217
(lp3822
I2
aI0
aI0
asI5218
(lp3823
I0
aI0
aI0
asI5219
(lp3824
I0
aI0
aI0
asI5220
(lp3825
I0
aI0
aI0
asI5221
(lp3826
I1
aI0
aI0
asI5222
(lp3827
I1
aI0
aI0
asI5223
(lp3828
I1
aI1
aI0
asI5224
(lp3829
I1
aI0
aI0
asI5225
(lp3830
I1
aI0
aI0
asI5226
(lp3831
I0
aI0
aI0
asI5227
(lp3832
I0
aI0
aI0
asI5228
(lp3833
I1
aI0
aI0
asI5229
(lp3834
I0
aI0
aI0
asI5230
(lp3835
I1
aI1
aI1
asI5231
(lp3836
I0
aI0
aI2
asI5232
(lp3837
I0
aI0
aI0
asI5233
(lp3838
I1
aI2
aI0
asI5234
(lp3839
I0
aI0
aI0
asI5235
(lp3840
I2
aI0
aI0
asI5236
(lp3841
I0
aI0
aI0
asI5237
(lp3842
I1
aI0
aI0
asI5238
(lp3843
I0
aI1
aI0
asI5239
(lp3844
I0
aI0
aI0
asI5240
(lp3845
I0
aI0
aI0
asI5241
(lp3846
I1
aI0
aI0
asI5242
(lp3847
I1
aI0
aI0
asI5243
(lp3848
I0
aI0
aI1
asI5244
(lp3849
I1
aI0
aI1
asI5245
(lp3850
I0
aI0
aI1
asI5246
(lp3851
I0
aI0
aI0
asI5247
(lp3852
I1
aI1
aI0
asI5248
(lp3853
I1
aI0
aI0
asI5249
(lp3854
I1
aI0
aI0
asI5250
(lp3855
I1
aI0
aI0
asI5251
(lp3856
I0
aI0
aI0
asI5252
(lp3857
I0
aI0
aI0
asI5253
(lp3858
I1
aI1
aI0
asI5254
(lp3859
I0
aI0
aI0
asI5255
(lp3860
I0
aI0
aI0
asI5256
(lp3861
I0
aI0
aI0
asI5257
(lp3862
I0
aI0
aI0
asI5258
(lp3863
I0
aI0
aI0
asI5259
(lp3864
I0
aI0
aI0
asI5260
(lp3865
I0
aI0
aI0
asI5261
(lp3866
I0
aI0
aI0
asI5262
(lp3867
I1
aI0
aI0
asI5263
(lp3868
I0
aI0
aI0
asI5264
(lp3869
I0
aI0
aI0
asI5265
(lp3870
I0
aI0
aI0
asI5266
(lp3871
I1
aI0
aI0
asI5267
(lp3872
I0
aI1
aI0
asI5268
(lp3873
I0
aI0
aI0
asI5269
(lp3874
I0
aI0
aI0
asI5270
(lp3875
I0
aI0
aI0
asI5271
(lp3876
I1
aI0
aI0
asI5272
(lp3877
I0
aI0
aI0
asI5273
(lp3878
I0
aI1
aI0
asI5274
(lp3879
I0
aI0
aI0
asI5275
(lp3880
I0
aI0
aI0
asI5276
(lp3881
I1
aI0
aI0
asI5277
(lp3882
I0
aI0
aI0
asI5278
(lp3883
I1
aI0
aI0
asI5279
(lp3884
I1
aI0
aI0
asI5280
(lp3885
I1
aI0
aI0
asI5281
(lp3886
I0
aI0
aI0
asI5282
(lp3887
I1
aI0
aI0
asI5283
(lp3888
I0
aI0
aI0
asI-1
(lp3889
I0
aI0
aI627
as.