(dp0
I0
(lp1
I1
aI16
aI0
asI1
(lp2
I0
aI0
aI13
asI2
(lp3
I0
aI0
aI0
asI3
(lp4
I0
aI0
aI0
asI4
(lp5
I0
aI0
aI0
asI5
(lp6
I1
aI4
aI10
asI6
(lp7
I2
aI12
aI115
asI7
(lp8
I0
aI0
aI1
asI8
(lp9
I2
aI6
aI49
asI9
(lp10
I0
aI0
aI0
asI10
(lp11
I0
aI0
aI0
asI11
(lp12
I0
aI0
aI3
asI12
(lp13
I0
aI0
aI28
asI13
(lp14
I17
aI9
aI136
asI14
(lp15
I0
aI0
aI0
asI15
(lp16
I0
aI2
aI5
asI16
(lp17
I0
aI0
aI1
asI17
(lp18
I1
aI9
aI35
asI18
(lp19
I0
aI0
aI0
asI19
(lp20
I3
aI0
aI55
asI20
(lp21
I0
aI0
aI1
asI21
(lp22
I2
aI5
aI47
asI22
(lp23
I0
aI0
aI0
asI23
(lp24
I0
aI0
aI0
asI24
(lp25
I0
aI0
aI0
asI25
(lp26
I0
aI0
aI0
asI26
(lp27
I0
aI0
aI0
asI27
(lp28
I0
aI0
aI0
asI29
(lp29
I0
aI0
aI1
asI30
(lp30
I2
aI0
aI6
asI31
(lp31
I0
aI0
aI3
asI32
(lp32
I0
aI0
aI0
asI33
(lp33
I1
aI0
aI24
asI34
(lp34
I0
aI0
aI0
asI35
(lp35
I0
aI2
aI0
asI36
(lp36
I0
aI0
aI0
asI37
(lp37
I0
aI0
aI1
asI38
(lp38
I3
aI1
aI54
asI39
(lp39
I0
aI0
aI0
asI40
(lp40
I8
aI2
aI108
asI41
(lp41
I2
aI1
aI36
asI42
(lp42
I1
aI0
aI21
asI43
(lp43
I0
aI0
aI0
asI44
(lp44
I0
aI0
aI20
asI45
(lp45
I0
aI0
aI0
asI46
(lp46
I0
aI23
aI10
asI47
(lp47
I1
aI0
aI1
asI48
(lp48
I0
aI0
aI4
asI49
(lp49
I0
aI0
aI0
asI50
(lp50
I0
aI0
aI1
asI51
(lp51
I0
aI0
aI10
asI52
(lp52
I0
aI0
aI0
asI53
(lp53
I0
aI0
aI0
asI54
(lp54
I0
aI0
aI0
asI55
(lp55
I0
aI0
aI0
asI56
(lp56
I3
aI6
aI79
asI57
(lp57
I0
aI0
aI1
asI58
(lp58
I0
aI0
aI0
asI59
(lp59
I0
aI0
aI0
asI60
(lp60
I0
aI4
aI65
asI61
(lp61
I0
aI0
aI5
asI62
(lp62
I1
aI1
aI20
asI63
(lp63
I2
aI0
aI93
asI64
(lp64
I11
aI21
aI229
asI65
(lp65
I0
aI0
aI0
asI66
(lp66
I0
aI0
aI0
asI67
(lp67
I0
aI0
aI0
asI68
(lp68
I2
aI0
aI3
asI69
(lp69
I0
aI0
aI4
asI70
(lp70
I0
aI0
aI1
asI71
(lp71
I0
aI0
aI0
asI72
(lp72
I5
aI0
aI30
asI73
(lp73
I0
aI0
aI0
asI74
(lp74
I0
aI1
aI8
asI75
(lp75
I0
aI0
aI2
asI76
(lp76
I0
aI7
aI70
asI77
(lp77
I0
aI0
aI30
asI78
(lp78
I1
aI0
aI11
asI79
(lp79
I1
aI0
aI5
asI80
(lp80
I0
aI0
aI0
asI81
(lp81
I0
aI0
aI0
asI82
(lp82
I0
aI0
aI0
asI83
(lp83
I0
aI0
aI0
asI84
(lp84
I0
aI0
aI11
asI85
(lp85
I7
aI15
aI72
asI86
(lp86
I0
aI0
aI3
asI87
(lp87
I0
aI0
aI5
asI88
(lp88
I0
aI1
aI10
asI89
(lp89
I0
aI0
aI2
asI90
(lp90
I3
aI3
aI40
asI91
(lp91
I19
aI18
aI79
asI92
(lp92
I0
aI0
aI2
asI93
(lp93
I0
aI5
aI7
asI94
(lp94
I0
aI0
aI0
asI95
(lp95
I0
aI0
aI0
asI96
(lp96
I0
aI0
aI0
asI97
(lp97
I0
aI0
aI0
asI98
(lp98
I0
aI0
aI0
asI99
(lp99
I4
aI0
aI12
asI100
(lp100
I2
aI0
aI27
asI101
(lp101
I2
aI2
aI18
asI102
(lp102
I0
aI0
aI0
asI103
(lp103
I0
aI0
aI0
asI104
(lp104
I0
aI0
aI1
asI105
(lp105
I0
aI1
aI97
asI106
(lp106
I0
aI2
aI8
asI107
(lp107
I0
aI0
aI0
asI108
(lp108
I0
aI3
aI9
asI109
(lp109
I1
aI2
aI16
asI110
(lp110
I0
aI0
aI13
asI111
(lp111
I0
aI0
aI0
asI112
(lp112
I0
aI1
aI0
asI113
(lp113
I10
aI1
aI40
asI114
(lp114
I0
aI0
aI2
asI115
(lp115
I1
aI4
aI16
asI116
(lp116
I0
aI0
aI4
asI117
(lp117
I0
aI0
aI0
asI118
(lp118
I0
aI3
aI39
asI119
(lp119
I0
aI0
aI7
asI120
(lp120
I1
aI0
aI3
asI121
(lp121
I0
aI0
aI2
asI122
(lp122
I0
aI0
aI0
asI123
(lp123
I4
aI0
aI6
asI124
(lp124
I0
aI0
aI0
asI125
(lp125
I0
aI0
aI0
asI126
(lp126
I1
aI0
aI11
asI127
(lp127
I0
aI0
aI1
asI128
(lp128
I0
aI0
aI0
asI129
(lp129
I0
aI4
aI2
asI130
(lp130
I0
aI0
aI0
asI131
(lp131
I0
aI0
aI3
asI132
(lp132
I0
aI1
aI4
asI133
(lp133
I2
aI16
aI57
asI134
(lp134
I3
aI0
aI20
asI135
(lp135
I0
aI4
aI13
asI136
(lp136
I1
aI0
aI3
asI137
(lp137
I0
aI0
aI0
asI138
(lp138
I0
aI2
aI25
asI139
(lp139
I0
aI0
aI0
asI140
(lp140
I1
aI0
aI11
asI141
(lp141
I4
aI8
aI86
asI142
(lp142
I3
aI1
aI47
asI143
(lp143
I0
aI0
aI2
asI144
(lp144
I1
aI1
aI12
asI145
(lp145
I0
aI0
aI1
asI146
(lp146
I0
aI0
aI0
asI147
(lp147
I2
aI4
aI67
asI148
(lp148
I0
aI0
aI0
asI149
(lp149
I1
aI0
aI7
asI150
(lp150
I1
aI4
aI54
asI151
(lp151
I1
aI0
aI2
asI152
(lp152
I0
aI0
aI0
asI153
(lp153
I0
aI0
aI0
asI154
(lp154
I0
aI0
aI0
asI155
(lp155
I0
aI0
aI0
asI156
(lp156
I0
aI0
aI0
asI157
(lp157
I0
aI1
aI3
asI158
(lp158
I0
aI0
aI0
asI159
(lp159
I0
aI0
aI0
asI160
(lp160
I0
aI0
aI0
asI161
(lp161
I0
aI0
aI0
asI162
(lp162
I0
aI1
aI10
asI163
(lp163
I0
aI0
aI0
asI164
(lp164
I1
aI0
aI2
asI165
(lp165
I0
aI0
aI0
asI166
(lp166
I0
aI0
aI2
asI167
(lp167
I0
aI1
aI10
asI168
(lp168
I1
aI2
aI49
asI169
(lp169
I0
aI0
aI0
asI170
(lp170
I0
aI0
aI0
asI171
(lp171
I0
aI0
aI0
asI172
(lp172
I1
aI6
aI37
asI173
(lp173
I0
aI0
aI0
asI174
(lp174
I0
aI0
aI0
asI175
(lp175
I0
aI0
aI0
asI176
(lp176
I0
aI0
aI0
asI177
(lp177
I1
aI0
aI90
asI178
(lp178
I0
aI1
aI4
asI179
(lp179
I0
aI0
aI0
asI180
(lp180
I1
aI0
aI3
asI181
(lp181
I1
aI0
aI3
asI182
(lp182
I0
aI0
aI3
asI183
(lp183
I1
aI0
aI37
asI184
(lp184
I0
aI0
aI13
asI185
(lp185
I0
aI0
aI8
asI186
(lp186
I0
aI7
aI7
asI187
(lp187
I0
aI0
aI0
asI188
(lp188
I0
aI0
aI0
asI189
(lp189
I0
aI0
aI0
asI191
(lp190
I0
aI1
aI1
asI192
(lp191
I0
aI0
aI0
asI193
(lp192
I0
aI0
aI0
asI194
(lp193
I0
aI0
aI0
asI195
(lp194
I4
aI0
aI99
asI196
(lp195
I0
aI0
aI0
asI197
(lp196
I0
aI0
aI4
asI198
(lp197
I0
aI0
aI0
asI199
(lp198
I0
aI0
aI0
asI200
(lp199
I1
aI2
aI12
asI202
(lp200
I0
aI0
aI0
asI203
(lp201
I0
aI0
aI0
asI204
(lp202
I0
aI0
aI0
asI205
(lp203
I0
aI0
aI1
asI206
(lp204
I0
aI0
aI0
asI207
(lp205
I0
aI0
aI0
asI208
(lp206
I0
aI1
aI30
asI209
(lp207
I0
aI0
aI0
asI210
(lp208
I0
aI0
aI0
asI211
(lp209
I0
aI0
aI0
asI212
(lp210
I0
aI0
aI0
asI213
(lp211
I0
aI0
aI0
asI214
(lp212
I4
aI2
aI30
asI215
(lp213
I0
aI0
aI0
asI216
(lp214
I0
aI1
aI3
asI217
(lp215
I0
aI0
aI0
asI218
(lp216
I0
aI0
aI0
asI219
(lp217
I0
aI0
aI0
asI220
(lp218
I0
aI0
aI0
asI221
(lp219
I0
aI0
aI0
asI222
(lp220
I0
aI0
aI4
asI223
(lp221
I0
aI0
aI0
asI224
(lp222
I0
aI0
aI0
asI225
(lp223
I0
aI2
aI0
asI226
(lp224
I0
aI0
aI0
asI227
(lp225
I0
aI0
aI0
asI228
(lp226
I0
aI1
aI1
asI229
(lp227
I0
aI0
aI0
asI230
(lp228
I0
aI0
aI2
asI231
(lp229
I0
aI0
aI0
asI232
(lp230
I0
aI0
aI0
asI233
(lp231
I2
aI0
aI8
asI234
(lp232
I0
aI0
aI0
asI235
(lp233
I0
aI0
aI0
asI236
(lp234
I0
aI3
aI2
asI237
(lp235
I1
aI3
aI10
asI238
(lp236
I0
aI0
aI0
asI240
(lp237
I0
aI0
aI1
asI241
(lp238
I0
aI0
aI0
asI242
(lp239
I0
aI0
aI0
asI243
(lp240
I0
aI0
aI1
asI244
(lp241
I0
aI0
aI0
asI245
(lp242
I0
aI0
aI0
asI246
(lp243
I0
aI0
aI2
asI247
(lp244
I0
aI0
aI0
asI248
(lp245
I0
aI0
aI0
asI249
(lp246
I0
aI0
aI0
asI250
(lp247
I0
aI0
aI3
asI251
(lp248
I0
aI0
aI0
asI252
(lp249
I0
aI0
aI0
asI253
(lp250
I0
aI0
aI0
asI254
(lp251
I0
aI0
aI1
asI255
(lp252
I0
aI0
aI0
asI256
(lp253
I0
aI0
aI4
asI257
(lp254
I0
aI0
aI0
asI258
(lp255
I0
aI0
aI0
asI259
(lp256
I0
aI0
aI0
asI260
(lp257
I0
aI0
aI2
asI261
(lp258
I0
aI0
aI0
asI262
(lp259
I0
aI0
aI0
asI263
(lp260
I0
aI0
aI0
asI264
(lp261
I0
aI0
aI0
asI265
(lp262
I0
aI0
aI0
asI266
(lp263
I0
aI0
aI0
asI267
(lp264
I0
aI4
aI66
asI268
(lp265
I0
aI0
aI0
asI269
(lp266
I0
aI0
aI0
asI270
(lp267
I0
aI0
aI1
asI271
(lp268
I0
aI0
aI0
asI272
(lp269
I0
aI0
aI0
asI273
(lp270
I0
aI0
aI0
asI274
(lp271
I0
aI0
aI0
asI275
(lp272
I0
aI0
aI0
asI276
(lp273
I0
aI0
aI0
asI277
(lp274
I0
aI0
aI0
asI278
(lp275
I0
aI0
aI0
asI279
(lp276
I0
aI0
aI0
asI280
(lp277
I0
aI0
aI0
asI281
(lp278
I0
aI0
aI0
asI282
(lp279
I0
aI0
aI0
asI283
(lp280
I0
aI0
aI0
asI284
(lp281
I0
aI0
aI0
asI285
(lp282
I0
aI0
aI0
asI286
(lp283
I0
aI0
aI0
asI287
(lp284
I0
aI0
aI1
asI288
(lp285
I0
aI0
aI0
asI289
(lp286
I0
aI0
aI0
asI290
(lp287
I0
aI0
aI2
asI291
(lp288
I0
aI0
aI0
asI292
(lp289
I0
aI0
aI0
asI293
(lp290
I0
aI0
aI0
asI294
(lp291
I0
aI0
aI0
asI295
(lp292
I0
aI1
aI37
asI296
(lp293
I0
aI0
aI0
asI297
(lp294
I0
aI0
aI0
asI298
(lp295
I0
aI0
aI0
asI299
(lp296
I0
aI0
aI0
asI300
(lp297
I0
aI0
aI0
asI301
(lp298
I0
aI0
aI5
asI302
(lp299
I0
aI3
aI0
asI303
(lp300
I0
aI0
aI0
asI304
(lp301
I0
aI0
aI2
asI305
(lp302
I2
aI1
aI9
asI306
(lp303
I0
aI0
aI52
asI307
(lp304
I0
aI0
aI2
asI308
(lp305
I0
aI0
aI0
asI309
(lp306
I0
aI0
aI0
asI310
(lp307
I0
aI1
aI3
asI311
(lp308
I0
aI0
aI0
asI312
(lp309
I0
aI0
aI0
asI313
(lp310
I1
aI1
aI2
asI314
(lp311
I0
aI0
aI0
asI315
(lp312
I0
aI0
aI0
asI316
(lp313
I0
aI0
aI10
asI317
(lp314
I0
aI0
aI0
asI318
(lp315
I0
aI0
aI0
asI319
(lp316
I0
aI0
aI0
asI320
(lp317
I0
aI0
aI0
asI321
(lp318
I0
aI0
aI0
asI322
(lp319
I0
aI0
aI3
asI323
(lp320
I0
aI0
aI0
asI324
(lp321
I0
aI2
aI3
asI325
(lp322
I0
aI0
aI0
asI327
(lp323
I0
aI0
aI0
asI328
(lp324
I0
aI0
aI0
asI329
(lp325
I0
aI0
aI0
asI330
(lp326
I0
aI0
aI0
asI331
(lp327
I0
aI0
aI0
asI332
(lp328
I0
aI0
aI0
asI333
(lp329
I0
aI0
aI0
asI334
(lp330
I0
aI0
aI0
asI335
(lp331
I0
aI0
aI0
asI336
(lp332
I0
aI0
aI0
asI337
(lp333
I0
aI0
aI3
asI338
(lp334
I0
aI0
aI0
asI339
(lp335
I0
aI0
aI0
asI340
(lp336
I0
aI0
aI0
asI341
(lp337
I0
aI0
aI0
asI342
(lp338
I0
aI0
aI0
asI343
(lp339
I0
aI0
aI0
asI344
(lp340
I0
aI0
aI0
asI345
(lp341
I0
aI0
aI0
asI346
(lp342
I0
aI0
aI0
asI347
(lp343
I0
aI0
aI0
asI348
(lp344
I0
aI0
aI0
asI349
(lp345
I0
aI0
aI0
asI350
(lp346
I0
aI0
aI0
asI351
(lp347
I0
aI0
aI0
asI352
(lp348
I0
aI3
aI0
asI353
(lp349
I0
aI0
aI0
asI354
(lp350
I0
aI0
aI0
asI355
(lp351
I0
aI0
aI1
asI356
(lp352
I0
aI0
aI0
asI357
(lp353
I0
aI0
aI0
asI358
(lp354
I0
aI0
aI0
asI359
(lp355
I0
aI0
aI0
asI360
(lp356
I0
aI0
aI1
asI361
(lp357
I1
aI0
aI2
asI362
(lp358
I0
aI0
aI0
asI363
(lp359
I0
aI0
aI0
asI364
(lp360
I0
aI0
aI0
asI365
(lp361
I1
aI0
aI0
asI366
(lp362
I0
aI0
aI0
asI367
(lp363
I0
aI0
aI0
asI368
(lp364
I0
aI0
aI0
asI369
(lp365
I1
aI0
aI0
asI370
(lp366
I0
aI0
aI0
asI371
(lp367
I1
aI0
aI0
asI372
(lp368
I0
aI0
aI0
asI373
(lp369
I0
aI0
aI0
asI374
(lp370
I0
aI0
aI0
asI375
(lp371
I0
aI0
aI0
asI376
(lp372
I0
aI0
aI0
asI377
(lp373
I0
aI0
aI0
asI378
(lp374
I0
aI0
aI0
asI379
(lp375
I0
aI0
aI0
asI380
(lp376
I0
aI0
aI0
asI381
(lp377
I0
aI0
aI0
asI382
(lp378
I0
aI0
aI0
asI383
(lp379
I0
aI0
aI0
asI384
(lp380
I0
aI0
aI0
asI385
(lp381
I0
aI0
aI0
asI386
(lp382
I0
aI0
aI0
asI387
(lp383
I0
aI0
aI0
asI388
(lp384
I0
aI1
aI2
asI389
(lp385
I0
aI0
aI0
asI390
(lp386
I0
aI0
aI0
asI391
(lp387
I0
aI0
aI0
asI392
(lp388
I0
aI0
aI0
asI393
(lp389
I0
aI0
aI0
asI394
(lp390
I0
aI0
aI0
asI395
(lp391
I0
aI0
aI0
asI396
(lp392
I0
aI0
aI0
asI397
(lp393
I0
aI0
aI2
asI398
(lp394
I0
aI0
aI0
asI399
(lp395
I0
aI0
aI0
asI400
(lp396
I0
aI0
aI0
asI401
(lp397
I0
aI0
aI0
asI402
(lp398
I0
aI0
aI0
asI403
(lp399
I0
aI0
aI0
asI404
(lp400
I0
aI0
aI0
asI405
(lp401
I0
aI0
aI1
asI406
(lp402
I0
aI0
aI0
asI407
(lp403
I0
aI0
aI0
asI408
(lp404
I1
aI0
aI0
asI409
(lp405
I0
aI0
aI0
asI410
(lp406
I0
aI0
aI0
asI411
(lp407
I0
aI0
aI0
asI412
(lp408
I0
aI0
aI2
asI413
(lp409
I0
aI0
aI0
asI414
(lp410
I0
aI0
aI0
asI415
(lp411
I0
aI0
aI0
asI416
(lp412
I0
aI0
aI0
asI417
(lp413
I0
aI1
aI0
asI418
(lp414
I0
aI0
aI0
asI419
(lp415
I0
aI1
aI3
asI420
(lp416
I1
aI0
aI17
asI421
(lp417
I0
aI1
aI6
asI422
(lp418
I0
aI0
aI5
asI423
(lp419
I0
aI0
aI0
asI424
(lp420
I0
aI0
aI2
asI425
(lp421
I1
aI1
aI11
asI426
(lp422
I0
aI0
aI1
asI427
(lp423
I0
aI0
aI0
asI428
(lp424
I0
aI0
aI0
asI429
(lp425
I0
aI0
aI0
asI430
(lp426
I0
aI0
aI0
asI431
(lp427
I0
aI0
aI0
asI432
(lp428
I0
aI0
aI0
asI433
(lp429
I0
aI0
aI0
asI434
(lp430
I0
aI0
aI0
asI435
(lp431
I0
aI0
aI0
asI436
(lp432
I0
aI0
aI0
asI437
(lp433
I0
aI0
aI0
asI438
(lp434
I0
aI0
aI0
asI439
(lp435
I0
aI1
aI0
asI440
(lp436
I0
aI0
aI0
asI441
(lp437
I0
aI0
aI0
asI442
(lp438
I0
aI0
aI0
asI443
(lp439
I0
aI0
aI0
asI444
(lp440
I0
aI0
aI0
asI445
(lp441
I1
aI0
aI0
asI446
(lp442
I0
aI0
aI0
asI447
(lp443
I0
aI0
aI0
asI448
(lp444
I0
aI0
aI0
asI449
(lp445
I0
aI0
aI0
asI450
(lp446
I1
aI3
aI0
asI451
(lp447
I0
aI0
aI2
asI452
(lp448
I0
aI0
aI0
asI453
(lp449
I0
aI0
aI0
asI454
(lp450
I0
aI0
aI1
asI455
(lp451
I0
aI0
aI0
asI456
(lp452
I0
aI0
aI1
asI457
(lp453
I0
aI0
aI0
asI458
(lp454
I0
aI0
aI0
asI459
(lp455
I0
aI0
aI1
asI460
(lp456
I0
aI0
aI0
asI461
(lp457
I0
aI0
aI0
asI462
(lp458
I0
aI0
aI0
asI463
(lp459
I1
aI0
aI0
asI464
(lp460
I0
aI0
aI0
asI465
(lp461
I0
aI0
aI0
asI466
(lp462
I0
aI1
aI0
asI467
(lp463
I0
aI0
aI1
asI468
(lp464
I0
aI0
aI0
asI469
(lp465
I0
aI0
aI2
asI470
(lp466
I0
aI0
aI1
asI471
(lp467
I0
aI0
aI0
asI472
(lp468
I0
aI0
aI0
asI473
(lp469
I0
aI0
aI0
asI474
(lp470
I0
aI0
aI0
asI475
(lp471
I0
aI0
aI0
asI476
(lp472
I0
aI0
aI5
asI477
(lp473
I0
aI0
aI1
asI478
(lp474
I0
aI0
aI0
asI479
(lp475
I0
aI0
aI0
asI480
(lp476
I0
aI0
aI0
asI481
(lp477
I0
aI0
aI0
asI482
(lp478
I0
aI0
aI0
asI483
(lp479
I0
aI0
aI0
asI484
(lp480
I0
aI0
aI0
asI485
(lp481
I0
aI0
aI0
asI486
(lp482
I0
aI0
aI0
asI487
(lp483
I0
aI0
aI0
asI488
(lp484
I0
aI0
aI4
asI489
(lp485
I0
aI0
aI0
asI490
(lp486
I0
aI0
aI0
asI491
(lp487
I0
aI0
aI4
asI492
(lp488
I0
aI0
aI0
asI493
(lp489
I0
aI0
aI0
asI494
(lp490
I0
aI0
aI6
asI495
(lp491
I0
aI0
aI0
asI496
(lp492
I0
aI0
aI3
asI497
(lp493
I0
aI0
aI0
asI498
(lp494
I0
aI0
aI0
asI499
(lp495
I0
aI0
aI0
asI500
(lp496
I0
aI0
aI0
asI501
(lp497
I0
aI0
aI0
asI502
(lp498
I0
aI0
aI0
asI503
(lp499
I0
aI0
aI0
asI504
(lp500
I0
aI0
aI0
asI505
(lp501
I0
aI0
aI0
asI506
(lp502
I0
aI0
aI0
asI507
(lp503
I0
aI0
aI0
asI508
(lp504
I0
aI0
aI0
asI509
(lp505
I2
aI0
aI2
asI510
(lp506
I0
aI0
aI0
asI511
(lp507
I0
aI0
aI0
asI512
(lp508
I0
aI0
aI0
asI513
(lp509
I0
aI0
aI0
asI514
(lp510
I0
aI0
aI0
asI515
(lp511
I0
aI0
aI0
asI516
(lp512
I0
aI0
aI0
asI517
(lp513
I0
aI0
aI0
asI518
(lp514
I0
aI0
aI5
asI519
(lp515
I0
aI0
aI0
asI520
(lp516
I0
aI0
aI0
asI521
(lp517
I0
aI0
aI0
asI522
(lp518
I0
aI0
aI0
asI523
(lp519
I0
aI0
aI6
asI524
(lp520
I0
aI0
aI0
asI525
(lp521
I0
aI0
aI0
asI526
(lp522
I0
aI0
aI0
asI527
(lp523
I0
aI0
aI0
asI528
(lp524
I0
aI0
aI0
asI529
(lp525
I0
aI0
aI0
asI530
(lp526
I0
aI0
aI0
asI531
(lp527
I0
aI1
aI1
asI532
(lp528
I0
aI0
aI0
asI533
(lp529
I1
aI3
aI3
asI534
(lp530
I1
aI0
aI1
asI535
(lp531
I0
aI0
aI0
asI536
(lp532
I0
aI0
aI0
asI537
(lp533
I1
aI0
aI0
asI538
(lp534
I0
aI0
aI0
asI539
(lp535
I1
aI0
aI0
asI540
(lp536
I0
aI0
aI0
asI541
(lp537
I0
aI0
aI0
asI543
(lp538
I0
aI0
aI0
asI544
(lp539
I0
aI0
aI0
asI545
(lp540
I0
aI0
aI0
asI546
(lp541
I0
aI0
aI0
asI547
(lp542
I0
aI0
aI0
asI548
(lp543
I0
aI0
aI0
asI549
(lp544
I0
aI0
aI0
asI550
(lp545
I0
aI0
aI0
asI551
(lp546
I0
aI0
aI0
asI552
(lp547
I0
aI0
aI0
asI553
(lp548
I0
aI0
aI0
asI554
(lp549
I0
aI0
aI0
asI555
(lp550
I2
aI0
aI0
asI556
(lp551
I0
aI0
aI0
asI557
(lp552
I0
aI0
aI0
asI558
(lp553
I0
aI0
aI0
asI559
(lp554
I1
aI0
aI0
asI560
(lp555
I0
aI0
aI0
asI561
(lp556
I0
aI0
aI0
asI562
(lp557
I0
aI0
aI0
asI563
(lp558
I0
aI0
aI0
asI564
(lp559
I0
aI0
aI0
asI565
(lp560
I0
aI1
aI0
asI566
(lp561
I0
aI0
aI0
asI567
(lp562
I0
aI0
aI0
asI568
(lp563
I0
aI0
aI0
asI569
(lp564
I0
aI0
aI0
asI570
(lp565
I0
aI0
aI0
asI571
(lp566
I0
aI2
aI4
asI572
(lp567
I0
aI0
aI0
asI573
(lp568
I0
aI0
aI0
asI574
(lp569
I0
aI0
aI0
asI575
(lp570
I0
aI0
aI0
asI576
(lp571
I0
aI0
aI0
asI577
(lp572
I0
aI0
aI0
asI578
(lp573
I0
aI0
aI0
asI579
(lp574
I0
aI0
aI0
asI580
(lp575
I0
aI0
aI0
asI581
(lp576
I0
aI0
aI0
asI582
(lp577
I0
aI0
aI0
asI583
(lp578
I0
aI0
aI0
asI584
(lp579
I1
aI0
aI0
asI585
(lp580
I0
aI1
aI1
asI586
(lp581
I0
aI0
aI0
asI587
(lp582
I0
aI0
aI0
asI588
(lp583
I0
aI0
aI0
asI589
(lp584
I0
aI0
aI0
asI590
(lp585
I0
aI1
aI0
asI591
(lp586
I0
aI0
aI2
asI592
(lp587
I0
aI0
aI0
asI593
(lp588
I0
aI0
aI0
asI594
(lp589
I0
aI0
aI0
asI595
(lp590
I0
aI0
aI0
asI596
(lp591
I0
aI0
aI0
asI597
(lp592
I0
aI1
aI0
asI598
(lp593
I0
aI0
aI0
asI599
(lp594
I0
aI0
aI0
asI600
(lp595
I1
aI0
aI0
asI601
(lp596
I0
aI0
aI0
asI602
(lp597
I0
aI0
aI0
asI603
(lp598
I1
aI0
aI1
asI604
(lp599
I0
aI0
aI0
asI605
(lp600
I1
aI0
aI0
asI606
(lp601
I0
aI0
aI0
asI607
(lp602
I0
aI1
aI0
asI608
(lp603
I0
aI0
aI0
asI609
(lp604
I0
aI0
aI0
asI610
(lp605
I0
aI0
aI0
asI611
(lp606
I0
aI0
aI0
asI612
(lp607
I0
aI1
aI0
asI613
(lp608
I0
aI0
aI0
asI614
(lp609
I0
aI0
aI0
asI615
(lp610
I0
aI0
aI0
asI616
(lp611
I0
aI0
aI0
asI617
(lp612
I0
aI0
aI0
asI-1
(lp613
I0
aI0
aI5
as.