(dp0
I1
(lp1
I0
aI0
aI0
asI2
(lp2
I0
aI0
aI0
asI3
(lp3
I0
aI0
aI1
asI4
(lp4
I0
aI0
aI0
asI5
(lp5
I0
aI0
aI4
asI6
(lp6
I0
aI0
aI0
asI7
(lp7
I1
aI0
aI9
asI8
(lp8
I0
aI0
aI0
asI9
(lp9
I4
aI7
aI94
asI11
(lp10
I5
aI2
aI119
asI12
(lp11
I30
aI30
aI735
asI13
(lp12
I1
aI0
aI4
asI14
(lp13
I0
aI0
aI3
asI15
(lp14
I0
aI0
aI2
asI16
(lp15
I0
aI0
aI5
asI17
(lp16
I0
aI4
aI56
asI18
(lp17
I0
aI0
aI2
asI19
(lp18
I3
aI0
aI12
asI20
(lp19
I1
aI7
aI37
asI21
(lp20
I0
aI0
aI31
asI22
(lp21
I0
aI0
aI0
asI23
(lp22
I0
aI0
aI1
asI24
(lp23
I0
aI0
aI10
asI25
(lp24
I1
aI3
aI34
asI26
(lp25
I2
aI0
aI5
asI27
(lp26
I1
aI0
aI82
asI28
(lp27
I0
aI0
aI0
asI29
(lp28
I0
aI0
aI0
asI30
(lp29
I8
aI44
aI241
asI31
(lp30
I1
aI0
aI59
asI32
(lp31
I0
aI0
aI14
asI33
(lp32
I0
aI5
aI13
asI34
(lp33
I0
aI0
aI2
asI35
(lp34
I0
aI0
aI0
asI36
(lp35
I1
aI0
aI0
asI37
(lp36
I34
aI0
aI55
asI38
(lp37
I0
aI0
aI0
asI39
(lp38
I0
aI18
aI34
asI40
(lp39
I7
aI25
aI139
asI41
(lp40
I1
aI0
aI1
asI42
(lp41
I0
aI0
aI0
asI43
(lp42
I0
aI0
aI0
asI44
(lp43
I0
aI2
aI1
asI45
(lp44
I6
aI44
aI158
asI46
(lp45
I1
aI0
aI4
asI47
(lp46
I2
aI1
aI6
asI48
(lp47
I1
aI0
aI15
asI49
(lp48
I5
aI0
aI67
asI50
(lp49
I0
aI0
aI0
asI51
(lp50
I0
aI0
aI0
asI52
(lp51
I6
aI3
aI121
asI53
(lp52
I0
aI0
aI0
asI54
(lp53
I0
aI0
aI7
asI55
(lp54
I0
aI0
aI0
asI56
(lp55
I1
aI0
aI24
asI57
(lp56
I0
aI0
aI6
asI58
(lp57
I0
aI0
aI53
asI59
(lp58
I0
aI0
aI1
asI60
(lp59
I0
aI0
aI7
asI61
(lp60
I2
aI0
aI6
asI62
(lp61
I0
aI0
aI0
asI63
(lp62
I0
aI0
aI1
asI64
(lp63
I0
aI0
aI0
asI65
(lp64
I2
aI0
aI33
asI66
(lp65
I4
aI5
aI109
asI67
(lp66
I0
aI0
aI0
asI68
(lp67
I30
aI87
aI565
asI69
(lp68
I0
aI0
aI0
asI70
(lp69
I0
aI0
aI0
asI71
(lp70
I18
aI8
aI166
asI72
(lp71
I0
aI0
aI0
asI73
(lp72
I7
aI9
aI80
asI74
(lp73
I0
aI0
aI0
asI75
(lp74
I0
aI0
aI23
asI76
(lp75
I0
aI0
aI0
asI77
(lp76
I0
aI1
aI5
asI78
(lp77
I2
aI57
aI356
asI79
(lp78
I64
aI78
aI658
asI80
(lp79
I0
aI1
aI9
asI81
(lp80
I0
aI0
aI0
asI82
(lp81
I0
aI0
aI1
asI83
(lp82
I0
aI0
aI2
asI84
(lp83
I0
aI0
aI0
asI85
(lp84
I0
aI0
aI2
asI86
(lp85
I0
aI0
aI4
asI87
(lp86
I0
aI0
aI0
asI88
(lp87
I0
aI0
aI8
asI89
(lp88
I1
aI0
aI16
asI90
(lp89
I0
aI0
aI0
asI91
(lp90
I1
aI2
aI16
asI92
(lp91
I2
aI0
aI3
asI93
(lp92
I0
aI0
aI2
asI94
(lp93
I1
aI2
aI62
asI95
(lp94
I0
aI0
aI1
asI96
(lp95
I0
aI0
aI2
asI97
(lp96
I0
aI0
aI0
asI98
(lp97
I0
aI0
aI2
asI99
(lp98
I0
aI0
aI107
asI100
(lp99
I1
aI0
aI1
asI101
(lp100
I0
aI0
aI1
asI102
(lp101
I0
aI0
aI0
asI103
(lp102
I0
aI0
aI0
asI104
(lp103
I0
aI0
aI0
asI105
(lp104
I0
aI0
aI0
asI106
(lp105
I0
aI1
aI81
asI107
(lp106
I1
aI0
aI0
asI108
(lp107
I0
aI0
aI0
asI109
(lp108
I0
aI0
aI7
asI110
(lp109
I0
aI0
aI3
asI111
(lp110
I0
aI0
aI10
asI112
(lp111
I0
aI0
aI1
asI113
(lp112
I0
aI0
aI0
asI114
(lp113
I0
aI0
aI0
asI115
(lp114
I0
aI0
aI1
asI116
(lp115
I0
aI1
aI4
asI117
(lp116
I0
aI0
aI0
asI118
(lp117
I19
aI6
aI295
asI119
(lp118
I0
aI0
aI0
asI120
(lp119
I0
aI0
aI0
asI121
(lp120
I0
aI1
aI11
asI122
(lp121
I0
aI0
aI1
asI123
(lp122
I0
aI0
aI0
asI124
(lp123
I1
aI6
aI8
asI125
(lp124
I0
aI0
aI0
asI126
(lp125
I0
aI0
aI1
asI127
(lp126
I0
aI0
aI1
asI128
(lp127
I1
aI0
aI25
asI129
(lp128
I0
aI0
aI0
asI130
(lp129
I0
aI0
aI0
asI131
(lp130
I1
aI0
aI5
asI132
(lp131
I0
aI0
aI38
asI133
(lp132
I1
aI0
aI13
asI134
(lp133
I0
aI0
aI1
asI135
(lp134
I0
aI0
aI1
asI136
(lp135
I1
aI1
aI1
asI137
(lp136
I0
aI0
aI0
asI138
(lp137
I0
aI0
aI1
asI139
(lp138
I0
aI0
aI2
asI141
(lp139
I0
aI0
aI2
asI142
(lp140
I0
aI0
aI0
asI143
(lp141
I0
aI0
aI1
asI144
(lp142
I11
aI0
aI43
asI145
(lp143
I1
aI0
aI1
asI146
(lp144
I0
aI0
aI0
asI147
(lp145
I0
aI0
aI3
asI148
(lp146
I0
aI0
aI16
asI149
(lp147
I0
aI0
aI0
asI150
(lp148
I0
aI0
aI13
asI151
(lp149
I0
aI0
aI2
asI152
(lp150
I3
aI2
aI157
asI153
(lp151
I0
aI0
aI1
asI154
(lp152
I0
aI0
aI0
asI155
(lp153
I0
aI0
aI1
asI156
(lp154
I0
aI0
aI1
asI157
(lp155
I0
aI0
aI0
asI158
(lp156
I0
aI0
aI0
asI159
(lp157
I0
aI0
aI0
asI160
(lp158
I0
aI0
aI0
asI161
(lp159
I0
aI0
aI0
asI162
(lp160
I0
aI0
aI0
asI163
(lp161
I0
aI0
aI0
asI164
(lp162
I1
aI0
aI57
asI165
(lp163
I0
aI0
aI0
asI166
(lp164
I0
aI0
aI0
asI167
(lp165
I0
aI0
aI0
asI168
(lp166
I0
aI0
aI0
asI169
(lp167
I0
aI0
aI0
asI170
(lp168
I1
aI0
aI3
asI171
(lp169
I0
aI0
aI4
asI172
(lp170
I0
aI0
aI14
asI173
(lp171
I0
aI0
aI0
asI174
(lp172
I0
aI0
aI0
asI175
(lp173
I0
aI0
aI0
asI176
(lp174
I0
aI0
aI0
asI177
(lp175
I0
aI0
aI0
asI178
(lp176
I0
aI0
aI0
asI179
(lp177
I0
aI0
aI0
asI180
(lp178
I0
aI0
aI3
asI182
(lp179
I0
aI0
aI3
asI183
(lp180
I3
aI1
aI185
asI184
(lp181
I0
aI0
aI0
asI185
(lp182
I0
aI0
aI0
asI186
(lp183
I0
aI0
aI0
asI187
(lp184
I0
aI0
aI0
asI188
(lp185
I0
aI0
aI0
asI189
(lp186
I1
aI0
aI1
asI190
(lp187
I0
aI0
aI0
asI191
(lp188
I0
aI0
aI0
asI192
(lp189
I0
aI0
aI0
asI193
(lp190
I0
aI0
aI0
asI194
(lp191
I0
aI1
aI1
asI195
(lp192
I0
aI0
aI0
asI196
(lp193
I0
aI0
aI1
asI197
(lp194
I1
aI1
aI3
asI198
(lp195
I0
aI0
aI0
asI199
(lp196
I0
aI0
aI0
asI200
(lp197
I0
aI0
aI0
asI201
(lp198
I0
aI0
aI0
asI202
(lp199
I0
aI0
aI0
asI203
(lp200
I3
aI1
aI103
asI204
(lp201
I0
aI0
aI0
asI205
(lp202
I0
aI0
aI0
asI206
(lp203
I0
aI0
aI0
asI207
(lp204
I0
aI0
aI9
asI208
(lp205
I0
aI0
aI0
asI209
(lp206
I1
aI0
aI0
asI210
(lp207
I3
aI0
aI5
asI211
(lp208
I0
aI0
aI1
asI212
(lp209
I0
aI0
aI0
asI213
(lp210
I2
aI9
aI71
asI214
(lp211
I0
aI0
aI0
asI215
(lp212
I2
aI1
aI1
asI216
(lp213
I0
aI0
aI0
asI217
(lp214
I0
aI0
aI1
asI218
(lp215
I0
aI0
aI10
asI219
(lp216
I0
aI0
aI0
asI220
(lp217
I1
aI0
aI1
asI221
(lp218
I0
aI0
aI0
asI222
(lp219
I0
aI0
aI0
asI223
(lp220
I0
aI4
aI8
asI224
(lp221
I0
aI0
aI3
asI225
(lp222
I2
aI0
aI18
asI226
(lp223
I0
aI0
aI0
asI227
(lp224
I0
aI0
aI1
asI228
(lp225
I0
aI0
aI1
asI229
(lp226
I0
aI0
aI0
asI230
(lp227
I0
aI0
aI0
asI231
(lp228
I0
aI0
aI0
asI232
(lp229
I0
aI0
aI0
asI233
(lp230
I0
aI0
aI0
asI234
(lp231
I0
aI0
aI0
asI235
(lp232
I6
aI0
aI20
asI236
(lp233
I0
aI0
aI0
asI237
(lp234
I0
aI0
aI0
asI238
(lp235
I0
aI0
aI0
asI239
(lp236
I0
aI0
aI0
asI240
(lp237
I0
aI0
aI1
asI241
(lp238
I0
aI0
aI0
asI242
(lp239
I0
aI0
aI4
asI243
(lp240
I0
aI0
aI0
asI244
(lp241
I0
aI0
aI0
asI245
(lp242
I0
aI0
aI0
asI246
(lp243
I0
aI0
aI0
asI247
(lp244
I0
aI0
aI0
asI248
(lp245
I0
aI0
aI0
asI249
(lp246
I0
aI0
aI0
asI250
(lp247
I1
aI0
aI0
asI251
(lp248
I0
aI0
aI0
asI252
(lp249
I0
aI0
aI3
asI253
(lp250
I2
aI1
aI4
asI254
(lp251
I0
aI0
aI0
asI255
(lp252
I0
aI0
aI0
asI256
(lp253
I0
aI0
aI0
asI257
(lp254
I0
aI0
aI0
asI258
(lp255
I0
aI0
aI1
asI259
(lp256
I0
aI0
aI0
asI260
(lp257
I0
aI1
aI0
asI261
(lp258
I0
aI0
aI0
asI262
(lp259
I0
aI0
aI5
asI263
(lp260
I0
aI0
aI0
asI264
(lp261
I0
aI0
aI0
asI265
(lp262
I0
aI0
aI4
asI266
(lp263
I0
aI0
aI0
asI267
(lp264
I0
aI0
aI0
asI268
(lp265
I0
aI0
aI1
asI269
(lp266
I0
aI0
aI1
asI270
(lp267
I0
aI0
aI0
asI271
(lp268
I0
aI0
aI0
asI272
(lp269
I0
aI0
aI0
asI273
(lp270
I0
aI0
aI0
asI274
(lp271
I0
aI0
aI0
asI275
(lp272
I0
aI0
aI0
asI277
(lp273
I0
aI0
aI0
asI278
(lp274
I0
aI1
aI0
asI279
(lp275
I0
aI0
aI0
asI280
(lp276
I0
aI0
aI0
asI282
(lp277
I0
aI0
aI0
asI283
(lp278
I0
aI0
aI4
asI284
(lp279
I0
aI0
aI0
asI285
(lp280
I0
aI0
aI0
asI286
(lp281
I0
aI0
aI0
asI287
(lp282
I0
aI0
aI0
asI288
(lp283
I0
aI0
aI9
asI289
(lp284
I1
aI0
aI2
asI290
(lp285
I0
aI0
aI0
asI291
(lp286
I0
aI0
aI12
asI292
(lp287
I1
aI0
aI14
asI293
(lp288
I4
aI0
aI9
asI294
(lp289
I0
aI0
aI0
asI295
(lp290
I0
aI0
aI0
asI296
(lp291
I1
aI0
aI2
asI297
(lp292
I0
aI0
aI3
asI298
(lp293
I0
aI0
aI0
asI299
(lp294
I0
aI0
aI4
asI300
(lp295
I0
aI0
aI0
asI301
(lp296
I0
aI0
aI0
asI302
(lp297
I0
aI0
aI0
asI303
(lp298
I0
aI0
aI3
asI305
(lp299
I0
aI0
aI1
asI306
(lp300
I0
aI0
aI0
asI307
(lp301
I1
aI0
aI1
asI308
(lp302
I0
aI0
aI0
asI309
(lp303
I0
aI0
aI0
asI310
(lp304
I0
aI0
aI0
asI311
(lp305
I0
aI0
aI0
asI312
(lp306
I0
aI0
aI0
asI313
(lp307
I0
aI0
aI0
asI314
(lp308
I0
aI0
aI0
asI315
(lp309
I1
aI0
aI1
asI316
(lp310
I0
aI0
aI0
asI317
(lp311
I0
aI0
aI0
asI318
(lp312
I0
aI0
aI0
asI319
(lp313
I1
aI0
aI0
asI320
(lp314
I1
aI0
aI1
asI321
(lp315
I0
aI0
aI1
asI322
(lp316
I0
aI0
aI0
asI323
(lp317
I0
aI0
aI0
asI324
(lp318
I0
aI16
aI4
asI325
(lp319
I0
aI0
aI2
asI326
(lp320
I0
aI0
aI0
asI327
(lp321
I0
aI0
aI0
asI328
(lp322
I0
aI0
aI0
asI329
(lp323
I0
aI0
aI0
asI330
(lp324
I0
aI0
aI0
asI331
(lp325
I0
aI0
aI0
asI332
(lp326
I0
aI0
aI0
asI333
(lp327
I0
aI0
aI16
asI334
(lp328
I0
aI0
aI0
asI335
(lp329
I0
aI0
aI0
asI336
(lp330
I0
aI0
aI0
asI337
(lp331
I1
aI0
aI1
asI338
(lp332
I0
aI1
aI1
asI339
(lp333
I0
aI0
aI6
asI340
(lp334
I0
aI0
aI0
asI341
(lp335
I0
aI0
aI0
asI342
(lp336
I0
aI0
aI1
asI343
(lp337
I1
aI0
aI1
asI344
(lp338
I0
aI0
aI0
asI345
(lp339
I0
aI0
aI0
asI346
(lp340
I0
aI0
aI0
asI347
(lp341
I0
aI0
aI0
asI348
(lp342
I0
aI0
aI0
asI349
(lp343
I0
aI0
aI0
asI350
(lp344
I0
aI0
aI0
asI351
(lp345
I0
aI0
aI0
asI352
(lp346
I0
aI0
aI0
asI353
(lp347
I0
aI0
aI1
asI354
(lp348
I0
aI0
aI4
asI355
(lp349
I1
aI0
aI0
asI356
(lp350
I0
aI0
aI0
asI357
(lp351
I0
aI0
aI0
asI358
(lp352
I4
aI0
aI5
asI359
(lp353
I0
aI0
aI0
asI360
(lp354
I1
aI0
aI0
asI361
(lp355
I0
aI0
aI0
asI362
(lp356
I0
aI0
aI0
asI363
(lp357
I0
aI0
aI0
asI364
(lp358
I0
aI0
aI4
asI365
(lp359
I0
aI0
aI0
asI366
(lp360
I0
aI0
aI1
asI367
(lp361
I0
aI0
aI0
asI368
(lp362
I0
aI0
aI2
asI369
(lp363
I0
aI0
aI0
asI370
(lp364
I0
aI0
aI0
asI371
(lp365
I0
aI0
aI0
asI372
(lp366
I0
aI0
aI0
asI373
(lp367
I0
aI0
aI0
asI375
(lp368
I0
aI0
aI0
asI376
(lp369
I0
aI0
aI0
asI377
(lp370
I0
aI0
aI0
asI378
(lp371
I0
aI0
aI0
asI379
(lp372
I0
aI0
aI0
asI380
(lp373
I2
aI0
aI3
asI381
(lp374
I0
aI0
aI0
asI382
(lp375
I0
aI0
aI0
asI383
(lp376
I0
aI0
aI0
asI384
(lp377
I0
aI0
aI0
asI385
(lp378
I0
aI0
aI0
asI386
(lp379
I0
aI2
aI6
asI387
(lp380
I0
aI0
aI0
asI388
(lp381
I0
aI0
aI0
asI389
(lp382
I0
aI0
aI1
asI390
(lp383
I0
aI0
aI3
asI391
(lp384
I0
aI0
aI2
asI392
(lp385
I0
aI0
aI0
asI393
(lp386
I0
aI0
aI2
asI394
(lp387
I0
aI0
aI0
asI395
(lp388
I0
aI0
aI0
asI396
(lp389
I0
aI0
aI0
asI397
(lp390
I0
aI0
aI1
asI398
(lp391
I0
aI0
aI2
asI399
(lp392
I1
aI0
aI1
asI400
(lp393
I0
aI0
aI0
asI401
(lp394
I1
aI0
aI2
asI402
(lp395
I1
aI0
aI3
asI403
(lp396
I0
aI0
aI0
asI404
(lp397
I0
aI0
aI7
asI405
(lp398
I0
aI0
aI0
asI406
(lp399
I0
aI2
aI3
asI407
(lp400
I0
aI0
aI0
asI408
(lp401
I0
aI0
aI0
asI409
(lp402
I0
aI0
aI0
asI410
(lp403
I0
aI0
aI0
asI411
(lp404
I0
aI0
aI0
asI412
(lp405
I0
aI0
aI0
asI413
(lp406
I0
aI0
aI1
asI414
(lp407
I0
aI0
aI0
asI415
(lp408
I0
aI0
aI0
asI416
(lp409
I0
aI0
aI0
asI417
(lp410
I0
aI0
aI0
asI418
(lp411
I0
aI0
aI0
asI419
(lp412
I0
aI0
aI0
asI420
(lp413
I0
aI0
aI0
asI421
(lp414
I0
aI0
aI0
asI422
(lp415
I0
aI0
aI0
asI423
(lp416
I0
aI2
aI2
asI424
(lp417
I0
aI0
aI0
asI425
(lp418
I0
aI0
aI0
asI426
(lp419
I0
aI0
aI0
asI427
(lp420
I0
aI0
aI0
asI428
(lp421
I0
aI0
aI0
asI429
(lp422
I0
aI0
aI0
asI430
(lp423
I0
aI0
aI0
asI431
(lp424
I0
aI0
aI0
asI432
(lp425
I0
aI0
aI0
asI433
(lp426
I0
aI0
aI0
asI434
(lp427
I0
aI0
aI0
asI435
(lp428
I0
aI0
aI5
asI436
(lp429
I0
aI0
aI0
asI437
(lp430
I0
aI0
aI0
asI438
(lp431
I0
aI0
aI0
asI439
(lp432
I0
aI0
aI2
asI440
(lp433
I0
aI0
aI0
asI441
(lp434
I0
aI0
aI1
asI442
(lp435
I0
aI0
aI1
asI443
(lp436
I0
aI0
aI0
asI444
(lp437
I0
aI0
aI0
asI445
(lp438
I0
aI0
aI6
asI446
(lp439
I0
aI0
aI0
asI447
(lp440
I0
aI1
aI0
asI448
(lp441
I0
aI0
aI2
asI449
(lp442
I0
aI0
aI1
asI450
(lp443
I0
aI0
aI1
asI451
(lp444
I0
aI0
aI0
asI452
(lp445
I0
aI1
aI0
asI453
(lp446
I0
aI0
aI0
asI454
(lp447
I0
aI0
aI0
asI455
(lp448
I0
aI0
aI0
asI456
(lp449
I0
aI0
aI1
asI457
(lp450
I0
aI0
aI0
asI458
(lp451
I0
aI0
aI6
asI459
(lp452
I1
aI1
aI0
asI460
(lp453
I0
aI0
aI0
asI461
(lp454
I0
aI0
aI3
asI462
(lp455
I0
aI0
aI2
asI463
(lp456
I0
aI0
aI0
asI464
(lp457
I0
aI0
aI3
asI465
(lp458
I0
aI0
aI1
asI466
(lp459
I0
aI0
aI1
asI467
(lp460
I0
aI0
aI0
asI468
(lp461
I0
aI0
aI1
asI469
(lp462
I2
aI15
aI41
asI470
(lp463
I0
aI0
aI0
asI471
(lp464
I0
aI0
aI0
asI472
(lp465
I0
aI0
aI0
asI473
(lp466
I1
aI0
aI1
asI474
(lp467
I0
aI0
aI0
asI475
(lp468
I0
aI0
aI0
asI476
(lp469
I1
aI0
aI0
asI477
(lp470
I0
aI0
aI0
asI478
(lp471
I0
aI0
aI0
asI479
(lp472
I0
aI0
aI0
asI480
(lp473
I1
aI0
aI1
asI481
(lp474
I0
aI0
aI0
asI482
(lp475
I0
aI0
aI0
asI483
(lp476
I1
aI0
aI1
asI484
(lp477
I0
aI0
aI0
asI485
(lp478
I1
aI0
aI0
asI486
(lp479
I1
aI0
aI3
asI487
(lp480
I1
aI0
aI0
asI488
(lp481
I0
aI0
aI0
asI489
(lp482
I0
aI0
aI0
asI490
(lp483
I1
aI0
aI0
asI491
(lp484
I0
aI0
aI1
asI492
(lp485
I0
aI0
aI0
asI493
(lp486
I0
aI0
aI0
asI494
(lp487
I0
aI0
aI0
asI495
(lp488
I0
aI0
aI0
asI496
(lp489
I1
aI0
aI0
asI497
(lp490
I0
aI0
aI1
asI498
(lp491
I1
aI0
aI0
asI499
(lp492
I0
aI0
aI0
asI500
(lp493
I0
aI0
aI0
asI501
(lp494
I0
aI0
aI0
asI502
(lp495
I1
aI0
aI0
asI503
(lp496
I0
aI0
aI0
asI504
(lp497
I0
aI0
aI0
asI505
(lp498
I2
aI0
aI2
asI506
(lp499
I0
aI0
aI0
asI507
(lp500
I0
aI0
aI0
asI508
(lp501
I0
aI0
aI0
asI509
(lp502
I0
aI0
aI0
asI510
(lp503
I0
aI0
aI2
asI511
(lp504
I0
aI0
aI0
asI512
(lp505
I0
aI0
aI0
asI513
(lp506
I0
aI0
aI0
asI514
(lp507
I0
aI0
aI0
asI515
(lp508
I1
aI0
aI0
asI516
(lp509
I0
aI0
aI0
asI517
(lp510
I0
aI0
aI0
asI518
(lp511
I1
aI0
aI1
asI519
(lp512
I0
aI0
aI13
asI520
(lp513
I0
aI0
aI0
asI521
(lp514
I0
aI0
aI0
asI522
(lp515
I0
aI3
aI11
asI523
(lp516
I1
aI0
aI1
asI524
(lp517
I0
aI0
aI0
asI525
(lp518
I0
aI0
aI0
asI526
(lp519
I0
aI0
aI1
asI527
(lp520
I0
aI0
aI0
asI528
(lp521
I0
aI0
aI0
asI529
(lp522
I0
aI0
aI0
asI530
(lp523
I0
aI0
aI0
asI531
(lp524
I0
aI0
aI0
asI532
(lp525
I0
aI0
aI0
asI533
(lp526
I0
aI0
aI0
asI534
(lp527
I0
aI0
aI0
asI535
(lp528
I0
aI0
aI0
asI536
(lp529
I0
aI0
aI0
asI537
(lp530
I1
aI0
aI1
asI538
(lp531
I1
aI0
aI2
asI539
(lp532
I0
aI2
aI0
asI540
(lp533
I0
aI0
aI0
asI541
(lp534
I0
aI0
aI0
asI542
(lp535
I0
aI0
aI0
asI543
(lp536
I0
aI0
aI0
asI-1
(lp537
I0
aI0
aI9
as.