(dp0
I0
(lp1
I10
aI69
aI0
asI1
(lp2
I0
aI0
aI2
asI2
(lp3
I0
aI0
aI12
asI3
(lp4
I0
aI0
aI0
asI4
(lp5
I0
aI0
aI0
asI5
(lp6
I0
aI0
aI2
asI6
(lp7
I0
aI0
aI9
asI7
(lp8
I16
aI7
aI578
asI8
(lp9
I0
aI0
aI13
asI9
(lp10
I0
aI1
aI0
asI10
(lp11
I0
aI8
aI20
asI11
(lp12
I1
aI0
aI11
asI12
(lp13
I0
aI1
aI18
asI13
(lp14
I3
aI1
aI10
asI14
(lp15
I0
aI0
aI1
asI15
(lp16
I0
aI0
aI0
asI16
(lp17
I22
aI67
aI436
asI17
(lp18
I0
aI0
aI1
asI18
(lp19
I0
aI0
aI0
asI19
(lp20
I0
aI0
aI2
asI20
(lp21
I0
aI0
aI57
asI21
(lp22
I1
aI0
aI2
asI22
(lp23
I0
aI0
aI0
asI23
(lp24
I1
aI0
aI30
asI24
(lp25
I8
aI6
aI117
asI25
(lp26
I0
aI0
aI1
asI26
(lp27
I2
aI0
aI16
asI27
(lp28
I1
aI6
aI95
asI28
(lp29
I2
aI2
aI12
asI29
(lp30
I1
aI8
aI221
asI30
(lp31
I4
aI5
aI51
asI31
(lp32
I0
aI1
aI26
asI32
(lp33
I0
aI0
aI0
asI33
(lp34
I1
aI0
aI0
asI34
(lp35
I2
aI2
aI94
asI35
(lp36
I2
aI2
aI15
asI36
(lp37
I0
aI5
aI14
asI37
(lp38
I0
aI2
aI49
asI38
(lp39
I0
aI0
aI1
asI39
(lp40
I0
aI0
aI0
asI40
(lp41
I0
aI0
aI0
asI41
(lp42
I0
aI2
aI6
asI42
(lp43
I2
aI6
aI67
asI43
(lp44
I0
aI0
aI3
asI44
(lp45
I0
aI0
aI0
asI45
(lp46
I0
aI0
aI0
asI46
(lp47
I0
aI0
aI1
asI47
(lp48
I24
aI2
aI101
asI48
(lp49
I0
aI6
aI153
asI49
(lp50
I0
aI1
aI4
asI50
(lp51
I5
aI2
aI43
asI51
(lp52
I0
aI0
aI1
asI52
(lp53
I4
aI2
aI7
asI53
(lp54
I17
aI61
aI140
asI54
(lp55
I0
aI0
aI1
asI55
(lp56
I0
aI0
aI0
asI56
(lp57
I0
aI0
aI17
asI57
(lp58
I0
aI0
aI3
asI58
(lp59
I7
aI4
aI29
asI59
(lp60
I1
aI1
aI2
asI60
(lp61
I0
aI0
aI0
asI61
(lp62
I0
aI0
aI0
asI62
(lp63
I0
aI0
aI5
asI63
(lp64
I3
aI2
aI106
asI64
(lp65
I0
aI0
aI27
asI65
(lp66
I1
aI29
aI20
asI66
(lp67
I0
aI0
aI0
asI67
(lp68
I3
aI0
aI64
asI68
(lp69
I0
aI0
aI0
asI69
(lp70
I0
aI0
aI0
asI70
(lp71
I14
aI15
aI871
asI71
(lp72
I2
aI2
aI30
asI72
(lp73
I0
aI0
aI7
asI73
(lp74
I0
aI1
aI16
asI74
(lp75
I4
aI0
aI39
asI75
(lp76
I0
aI1
aI6
asI76
(lp77
I0
aI0
aI0
asI77
(lp78
I0
aI0
aI3
asI78
(lp79
I0
aI0
aI0
asI79
(lp80
I3
aI6
aI70
asI80
(lp81
I1
aI2
aI42
asI81
(lp82
I0
aI0
aI2
asI82
(lp83
I0
aI0
aI1
asI83
(lp84
I3
aI2
aI17
asI84
(lp85
I2
aI65
aI103
asI85
(lp86
I0
aI0
aI1
asI86
(lp87
I0
aI0
aI1
asI87
(lp88
I0
aI0
aI2
asI88
(lp89
I0
aI3
aI5
asI89
(lp90
I2
aI1
aI4
asI90
(lp91
I0
aI2
aI21
asI91
(lp92
I0
aI3
aI29
asI92
(lp93
I9
aI93
aI250
asI93
(lp94
I1
aI0
aI0
asI94
(lp95
I0
aI1
aI3
asI95
(lp96
I0
aI0
aI0
asI96
(lp97
I0
aI0
aI0
asI98
(lp98
I0
aI0
aI0
asI99
(lp99
I0
aI8
aI37
asI100
(lp100
I0
aI0
aI1
asI101
(lp101
I0
aI0
aI1
asI102
(lp102
I1
aI2
aI31
asI103
(lp103
I1
aI0
aI0
asI104
(lp104
I0
aI0
aI4
asI105
(lp105
I0
aI0
aI97
asI106
(lp106
I0
aI0
aI0
asI107
(lp107
I6
aI1
aI109
asI108
(lp108
I1
aI15
aI181
asI109
(lp109
I0
aI2
aI40
asI110
(lp110
I0
aI0
aI0
asI111
(lp111
I1
aI0
aI9
asI112
(lp112
I0
aI0
aI5
asI113
(lp113
I0
aI0
aI0
asI114
(lp114
I0
aI0
aI0
asI115
(lp115
I0
aI0
aI0
asI116
(lp116
I0
aI0
aI5
asI117
(lp117
I0
aI0
aI4
asI118
(lp118
I0
aI0
aI0
asI119
(lp119
I2
aI2
aI23
asI120
(lp120
I0
aI0
aI0
asI121
(lp121
I2
aI0
aI5
asI122
(lp122
I9
aI0
aI91
asI123
(lp123
I0
aI0
aI5
asI124
(lp124
I4
aI2
aI15
asI125
(lp125
I1
aI0
aI1
asI126
(lp126
I0
aI0
aI3
asI127
(lp127
I0
aI0
aI0
asI128
(lp128
I0
aI0
aI0
asI129
(lp129
I2
aI17
aI93
asI130
(lp130
I0
aI0
aI0
asI131
(lp131
I6
aI26
aI88
asI132
(lp132
I0
aI0
aI0
asI133
(lp133
I1
aI0
aI9
asI134
(lp134
I1
aI0
aI19
asI135
(lp135
I0
aI0
aI0
asI136
(lp136
I0
aI0
aI5
asI137
(lp137
I3
aI0
aI30
asI138
(lp138
I3
aI0
aI12
asI139
(lp139
I0
aI2
aI3
asI140
(lp140
I0
aI0
aI0
asI141
(lp141
I0
aI0
aI1
asI142
(lp142
I0
aI0
aI5
asI143
(lp143
I0
aI0
aI0
asI144
(lp144
I10
aI1
aI35
asI145
(lp145
I0
aI0
aI0
asI146
(lp146
I0
aI0
aI0
asI147
(lp147
I0
aI0
aI0
asI148
(lp148
I0
aI0
aI0
asI150
(lp149
I0
aI0
aI1
asI151
(lp150
I0
aI0
aI0
asI153
(lp151
I0
aI0
aI0
asI154
(lp152
I0
aI0
aI0
asI155
(lp153
I0
aI0
aI0
asI156
(lp154
I0
aI0
aI0
asI157
(lp155
I0
aI0
aI0
asI158
(lp156
I0
aI0
aI0
asI159
(lp157
I0
aI0
aI0
asI160
(lp158
I0
aI5
aI33
asI161
(lp159
I0
aI0
aI2
asI162
(lp160
I0
aI0
aI0
asI163
(lp161
I0
aI2
aI13
asI164
(lp162
I0
aI0
aI7
asI165
(lp163
I0
aI0
aI28
asI166
(lp164
I0
aI4
aI12
asI167
(lp165
I0
aI1
aI8
asI168
(lp166
I0
aI0
aI0
asI169
(lp167
I0
aI0
aI0
asI170
(lp168
I0
aI0
aI1
asI171
(lp169
I0
aI0
aI0
asI172
(lp170
I0
aI0
aI4
asI173
(lp171
I0
aI0
aI3
asI174
(lp172
I0
aI25
aI21
asI175
(lp173
I0
aI0
aI11
asI176
(lp174
I0
aI0
aI0
asI177
(lp175
I0
aI0
aI2
asI178
(lp176
I0
aI0
aI68
asI179
(lp177
I0
aI0
aI0
asI180
(lp178
I0
aI0
aI0
asI181
(lp179
I0
aI0
aI0
asI182
(lp180
I0
aI0
aI0
asI183
(lp181
I0
aI0
aI0
asI184
(lp182
I0
aI0
aI3
asI185
(lp183
I1
aI0
aI1
asI186
(lp184
I0
aI0
aI0
asI187
(lp185
I0
aI0
aI0
asI189
(lp186
I0
aI0
aI0
asI190
(lp187
I0
aI0
aI1
asI191
(lp188
I0
aI0
aI16
asI192
(lp189
I0
aI0
aI0
asI193
(lp190
I0
aI0
aI0
asI194
(lp191
I0
aI0
aI0
asI197
(lp192
I0
aI4
aI3
asI198
(lp193
I0
aI0
aI0
asI199
(lp194
I0
aI0
aI0
asI200
(lp195
I0
aI0
aI2
asI201
(lp196
I0
aI0
aI1
asI202
(lp197
I1
aI0
aI2
asI203
(lp198
I0
aI0
aI3
asI204
(lp199
I8
aI15
aI601
asI205
(lp200
I0
aI0
aI5
asI206
(lp201
I0
aI0
aI0
asI207
(lp202
I0
aI0
aI0
asI208
(lp203
I0
aI0
aI34
asI209
(lp204
I0
aI0
aI0
asI210
(lp205
I0
aI0
aI0
asI211
(lp206
I0
aI0
aI0
asI212
(lp207
I1
aI0
aI3
asI213
(lp208
I0
aI0
aI0
asI214
(lp209
I0
aI0
aI9
asI215
(lp210
I1
aI0
aI1
asI216
(lp211
I0
aI0
aI0
asI217
(lp212
I0
aI0
aI1
asI218
(lp213
I0
aI0
aI15
asI219
(lp214
I0
aI0
aI1
asI220
(lp215
I0
aI0
aI0
asI221
(lp216
I0
aI0
aI0
asI222
(lp217
I0
aI0
aI0
asI223
(lp218
I3
aI1
aI26
asI224
(lp219
I0
aI0
aI0
asI225
(lp220
I0
aI0
aI0
asI229
(lp221
I0
aI0
aI0
asI230
(lp222
I0
aI0
aI0
asI231
(lp223
I0
aI0
aI0
asI232
(lp224
I0
aI0
aI0
asI233
(lp225
I1
aI0
aI7
asI234
(lp226
I0
aI0
aI0
asI235
(lp227
I0
aI0
aI0
asI236
(lp228
I0
aI0
aI0
asI237
(lp229
I1
aI0
aI2
asI238
(lp230
I0
aI0
aI0
asI239
(lp231
I0
aI0
aI0
asI240
(lp232
I0
aI0
aI4
asI241
(lp233
I1
aI0
aI0
asI242
(lp234
I0
aI1
aI5
asI243
(lp235
I1
aI8
aI81
asI244
(lp236
I0
aI0
aI0
asI245
(lp237
I0
aI1
aI5
asI246
(lp238
I0
aI0
aI41
asI247
(lp239
I0
aI0
aI0
asI248
(lp240
I0
aI0
aI0
asI249
(lp241
I0
aI0
aI0
asI250
(lp242
I0
aI0
aI0
asI251
(lp243
I0
aI0
aI0
asI252
(lp244
I0
aI0
aI0
asI253
(lp245
I0
aI0
aI0
asI254
(lp246
I0
aI0
aI0
asI255
(lp247
I0
aI0
aI0
asI256
(lp248
I1
aI5
aI7
asI257
(lp249
I0
aI0
aI0
asI258
(lp250
I1
aI0
aI2
asI259
(lp251
I0
aI0
aI0
asI260
(lp252
I0
aI0
aI0
asI261
(lp253
I0
aI0
aI0
asI262
(lp254
I0
aI0
aI0
asI263
(lp255
I0
aI0
aI1
asI264
(lp256
I0
aI0
aI0
asI265
(lp257
I0
aI0
aI0
asI266
(lp258
I0
aI0
aI0
asI268
(lp259
I0
aI0
aI0
asI269
(lp260
I0
aI0
aI0
asI270
(lp261
I0
aI0
aI0
asI271
(lp262
I2
aI1
aI3
asI272
(lp263
I0
aI0
aI0
asI273
(lp264
I0
aI0
aI0
asI274
(lp265
I0
aI0
aI0
asI275
(lp266
I0
aI0
aI0
asI276
(lp267
I0
aI0
aI0
asI277
(lp268
I0
aI1
aI0
asI278
(lp269
I0
aI0
aI3
asI279
(lp270
I0
aI0
aI0
asI280
(lp271
I1
aI0
aI4
asI281
(lp272
I1
aI0
aI0
asI282
(lp273
I0
aI0
aI4
asI283
(lp274
I0
aI0
aI0
asI284
(lp275
I1
aI0
aI1
asI285
(lp276
I0
aI0
aI0
asI286
(lp277
I0
aI1
aI2
asI287
(lp278
I0
aI3
aI1
asI288
(lp279
I0
aI0
aI0
asI289
(lp280
I0
aI0
aI0
asI290
(lp281
I1
aI0
aI0
asI291
(lp282
I0
aI0
aI0
asI292
(lp283
I0
aI0
aI0
asI293
(lp284
I0
aI0
aI0
asI294
(lp285
I0
aI0
aI2
asI295
(lp286
I0
aI1
aI8
asI296
(lp287
I0
aI0
aI0
asI297
(lp288
I0
aI5
aI17
asI298
(lp289
I0
aI0
aI0
asI299
(lp290
I0
aI0
aI8
asI300
(lp291
I0
aI0
aI0
asI302
(lp292
I0
aI0
aI7
asI303
(lp293
I0
aI0
aI1
asI304
(lp294
I0
aI0
aI0
asI305
(lp295
I0
aI1
aI1
asI306
(lp296
I0
aI0
aI0
asI307
(lp297
I0
aI0
aI0
asI308
(lp298
I0
aI2
aI1
asI309
(lp299
I1
aI6
aI40
asI310
(lp300
I0
aI0
aI0
asI311
(lp301
I0
aI0
aI0
asI312
(lp302
I0
aI5
aI1
asI313
(lp303
I0
aI0
aI0
asI314
(lp304
I0
aI0
aI0
asI315
(lp305
I0
aI0
aI0
asI316
(lp306
I1
aI3
aI711
asI317
(lp307
I0
aI0
aI0
asI318
(lp308
I0
aI0
aI0
asI319
(lp309
I1
aI0
aI7
asI320
(lp310
I1
aI0
aI3
asI321
(lp311
I0
aI0
aI0
asI322
(lp312
I1
aI0
aI6
asI323
(lp313
I0
aI0
aI1
asI324
(lp314
I0
aI0
aI2
asI325
(lp315
I0
aI1
aI1
asI326
(lp316
I2
aI0
aI3
asI327
(lp317
I0
aI0
aI0
asI328
(lp318
I0
aI2
aI0
asI329
(lp319
I0
aI0
aI0
asI330
(lp320
I0
aI0
aI0
asI331
(lp321
I0
aI0
aI1
asI332
(lp322
I0
aI0
aI0
asI333
(lp323
I0
aI0
aI4
asI334
(lp324
I0
aI1
aI0
asI335
(lp325
I0
aI0
aI0
asI336
(lp326
I0
aI0
aI0
asI337
(lp327
I0
aI0
aI0
asI338
(lp328
I0
aI0
aI0
asI339
(lp329
I0
aI0
aI0
asI340
(lp330
I0
aI0
aI0
asI341
(lp331
I0
aI0
aI0
asI342
(lp332
I1
aI0
aI1
asI343
(lp333
I0
aI0
aI4
asI344
(lp334
I0
aI0
aI0
asI345
(lp335
I0
aI0
aI0
asI346
(lp336
I0
aI0
aI0
asI347
(lp337
I0
aI0
aI0
asI348
(lp338
I0
aI0
aI8
asI349
(lp339
I1
aI0
aI4
asI350
(lp340
I0
aI0
aI0
asI351
(lp341
I0
aI0
aI0
asI352
(lp342
I0
aI0
aI1
asI353
(lp343
I0
aI0
aI0
asI354
(lp344
I0
aI0
aI1
asI355
(lp345
I0
aI0
aI0
asI356
(lp346
I2
aI1
aI2
asI357
(lp347
I0
aI0
aI1
asI358
(lp348
I0
aI0
aI0
asI359
(lp349
I0
aI0
aI0
asI360
(lp350
I1
aI0
aI0
asI361
(lp351
I0
aI0
aI8
asI362
(lp352
I0
aI0
aI0
asI364
(lp353
I0
aI0
aI0
asI365
(lp354
I0
aI0
aI0
asI366
(lp355
I0
aI0
aI0
asI367
(lp356
I0
aI0
aI4
asI368
(lp357
I0
aI0
aI0
asI369
(lp358
I1
aI0
aI1
asI370
(lp359
I0
aI1
aI0
asI371
(lp360
I0
aI1
aI0
asI373
(lp361
I0
aI0
aI1
asI374
(lp362
I0
aI0
aI1
asI375
(lp363
I0
aI0
aI0
asI376
(lp364
I0
aI0
aI0
asI377
(lp365
I0
aI0
aI0
asI378
(lp366
I0
aI0
aI0
asI379
(lp367
I0
aI0
aI0
asI380
(lp368
I0
aI0
aI0
asI381
(lp369
I0
aI0
aI0
asI382
(lp370
I1
aI0
aI0
asI383
(lp371
I0
aI0
aI0
asI384
(lp372
I0
aI0
aI0
asI385
(lp373
I0
aI0
aI0
asI386
(lp374
I0
aI0
aI0
asI387
(lp375
I0
aI0
aI0
asI388
(lp376
I0
aI0
aI2
asI389
(lp377
I0
aI0
aI0
asI390
(lp378
I0
aI0
aI0
asI391
(lp379
I0
aI0
aI0
asI392
(lp380
I0
aI0
aI0
asI393
(lp381
I0
aI0
aI0
asI395
(lp382
I0
aI0
aI0
asI396
(lp383
I0
aI1
aI4
asI397
(lp384
I1
aI0
aI0
asI398
(lp385
I0
aI0
aI0
asI399
(lp386
I0
aI0
aI0
asI400
(lp387
I0
aI0
aI0
asI401
(lp388
I3
aI0
aI4
asI402
(lp389
I0
aI0
aI0
asI403
(lp390
I0
aI0
aI0
asI404
(lp391
I1
aI1
aI0
asI405
(lp392
I1
aI0
aI1
asI406
(lp393
I0
aI0
aI0
asI407
(lp394
I0
aI0
aI0
asI408
(lp395
I8
aI3
aI1
asI409
(lp396
I0
aI0
aI0
asI410
(lp397
I1
aI0
aI0
asI411
(lp398
I0
aI0
aI2
asI412
(lp399
I0
aI0
aI0
asI413
(lp400
I0
aI0
aI0
asI414
(lp401
I0
aI0
aI0
asI415
(lp402
I0
aI0
aI0
asI416
(lp403
I0
aI0
aI0
asI417
(lp404
I0
aI0
aI0
asI419
(lp405
I0
aI0
aI0
asI420
(lp406
I0
aI0
aI0
asI421
(lp407
I0
aI0
aI0
asI422
(lp408
I0
aI0
aI0
asI424
(lp409
I0
aI0
aI0
asI425
(lp410
I1
aI0
aI0
asI426
(lp411
I0
aI1
aI10
asI427
(lp412
I0
aI0
aI0
asI428
(lp413
I0
aI4
aI0
asI429
(lp414
I1
aI0
aI1
asI430
(lp415
I0
aI0
aI1
asI431
(lp416
I2
aI35
aI315
asI432
(lp417
I0
aI0
aI0
asI433
(lp418
I0
aI0
aI0
asI434
(lp419
I0
aI0
aI0
asI435
(lp420
I0
aI0
aI0
asI436
(lp421
I0
aI0
aI0
asI437
(lp422
I1
aI0
aI0
asI438
(lp423
I0
aI0
aI0
asI439
(lp424
I0
aI0
aI0
asI440
(lp425
I0
aI0
aI0
asI441
(lp426
I0
aI0
aI0
asI442
(lp427
I0
aI0
aI0
asI443
(lp428
I0
aI0
aI0
asI444
(lp429
I0
aI0
aI0
asI445
(lp430
I0
aI0
aI0
asI446
(lp431
I0
aI0
aI0
asI447
(lp432
I0
aI0
aI0
asI448
(lp433
I0
aI0
aI0
asI449
(lp434
I0
aI0
aI0
asI450
(lp435
I0
aI0
aI0
asI451
(lp436
I0
aI0
aI0
asI452
(lp437
I0
aI0
aI0
asI453
(lp438
I0
aI0
aI0
asI454
(lp439
I0
aI0
aI0
asI455
(lp440
I0
aI0
aI0
asI456
(lp441
I0
aI0
aI0
asI457
(lp442
I0
aI0
aI0
asI458
(lp443
I0
aI0
aI0
asI459
(lp444
I1
aI0
aI6
asI460
(lp445
I0
aI0
aI0
asI461
(lp446
I0
aI1
aI0
asI462
(lp447
I3
aI0
aI2
asI463
(lp448
I0
aI0
aI0
asI464
(lp449
I0
aI1
aI0
asI465
(lp450
I0
aI0
aI0
asI466
(lp451
I0
aI0
aI0
asI467
(lp452
I1
aI0
aI0
asI468
(lp453
I1
aI0
aI0
asI470
(lp454
I0
aI0
aI1
asI471
(lp455
I0
aI1
aI0
asI472
(lp456
I0
aI0
aI0
asI473
(lp457
I1
aI0
aI3
asI474
(lp458
I0
aI0
aI0
asI475
(lp459
I0
aI0
aI0
asI476
(lp460
I0
aI0
aI1
asI477
(lp461
I0
aI0
aI0
asI478
(lp462
I0
aI1
aI0
asI480
(lp463
I0
aI1
aI0
asI481
(lp464
I0
aI0
aI2
asI482
(lp465
I0
aI0
aI0
asI483
(lp466
I0
aI0
aI2
asI485
(lp467
I0
aI0
aI0
asI486
(lp468
I0
aI0
aI0
asI487
(lp469
I0
aI0
aI0
asI488
(lp470
I0
aI5
aI15
asI489
(lp471
I0
aI0
aI0
asI490
(lp472
I0
aI0
aI2
asI491
(lp473
I0
aI0
aI0
asI492
(lp474
I0
aI0
aI0
asI493
(lp475
I0
aI0
aI0
asI494
(lp476
I1
aI1
aI0
asI495
(lp477
I1
aI0
aI2
asI496
(lp478
I0
aI0
aI0
asI497
(lp479
I0
aI2
aI0
asI498
(lp480
I1
aI0
aI0
asI499
(lp481
I0
aI0
aI0
asI500
(lp482
I0
aI1
aI0
asI501
(lp483
I2
aI0
aI0
asI502
(lp484
I1
aI1
aI0
asI503
(lp485
I0
aI0
aI0
asI504
(lp486
I0
aI0
aI1
asI505
(lp487
I1
aI0
aI0
asI506
(lp488
I0
aI0
aI3
asI507
(lp489
I0
aI0
aI0
asI508
(lp490
I1
aI0
aI0
asI509
(lp491
I0
aI0
aI0
asI510
(lp492
I0
aI0
aI0
asI511
(lp493
I1
aI2
aI1
asI513
(lp494
I0
aI0
aI0
asI514
(lp495
I0
aI0
aI1
asI515
(lp496
I0
aI0
aI0
asI516
(lp497
I0
aI0
aI0
asI517
(lp498
I1
aI2
aI0
asI518
(lp499
I0
aI0
aI0
asI519
(lp500
I0
aI0
aI0
asI520
(lp501
I0
aI0
aI0
asI521
(lp502
I0
aI0
aI0
asI522
(lp503
I0
aI0
aI0
asI523
(lp504
I3
aI0
aI4
asI524
(lp505
I0
aI0
aI0
asI525
(lp506
I0
aI0
aI0
asI526
(lp507
I0
aI0
aI0
asI527
(lp508
I0
aI0
aI0
asI528
(lp509
I1
aI2
aI8
asI529
(lp510
I0
aI0
aI0
asI530
(lp511
I0
aI0
aI0
asI531
(lp512
I0
aI0
aI1
asI532
(lp513
I1
aI0
aI1
asI533
(lp514
I0
aI0
aI0
asI534
(lp515
I0
aI0
aI2
asI535
(lp516
I0
aI0
aI0
asI536
(lp517
I0
aI0
aI0
asI537
(lp518
I1
aI0
aI1
asI538
(lp519
I0
aI0
aI0
asI539
(lp520
I0
aI0
aI0
asI540
(lp521
I0
aI0
aI0
asI541
(lp522
I2
aI1
aI4
asI543
(lp523
I0
aI0
aI0
asI544
(lp524
I0
aI0
aI0
asI545
(lp525
I0
aI5
aI7
asI547
(lp526
I0
aI0
aI0
asI548
(lp527
I0
aI0
aI0
asI549
(lp528
I0
aI0
aI0
asI550
(lp529
I0
aI0
aI14
asI551
(lp530
I0
aI1
aI5
asI552
(lp531
I0
aI0
aI0
asI553
(lp532
I0
aI0
aI0
asI554
(lp533
I0
aI0
aI0
asI555
(lp534
I0
aI0
aI0
asI556
(lp535
I0
aI0
aI0
asI557
(lp536
I1
aI0
aI0
asI558
(lp537
I0
aI0
aI1
asI559
(lp538
I0
aI0
aI0
asI560
(lp539
I0
aI0
aI0
asI561
(lp540
I0
aI0
aI0
asI562
(lp541
I0
aI0
aI0
asI563
(lp542
I1
aI0
aI0
asI564
(lp543
I0
aI0
aI1
asI566
(lp544
I0
aI0
aI0
asI567
(lp545
I0
aI0
aI0
asI568
(lp546
I0
aI0
aI0
asI569
(lp547
I0
aI0
aI0
asI570
(lp548
I0
aI0
aI2
asI571
(lp549
I2
aI0
aI3
asI572
(lp550
I0
aI0
aI0
asI573
(lp551
I0
aI0
aI0
asI575
(lp552
I0
aI0
aI0
asI576
(lp553
I2
aI3
aI20
asI578
(lp554
I0
aI0
aI0
asI579
(lp555
I0
aI0
aI0
asI580
(lp556
I1
aI0
aI1
asI581
(lp557
I1
aI1
aI2
asI582
(lp558
I0
aI0
aI0
asI583
(lp559
I3
aI0
aI12
asI584
(lp560
I1
aI0
aI1
asI585
(lp561
I0
aI0
aI0
asI586
(lp562
I2
aI0
aI0
asI587
(lp563
I0
aI0
aI17
asI588
(lp564
I1
aI1
aI0
asI589
(lp565
I2
aI0
aI0
asI590
(lp566
I0
aI0
aI0
asI591
(lp567
I0
aI0
aI0
asI592
(lp568
I1
aI0
aI0
asI595
(lp569
I0
aI0
aI0
asI596
(lp570
I0
aI0
aI0
asI597
(lp571
I1
aI0
aI0
asI598
(lp572
I0
aI0
aI0
asI600
(lp573
I1
aI0
aI0
asI601
(lp574
I0
aI0
aI2
asI602
(lp575
I0
aI0
aI5
asI603
(lp576
I0
aI0
aI0
asI604
(lp577
I0
aI0
aI0
asI605
(lp578
I0
aI0
aI0
asI606
(lp579
I0
aI0
aI0
asI607
(lp580
I1
aI0
aI0
asI608
(lp581
I0
aI0
aI1
asI609
(lp582
I0
aI0
aI0
asI610
(lp583
I1
aI0
aI1
asI611
(lp584
I0
aI0
aI0
asI612
(lp585
I0
aI0
aI0
asI613
(lp586
I0
aI0
aI0
asI614
(lp587
I0
aI0
aI0
asI615
(lp588
I0
aI0
aI0
asI616
(lp589
I0
aI0
aI0
asI617
(lp590
I0
aI0
aI0
asI618
(lp591
I1
aI0
aI2
asI619
(lp592
I0
aI1
aI0
asI620
(lp593
I0
aI1
aI4
asI621
(lp594
I0
aI0
aI0
asI622
(lp595
I0
aI0
aI0
asI623
(lp596
I0
aI0
aI0
asI625
(lp597
I0
aI0
aI0
asI626
(lp598
I1
aI0
aI4
asI627
(lp599
I0
aI0
aI0
asI628
(lp600
I1
aI0
aI0
asI629
(lp601
I1
aI1
aI0
asI630
(lp602
I0
aI0
aI0
asI631
(lp603
I0
aI0
aI0
asI632
(lp604
I1
aI1
aI2
asI633
(lp605
I1
aI0
aI1
asI634
(lp606
I0
aI0
aI0
asI636
(lp607
I0
aI0
aI0
asI637
(lp608
I0
aI0
aI0
asI638
(lp609
I0
aI0
aI0
asI639
(lp610
I0
aI1
aI0
asI640
(lp611
I0
aI0
aI0
asI641
(lp612
I0
aI0
aI1
asI642
(lp613
I0
aI0
aI0
asI643
(lp614
I1
aI0
aI0
asI644
(lp615
I0
aI0
aI0
asI645
(lp616
I1
aI0
aI7
asI646
(lp617
I0
aI0
aI1
asI647
(lp618
I0
aI0
aI0
asI648
(lp619
I0
aI1
aI0
asI649
(lp620
I0
aI1
aI0
asI650
(lp621
I1
aI0
aI0
asI651
(lp622
I0
aI0
aI0
asI652
(lp623
I0
aI0
aI0
asI653
(lp624
I0
aI0
aI0
asI654
(lp625
I0
aI0
aI0
asI655
(lp626
I4
aI6
aI34
asI656
(lp627
I0
aI0
aI0
asI657
(lp628
I0
aI0
aI0
asI659
(lp629
I0
aI0
aI0
asI660
(lp630
I0
aI0
aI0
asI661
(lp631
I1
aI0
aI2
asI662
(lp632
I1
aI0
aI0
asI663
(lp633
I0
aI0
aI0
asI664
(lp634
I0
aI0
aI0
asI665
(lp635
I0
aI1
aI0
asI666
(lp636
I0
aI1
aI0
asI668
(lp637
I0
aI0
aI0
asI669
(lp638
I0
aI0
aI0
asI670
(lp639
I0
aI0
aI0
asI671
(lp640
I2
aI2
aI7
asI672
(lp641
I0
aI0
aI0
asI673
(lp642
I0
aI0
aI0
asI674
(lp643
I0
aI0
aI0
asI675
(lp644
I0
aI1
aI0
asI677
(lp645
I0
aI3
aI1
asI678
(lp646
I0
aI0
aI1
asI679
(lp647
I0
aI0
aI0
asI680
(lp648
I0
aI1
aI1
asI681
(lp649
I0
aI0
aI0
asI682
(lp650
I1
aI1
aI0
asI683
(lp651
I0
aI1
aI1
asI684
(lp652
I1
aI0
aI1
asI685
(lp653
I1
aI0
aI0
asI686
(lp654
I0
aI1
aI0
asI687
(lp655
I0
aI0
aI2
asI688
(lp656
I1
aI1
aI2
asI689
(lp657
I0
aI0
aI1
asI690
(lp658
I0
aI0
aI0
asI691
(lp659
I1
aI0
aI1
asI692
(lp660
I0
aI0
aI0
asI693
(lp661
I0
aI0
aI0
asI694
(lp662
I0
aI0
aI0
asI695
(lp663
I0
aI0
aI0
asI696
(lp664
I0
aI0
aI0
asI697
(lp665
I0
aI0
aI0
asI698
(lp666
I0
aI0
aI0
asI699
(lp667
I2
aI3
aI3
asI700
(lp668
I0
aI0
aI0
asI701
(lp669
I0
aI0
aI0
asI702
(lp670
I0
aI0
aI0
asI703
(lp671
I0
aI0
aI0
asI704
(lp672
I0
aI0
aI0
asI705
(lp673
I0
aI0
aI0
asI706
(lp674
I1
aI0
aI0
asI707
(lp675
I1
aI1
aI1
asI708
(lp676
I1
aI0
aI0
asI709
(lp677
I0
aI0
aI2
asI710
(lp678
I0
aI0
aI0
asI711
(lp679
I0
aI0
aI0
asI712
(lp680
I0
aI0
aI0
asI713
(lp681
I0
aI0
aI0
asI715
(lp682
I0
aI0
aI0
asI716
(lp683
I0
aI0
aI0
asI717
(lp684
I0
aI0
aI0
asI718
(lp685
I1
aI0
aI3
asI719
(lp686
I0
aI0
aI0
asI720
(lp687
I0
aI0
aI0
asI721
(lp688
I0
aI0
aI0
asI722
(lp689
I0
aI0
aI0
asI723
(lp690
I0
aI0
aI0
asI724
(lp691
I0
aI0
aI0
asI725
(lp692
I1
aI1
aI12
asI726
(lp693
I0
aI0
aI0
asI727
(lp694
I1
aI0
aI1
asI728
(lp695
I0
aI0
aI0
asI729
(lp696
I0
aI0
aI0
asI730
(lp697
I1
aI0
aI0
asI731
(lp698
I1
aI0
aI0
asI732
(lp699
I0
aI0
aI0
asI733
(lp700
I0
aI1
aI0
asI734
(lp701
I0
aI1
aI1
asI735
(lp702
I1
aI1
aI1
asI736
(lp703
I1
aI1
aI0
asI737
(lp704
I0
aI0
aI2
asI738
(lp705
I3
aI0
aI3
asI739
(lp706
I0
aI0
aI0
asI740
(lp707
I0
aI0
aI0
asI741
(lp708
I0
aI1
aI0
asI742
(lp709
I0
aI1
aI0
asI743
(lp710
I0
aI1
aI0
asI744
(lp711
I0
aI1
aI0
asI747
(lp712
I0
aI0
aI0
asI748
(lp713
I0
aI1
aI0
asI749
(lp714
I0
aI0
aI1
asI750
(lp715
I0
aI0
aI0
asI751
(lp716
I1
aI0
aI0
asI752
(lp717
I1
aI0
aI0
asI753
(lp718
I0
aI0
aI0
asI755
(lp719
I0
aI0
aI0
asI756
(lp720
I0
aI1
aI0
asI758
(lp721
I1
aI0
aI0
asI759
(lp722
I1
aI0
aI2
asI760
(lp723
I0
aI0
aI0
asI761
(lp724
I0
aI0
aI0
asI762
(lp725
I0
aI0
aI0
asI763
(lp726
I1
aI0
aI1
asI764
(lp727
I2
aI1
aI1
asI765
(lp728
I0
aI0
aI0
asI766
(lp729
I0
aI0
aI0
asI767
(lp730
I0
aI0
aI0
asI768
(lp731
I0
aI0
aI0
asI769
(lp732
I0
aI0
aI0
asI770
(lp733
I0
aI0
aI0
asI771
(lp734
I1
aI0
aI0
asI772
(lp735
I0
aI0
aI1
asI773
(lp736
I0
aI0
aI0
asI774
(lp737
I0
aI0
aI0
asI775
(lp738
I1
aI0
aI1
asI776
(lp739
I0
aI0
aI2
asI777
(lp740
I1
aI0
aI10
asI778
(lp741
I0
aI0
aI0
asI779
(lp742
I0
aI0
aI2
asI780
(lp743
I0
aI1
aI0
asI781
(lp744
I27
aI1
aI136
asI783
(lp745
I0
aI0
aI0
asI784
(lp746
I0
aI0
aI0
asI785
(lp747
I1
aI0
aI0
asI786
(lp748
I0
aI0
aI0
asI787
(lp749
I4
aI2
aI23
asI788
(lp750
I0
aI0
aI0
asI789
(lp751
I0
aI0
aI4
asI790
(lp752
I0
aI0
aI0
asI791
(lp753
I0
aI0
aI0
asI792
(lp754
I0
aI0
aI0
asI793
(lp755
I0
aI0
aI0
asI794
(lp756
I0
aI0
aI3
asI795
(lp757
I0
aI0
aI0
asI796
(lp758
I0
aI0
aI0
asI797
(lp759
I0
aI0
aI0
asI798
(lp760
I0
aI0
aI0
asI799
(lp761
I1
aI0
aI0
asI801
(lp762
I0
aI0
aI0
asI802
(lp763
I0
aI0
aI0
asI803
(lp764
I0
aI0
aI0
asI804
(lp765
I0
aI0
aI0
asI805
(lp766
I0
aI0
aI0
asI806
(lp767
I4
aI1
aI3
asI807
(lp768
I1
aI0
aI0
asI808
(lp769
I0
aI0
aI0
asI809
(lp770
I0
aI0
aI0
asI811
(lp771
I0
aI0
aI0
asI812
(lp772
I0
aI0
aI0
asI813
(lp773
I0
aI0
aI0
asI814
(lp774
I1
aI0
aI0
asI815
(lp775
I0
aI0
aI0
asI816
(lp776
I0
aI0
aI0
asI817
(lp777
I0
aI0
aI0
asI818
(lp778
I0
aI0
aI0
asI819
(lp779
I0
aI0
aI0
asI820
(lp780
I0
aI0
aI4
asI821
(lp781
I1
aI0
aI0
asI822
(lp782
I0
aI0
aI0
asI823
(lp783
I0
aI0
aI0
asI824
(lp784
I0
aI0
aI2
asI825
(lp785
I0
aI0
aI0
asI826
(lp786
I0
aI0
aI0
asI827
(lp787
I0
aI0
aI1
asI828
(lp788
I0
aI0
aI0
asI829
(lp789
I1
aI1
aI0
asI830
(lp790
I0
aI0
aI2
asI831
(lp791
I0
aI0
aI0
asI832
(lp792
I0
aI2
aI0
asI833
(lp793
I0
aI2
aI0
asI834
(lp794
I0
aI0
aI0
asI836
(lp795
I0
aI0
aI0
asI837
(lp796
I1
aI2
aI3
asI839
(lp797
I0
aI0
aI0
asI840
(lp798
I0
aI0
aI0
asI841
(lp799
I0
aI0
aI0
asI842
(lp800
I0
aI0
aI0
asI843
(lp801
I1
aI0
aI3
asI844
(lp802
I1
aI0
aI0
asI845
(lp803
I0
aI0
aI0
asI846
(lp804
I1
aI0
aI1
asI847
(lp805
I1
aI0
aI0
asI848
(lp806
I1
aI0
aI1
asI849
(lp807
I0
aI0
aI0
asI850
(lp808
I1
aI0
aI0
asI852
(lp809
I0
aI1
aI0
asI853
(lp810
I0
aI0
aI0
asI854
(lp811
I1
aI0
aI0
asI856
(lp812
I0
aI0
aI0
asI857
(lp813
I0
aI0
aI10
asI858
(lp814
I1
aI0
aI0
asI859
(lp815
I1
aI0
aI0
asI860
(lp816
I0
aI2
aI5
asI861
(lp817
I0
aI1
aI0
asI862
(lp818
I0
aI0
aI2
asI863
(lp819
I0
aI0
aI1
asI864
(lp820
I0
aI0
aI0
asI865
(lp821
I0
aI0
aI0
asI866
(lp822
I0
aI0
aI2
asI867
(lp823
I0
aI0
aI0
asI868
(lp824
I0
aI0
aI2
asI869
(lp825
I1
aI0
aI4
asI870
(lp826
I0
aI0
aI0
asI871
(lp827
I0
aI0
aI0
asI872
(lp828
I3
aI0
aI47
asI873
(lp829
I0
aI0
aI0
asI874
(lp830
I0
aI0
aI0
asI875
(lp831
I0
aI0
aI0
asI876
(lp832
I0
aI0
aI0
asI878
(lp833
I0
aI1
aI0
asI879
(lp834
I2
aI0
aI0
asI880
(lp835
I0
aI0
aI0
asI881
(lp836
I0
aI0
aI0
asI882
(lp837
I0
aI1
aI0
asI883
(lp838
I0
aI0
aI0
asI884
(lp839
I0
aI0
aI0
asI885
(lp840
I0
aI0
aI0
asI887
(lp841
I0
aI0
aI0
asI888
(lp842
I0
aI0
aI0
asI889
(lp843
I1
aI0
aI0
asI890
(lp844
I1
aI0
aI0
asI891
(lp845
I0
aI0
aI0
asI892
(lp846
I0
aI0
aI0
asI893
(lp847
I1
aI0
aI1
asI894
(lp848
I1
aI0
aI0
asI895
(lp849
I0
aI0
aI0
asI896
(lp850
I0
aI0
aI0
asI897
(lp851
I0
aI0
aI0
asI898
(lp852
I1
aI1
aI0
asI899
(lp853
I0
aI0
aI0
asI900
(lp854
I0
aI0
aI0
asI901
(lp855
I0
aI0
aI0
asI902
(lp856
I1
aI1
aI0
asI903
(lp857
I1
aI0
aI0
asI904
(lp858
I1
aI2
aI14
asI905
(lp859
I0
aI1
aI0
asI906
(lp860
I0
aI0
aI0
asI907
(lp861
I0
aI0
aI0
asI908
(lp862
I2
aI0
aI1
asI909
(lp863
I1
aI1
aI5
asI910
(lp864
I0
aI0
aI0
asI911
(lp865
I0
aI0
aI1
asI912
(lp866
I0
aI0
aI0
asI913
(lp867
I0
aI0
aI0
asI914
(lp868
I0
aI0
aI0
asI915
(lp869
I1
aI0
aI1
asI916
(lp870
I0
aI0
aI0
asI917
(lp871
I0
aI0
aI5
asI918
(lp872
I0
aI0
aI0
asI919
(lp873
I0
aI0
aI0
asI920
(lp874
I0
aI0
aI0
asI921
(lp875
I0
aI0
aI0
asI922
(lp876
I0
aI0
aI0
asI923
(lp877
I1
aI0
aI2
asI924
(lp878
I0
aI0
aI0
asI925
(lp879
I0
aI0
aI0
asI926
(lp880
I1
aI0
aI0
asI927
(lp881
I1
aI0
aI3
asI928
(lp882
I0
aI0
aI0
asI929
(lp883
I0
aI1
aI0
asI930
(lp884
I0
aI0
aI0
asI931
(lp885
I0
aI0
aI0
asI932
(lp886
I1
aI0
aI0
asI933
(lp887
I0
aI0
aI0
asI934
(lp888
I0
aI0
aI0
asI935
(lp889
I0
aI0
aI0
asI936
(lp890
I0
aI0
aI0
asI938
(lp891
I0
aI8
aI0
asI939
(lp892
I0
aI0
aI0
asI940
(lp893
I0
aI0
aI0
asI941
(lp894
I0
aI0
aI0
asI942
(lp895
I0
aI0
aI0
asI943
(lp896
I0
aI0
aI0
asI944
(lp897
I0
aI0
aI0
asI945
(lp898
I0
aI0
aI0
asI946
(lp899
I0
aI0
aI0
asI947
(lp900
I0
aI0
aI0
asI948
(lp901
I0
aI0
aI0
asI949
(lp902
I0
aI0
aI0
asI950
(lp903
I1
aI0
aI1
asI952
(lp904
I0
aI0
aI0
asI953
(lp905
I0
aI0
aI0
asI954
(lp906
I0
aI0
aI0
asI955
(lp907
I1
aI0
aI0
asI956
(lp908
I0
aI0
aI1
asI957
(lp909
I2
aI6
aI11
asI958
(lp910
I0
aI0
aI0
asI960
(lp911
I1
aI0
aI2
asI961
(lp912
I0
aI3
aI2
asI962
(lp913
I3
aI0
aI5
asI963
(lp914
I0
aI0
aI0
asI964
(lp915
I1
aI0
aI1
asI965
(lp916
I1
aI1
aI2
asI966
(lp917
I1
aI1
aI0
asI967
(lp918
I0
aI0
aI0
asI968
(lp919
I0
aI0
aI4
asI969
(lp920
I0
aI0
aI0
asI970
(lp921
I3
aI10
aI15
asI971
(lp922
I0
aI0
aI0
asI972
(lp923
I0
aI1
aI0
asI973
(lp924
I0
aI0
aI0
asI974
(lp925
I0
aI0
aI0
asI975
(lp926
I0
aI0
aI0
asI976
(lp927
I0
aI0
aI0
asI977
(lp928
I0
aI0
aI0
asI978
(lp929
I0
aI0
aI13
asI979
(lp930
I0
aI0
aI0
asI980
(lp931
I1
aI0
aI0
asI981
(lp932
I0
aI1
aI0
asI982
(lp933
I0
aI0
aI0
asI983
(lp934
I1
aI0
aI0
asI984
(lp935
I0
aI0
aI0
asI986
(lp936
I0
aI0
aI0
asI987
(lp937
I0
aI0
aI0
asI988
(lp938
I0
aI0
aI0
asI989
(lp939
I1
aI0
aI0
asI990
(lp940
I1
aI0
aI0
asI991
(lp941
I0
aI0
aI0
asI992
(lp942
I0
aI0
aI2
asI993
(lp943
I1
aI0
aI0
asI994
(lp944
I0
aI0
aI0
asI996
(lp945
I0
aI0
aI0
asI997
(lp946
I2
aI0
aI3
asI999
(lp947
I0
aI0
aI0
asI1000
(lp948
I0
aI0
aI0
asI1001
(lp949
I0
aI2
aI0
asI1002
(lp950
I1
aI0
aI1
asI1003
(lp951
I0
aI0
aI1
asI1004
(lp952
I0
aI0
aI0
asI1005
(lp953
I0
aI0
aI0
asI1006
(lp954
I0
aI0
aI0
asI1007
(lp955
I0
aI0
aI0
asI1008
(lp956
I0
aI0
aI0
asI1009
(lp957
I0
aI0
aI0
asI1010
(lp958
I0
aI0
aI0
asI1011
(lp959
I0
aI0
aI2
asI1013
(lp960
I0
aI0
aI0
asI1014
(lp961
I0
aI0
aI0
asI1015
(lp962
I1
aI0
aI0
asI1016
(lp963
I0
aI0
aI0
asI1017
(lp964
I0
aI0
aI0
asI1018
(lp965
I0
aI0
aI0
asI1020
(lp966
I0
aI0
aI0
asI1021
(lp967
I1
aI0
aI0
asI1022
(lp968
I0
aI1
aI0
asI1023
(lp969
I0
aI0
aI1
asI1024
(lp970
I1
aI0
aI0
asI1025
(lp971
I0
aI0
aI0
asI1026
(lp972
I1
aI1
aI0
asI1027
(lp973
I0
aI4
aI0
asI1028
(lp974
I0
aI0
aI0
asI1029
(lp975
I2
aI15
aI161
asI1030
(lp976
I0
aI0
aI0
asI1031
(lp977
I0
aI0
aI1
asI1032
(lp978
I1
aI0
aI0
asI1033
(lp979
I0
aI0
aI0
asI1034
(lp980
I0
aI0
aI0
asI1035
(lp981
I0
aI0
aI0
asI1036
(lp982
I0
aI1
aI0
asI1037
(lp983
I0
aI0
aI0
asI1038
(lp984
I0
aI0
aI0
asI1039
(lp985
I0
aI0
aI0
asI1040
(lp986
I0
aI0
aI0
asI1042
(lp987
I0
aI0
aI0
asI1043
(lp988
I0
aI0
aI2
asI1044
(lp989
I0
aI0
aI0
asI1045
(lp990
I1
aI0
aI1
asI1046
(lp991
I0
aI0
aI0
asI1047
(lp992
I1
aI0
aI4
asI1048
(lp993
I0
aI0
aI0
asI1049
(lp994
I0
aI0
aI0
asI1050
(lp995
I0
aI3
aI2
asI1051
(lp996
I0
aI0
aI0
asI1052
(lp997
I0
aI0
aI0
asI1053
(lp998
I0
aI0
aI2
asI1054
(lp999
I0
aI0
aI3
asI1055
(lp1000
I5
aI1
aI7
asI1056
(lp1001
I0
aI0
aI0
asI1057
(lp1002
I0
aI0
aI4
asI1058
(lp1003
I0
aI2
aI0
asI1059
(lp1004
I1
aI1
aI15
asI1060
(lp1005
I1
aI2
aI0
asI1061
(lp1006
I0
aI0
aI0
asI1062
(lp1007
I0
aI0
aI0
asI1063
(lp1008
I0
aI0
aI0
asI1066
(lp1009
I0
aI0
aI0
asI1067
(lp1010
I0
aI0
aI0
asI1068
(lp1011
I0
aI0
aI0
asI1069
(lp1012
I0
aI0
aI0
asI1070
(lp1013
I0
aI0
aI0
asI1071
(lp1014
I0
aI0
aI0
asI1072
(lp1015
I0
aI0
aI0
asI1074
(lp1016
I0
aI0
aI0
asI1075
(lp1017
I0
aI0
aI0
asI1076
(lp1018
I0
aI0
aI0
asI1077
(lp1019
I1
aI0
aI0
asI1079
(lp1020
I0
aI0
aI0
asI1080
(lp1021
I0
aI0
aI12
asI1082
(lp1022
I0
aI0
aI0
asI1083
(lp1023
I0
aI0
aI0
asI1084
(lp1024
I0
aI0
aI0
asI1085
(lp1025
I0
aI1
aI0
asI1086
(lp1026
I0
aI0
aI0
asI1087
(lp1027
I0
aI0
aI0
asI1089
(lp1028
I1
aI0
aI0
asI1090
(lp1029
I0
aI0
aI0
asI1091
(lp1030
I0
aI0
aI0
asI1092
(lp1031
I0
aI0
aI0
asI1093
(lp1032
I1
aI0
aI1
asI1094
(lp1033
I0
aI0
aI0
asI1095
(lp1034
I0
aI1
aI0
asI1096
(lp1035
I0
aI1
aI1
asI1097
(lp1036
I1
aI0
aI0
asI1098
(lp1037
I0
aI0
aI0
asI1099
(lp1038
I2
aI1
aI1
asI1100
(lp1039
I1
aI1
aI0
asI1102
(lp1040
I0
aI0
aI0
asI1103
(lp1041
I2
aI14
aI24
asI1104
(lp1042
I0
aI0
aI0
asI1105
(lp1043
I0
aI0
aI0
asI1106
(lp1044
I0
aI0
aI0
asI1107
(lp1045
I0
aI0
aI0
asI1108
(lp1046
I0
aI0
aI7
asI1109
(lp1047
I0
aI0
aI0
asI1110
(lp1048
I0
aI0
aI0
asI1111
(lp1049
I0
aI0
aI0
asI1112
(lp1050
I0
aI1
aI0
asI1113
(lp1051
I2
aI0
aI0
asI1114
(lp1052
I0
aI0
aI0
asI1115
(lp1053
I1
aI0
aI0
asI1116
(lp1054
I0
aI0
aI0
asI1117
(lp1055
I1
aI9
aI72
asI1118
(lp1056
I1
aI0
aI0
asI1119
(lp1057
I0
aI0
aI0
asI1120
(lp1058
I1
aI0
aI1
asI1121
(lp1059
I0
aI0
aI0
asI1122
(lp1060
I0
aI1
aI0
asI1123
(lp1061
I1
aI0
aI2
asI1125
(lp1062
I1
aI0
aI1
asI1126
(lp1063
I1
aI0
aI0
asI1127
(lp1064
I0
aI0
aI0
asI1128
(lp1065
I0
aI0
aI0
asI1129
(lp1066
I0
aI0
aI0
asI1130
(lp1067
I0
aI0
aI0
asI1131
(lp1068
I0
aI0
aI0
asI1132
(lp1069
I0
aI1
aI0
asI1133
(lp1070
I1
aI1
aI0
asI1134
(lp1071
I0
aI1
aI0
asI1135
(lp1072
I0
aI0
aI0
asI1136
(lp1073
I0
aI0
aI0
asI1137
(lp1074
I0
aI0
aI0
asI1138
(lp1075
I0
aI0
aI0
asI1140
(lp1076
I0
aI0
aI0
asI1141
(lp1077
I0
aI0
aI0
asI1142
(lp1078
I0
aI0
aI0
asI1143
(lp1079
I1
aI1
aI0
asI1145
(lp1080
I1
aI0
aI1
asI1146
(lp1081
I0
aI0
aI0
asI1147
(lp1082
I0
aI0
aI0
asI1148
(lp1083
I0
aI0
aI0
asI1149
(lp1084
I0
aI0
aI0
asI1151
(lp1085
I0
aI0
aI0
asI1152
(lp1086
I1
aI0
aI1
asI1153
(lp1087
I1
aI0
aI0
asI1154
(lp1088
I0
aI1
aI0
asI1156
(lp1089
I2
aI1
aI0
asI1157
(lp1090
I0
aI0
aI0
asI1159
(lp1091
I0
aI0
aI0
asI1160
(lp1092
I0
aI1
aI0
asI1161
(lp1093
I0
aI0
aI0
asI1162
(lp1094
I0
aI0
aI0
asI1163
(lp1095
I0
aI0
aI0
asI1164
(lp1096
I0
aI0
aI1
asI1165
(lp1097
I2
aI0
aI4
asI1166
(lp1098
I0
aI0
aI0
asI1167
(lp1099
I1
aI0
aI8
asI1168
(lp1100
I0
aI0
aI0
asI1169
(lp1101
I0
aI0
aI0
asI1170
(lp1102
I1
aI0
aI0
asI1171
(lp1103
I0
aI0
aI0
asI1172
(lp1104
I2
aI0
aI0
asI1173
(lp1105
I0
aI0
aI0
asI1174
(lp1106
I2
aI0
aI1
asI1175
(lp1107
I6
aI1
aI105
asI1176
(lp1108
I0
aI0
aI0
asI1177
(lp1109
I0
aI0
aI0
asI1178
(lp1110
I0
aI0
aI0
asI1179
(lp1111
I0
aI0
aI0
asI1180
(lp1112
I0
aI0
aI0
asI1181
(lp1113
I0
aI0
aI0
asI1183
(lp1114
I0
aI0
aI2
asI1184
(lp1115
I0
aI0
aI0
asI1185
(lp1116
I0
aI0
aI0
asI1186
(lp1117
I0
aI2
aI2
asI1187
(lp1118
I2
aI0
aI4
asI1188
(lp1119
I0
aI0
aI0
asI1190
(lp1120
I0
aI0
aI0
asI1191
(lp1121
I0
aI0
aI0
asI1192
(lp1122
I0
aI0
aI0
asI1193
(lp1123
I0
aI0
aI0
asI1194
(lp1124
I0
aI0
aI0
asI1196
(lp1125
I0
aI0
aI0
asI1197
(lp1126
I0
aI0
aI0
asI1198
(lp1127
I0
aI0
aI0
asI1199
(lp1128
I1
aI0
aI0
asI1200
(lp1129
I0
aI0
aI1
asI1201
(lp1130
I0
aI0
aI0
asI1202
(lp1131
I0
aI0
aI0
asI1203
(lp1132
I0
aI0
aI0
asI1204
(lp1133
I1
aI0
aI0
asI1205
(lp1134
I1
aI0
aI0
asI1206
(lp1135
I1
aI0
aI0
asI1207
(lp1136
I2
aI0
aI2
asI1208
(lp1137
I0
aI0
aI0
asI1209
(lp1138
I2
aI1
aI2
asI1210
(lp1139
I0
aI3
aI3
asI1211
(lp1140
I0
aI0
aI0
asI1212
(lp1141
I0
aI0
aI0
asI1213
(lp1142
I0
aI0
aI0
asI1214
(lp1143
I1
aI0
aI0
asI1215
(lp1144
I0
aI0
aI0
asI1216
(lp1145
I0
aI0
aI0
asI1217
(lp1146
I1
aI0
aI1
asI1218
(lp1147
I0
aI0
aI0
asI1219
(lp1148
I0
aI0
aI0
asI1220
(lp1149
I0
aI0
aI0
asI1223
(lp1150
I0
aI0
aI0
asI1224
(lp1151
I0
aI0
aI0
asI1225
(lp1152
I1
aI0
aI0
asI1226
(lp1153
I1
aI0
aI5
asI1228
(lp1154
I0
aI0
aI0
asI1229
(lp1155
I1
aI0
aI0
asI1230
(lp1156
I0
aI0
aI0
asI1231
(lp1157
I1
aI0
aI0
asI1232
(lp1158
I0
aI0
aI0
asI1233
(lp1159
I0
aI0
aI0
asI1234
(lp1160
I0
aI0
aI0
asI1235
(lp1161
I0
aI0
aI0
asI1237
(lp1162
I0
aI0
aI0
asI1238
(lp1163
I0
aI0
aI0
asI1239
(lp1164
I1
aI1
aI0
asI1240
(lp1165
I0
aI0
aI0
asI1241
(lp1166
I0
aI0
aI0
asI1243
(lp1167
I0
aI0
aI1
asI1244
(lp1168
I0
aI0
aI0
asI1245
(lp1169
I0
aI0
aI0
asI1246
(lp1170
I4
aI0
aI10
asI1247
(lp1171
I0
aI0
aI0
asI1248
(lp1172
I0
aI0
aI0
asI1249
(lp1173
I1
aI0
aI0
asI1250
(lp1174
I0
aI0
aI0
asI1251
(lp1175
I0
aI0
aI0
asI1253
(lp1176
I0
aI0
aI0
asI1254
(lp1177
I0
aI0
aI0
asI1255
(lp1178
I1
aI1
aI2
asI1257
(lp1179
I1
aI0
aI0
asI1258
(lp1180
I0
aI0
aI0
asI1260
(lp1181
I0
aI0
aI0
asI1262
(lp1182
I0
aI0
aI0
asI1263
(lp1183
I1
aI0
aI0
asI1264
(lp1184
I0
aI0
aI0
asI1265
(lp1185
I2
aI0
aI2
asI1266
(lp1186
I0
aI0
aI0
asI1267
(lp1187
I0
aI0
aI0
asI1268
(lp1188
I0
aI0
aI0
asI1269
(lp1189
I0
aI0
aI0
asI1270
(lp1190
I0
aI1
aI0
asI1271
(lp1191
I0
aI0
aI0
asI1272
(lp1192
I1
aI0
aI0
asI1273
(lp1193
I1
aI0
aI0
asI1274
(lp1194
I0
aI0
aI0
asI1275
(lp1195
I0
aI1
aI0
asI1276
(lp1196
I0
aI0
aI2
asI1277
(lp1197
I0
aI1
aI0
asI1278
(lp1198
I0
aI0
aI0
asI1279
(lp1199
I0
aI0
aI0
asI1280
(lp1200
I0
aI0
aI0
asI1281
(lp1201
I0
aI0
aI0
asI1282
(lp1202
I1
aI0
aI4
asI1283
(lp1203
I0
aI0
aI1
asI1284
(lp1204
I1
aI0
aI0
asI1285
(lp1205
I1
aI0
aI0
asI1286
(lp1206
I0
aI0
aI0
asI1288
(lp1207
I0
aI0
aI0
asI1289
(lp1208
I0
aI0
aI2
asI1290
(lp1209
I0
aI1
aI0
asI1291
(lp1210
I0
aI1
aI0
asI1292
(lp1211
I0
aI0
aI1
asI1295
(lp1212
I0
aI0
aI0
asI1296
(lp1213
I0
aI0
aI2
asI1297
(lp1214
I0
aI0
aI0
asI1298
(lp1215
I1
aI0
aI1
asI1299
(lp1216
I0
aI0
aI1
asI1300
(lp1217
I0
aI0
aI0
asI1301
(lp1218
I1
aI0
aI3
asI1302
(lp1219
I2
aI0
aI4
asI1303
(lp1220
I1
aI0
aI2
asI1304
(lp1221
I1
aI0
aI0
asI1305
(lp1222
I0
aI0
aI0
asI1306
(lp1223
I1
aI0
aI1
asI1307
(lp1224
I0
aI0
aI0
asI1308
(lp1225
I1
aI1
aI0
asI1310
(lp1226
I1
aI0
aI0
asI1311
(lp1227
I0
aI0
aI0
asI1312
(lp1228
I0
aI0
aI0
asI1313
(lp1229
I1
aI0
aI0
asI1314
(lp1230
I1
aI0
aI0
asI1316
(lp1231
I0
aI0
aI0
asI1317
(lp1232
I0
aI0
aI0
asI1318
(lp1233
I0
aI0
aI0
asI1319
(lp1234
I0
aI2
aI0
asI1320
(lp1235
I1
aI0
aI2
asI1321
(lp1236
I0
aI0
aI0
asI1322
(lp1237
I2
aI1
aI0
asI1323
(lp1238
I1
aI0
aI0
asI1324
(lp1239
I0
aI1
aI0
asI1325
(lp1240
I1
aI0
aI1
asI1326
(lp1241
I0
aI2
aI9
asI1327
(lp1242
I0
aI0
aI0
asI1328
(lp1243
I0
aI2
aI1
asI1329
(lp1244
I1
aI0
aI0
asI1330
(lp1245
I1
aI1
aI6
asI1331
(lp1246
I1
aI0
aI0
asI1332
(lp1247
I0
aI0
aI0
asI1333
(lp1248
I0
aI0
aI0
asI1334
(lp1249
I1
aI0
aI0
asI1335
(lp1250
I0
aI2
aI0
asI1336
(lp1251
I0
aI6
aI18
asI1337
(lp1252
I0
aI3
aI0
asI1338
(lp1253
I1
aI0
aI0
asI1339
(lp1254
I0
aI0
aI0
asI1340
(lp1255
I0
aI0
aI0
asI1341
(lp1256
I0
aI0
aI0
asI1342
(lp1257
I0
aI1
aI0
asI1343
(lp1258
I0
aI0
aI0
asI1344
(lp1259
I0
aI0
aI2
asI1346
(lp1260
I0
aI0
aI0
asI1347
(lp1261
I0
aI0
aI0
asI1348
(lp1262
I0
aI0
aI0
asI1349
(lp1263
I0
aI0
aI0
asI1350
(lp1264
I0
aI2
aI0
asI1351
(lp1265
I0
aI0
aI1
asI1352
(lp1266
I0
aI0
aI0
asI1353
(lp1267
I1
aI6
aI21
asI1354
(lp1268
I0
aI0
aI0
asI1355
(lp1269
I0
aI0
aI0
asI1356
(lp1270
I0
aI0
aI0
asI1357
(lp1271
I0
aI0
aI0
asI1358
(lp1272
I2
aI0
aI1
asI1360
(lp1273
I0
aI0
aI0
asI1361
(lp1274
I0
aI0
aI1
asI1362
(lp1275
I0
aI1
aI0
asI1363
(lp1276
I0
aI1
aI0
asI1364
(lp1277
I1
aI0
aI0
asI1365
(lp1278
I0
aI0
aI0
asI1366
(lp1279
I0
aI0
aI0
asI1367
(lp1280
I0
aI0
aI0
asI1369
(lp1281
I0
aI0
aI0
asI1370
(lp1282
I1
aI0
aI1
asI1372
(lp1283
I0
aI0
aI0
asI1373
(lp1284
I0
aI0
aI5
asI1374
(lp1285
I0
aI1
aI1
asI1375
(lp1286
I0
aI0
aI1
asI1376
(lp1287
I0
aI0
aI0
asI1377
(lp1288
I0
aI0
aI0
asI1378
(lp1289
I0
aI0
aI0
asI1379
(lp1290
I0
aI0
aI5
asI1380
(lp1291
I0
aI0
aI1
asI1381
(lp1292
I0
aI0
aI1
asI1382
(lp1293
I0
aI0
aI0
asI1383
(lp1294
I0
aI0
aI2
asI1384
(lp1295
I0
aI0
aI0
asI1385
(lp1296
I0
aI0
aI0
asI1386
(lp1297
I0
aI0
aI0
asI1387
(lp1298
I0
aI0
aI0
asI1388
(lp1299
I0
aI0
aI0
asI1389
(lp1300
I1
aI0
aI0
asI1390
(lp1301
I0
aI0
aI0
asI1391
(lp1302
I0
aI0
aI0
asI1392
(lp1303
I0
aI0
aI3
asI1393
(lp1304
I0
aI1
aI5
asI1394
(lp1305
I0
aI1
aI0
asI1396
(lp1306
I1
aI0
aI1
asI1397
(lp1307
I0
aI0
aI0
asI1399
(lp1308
I0
aI0
aI0
asI1400
(lp1309
I0
aI0
aI0
asI1401
(lp1310
I0
aI1
aI0
asI1402
(lp1311
I0
aI0
aI0
asI1404
(lp1312
I1
aI0
aI0
asI1405
(lp1313
I1
aI0
aI8
asI1406
(lp1314
I0
aI0
aI0
asI1407
(lp1315
I0
aI0
aI0
asI1408
(lp1316
I1
aI0
aI0
asI1409
(lp1317
I0
aI0
aI0
asI1410
(lp1318
I0
aI1
aI1
asI1411
(lp1319
I0
aI1
aI0
asI1412
(lp1320
I0
aI1
aI0
asI1413
(lp1321
I0
aI0
aI0
asI1414
(lp1322
I0
aI0
aI0
asI1415
(lp1323
I0
aI0
aI1
asI1416
(lp1324
I0
aI0
aI0
asI1417
(lp1325
I0
aI0
aI0
asI1418
(lp1326
I1
aI0
aI5
asI1419
(lp1327
I0
aI0
aI0
asI1420
(lp1328
I0
aI0
aI0
asI1421
(lp1329
I0
aI0
aI0
asI1422
(lp1330
I0
aI0
aI0
asI1423
(lp1331
I0
aI0
aI0
asI1424
(lp1332
I1
aI0
aI0
asI1425
(lp1333
I0
aI1
aI1
asI1426
(lp1334
I0
aI0
aI0
asI1427
(lp1335
I1
aI0
aI0
asI1428
(lp1336
I2
aI0
aI2
asI1429
(lp1337
I0
aI0
aI0
asI1431
(lp1338
I0
aI2
aI1
asI1432
(lp1339
I0
aI0
aI0
asI1433
(lp1340
I0
aI0
aI0
asI1434
(lp1341
I0
aI2
aI0
asI1435
(lp1342
I0
aI0
aI0
asI1436
(lp1343
I0
aI0
aI0
asI1437
(lp1344
I0
aI0
aI0
asI1438
(lp1345
I0
aI0
aI0
asI1439
(lp1346
I0
aI0
aI1
asI1441
(lp1347
I0
aI0
aI0
asI1442
(lp1348
I0
aI0
aI0
asI1443
(lp1349
I0
aI0
aI0
asI1444
(lp1350
I0
aI1
aI0
asI1445
(lp1351
I2
aI1
aI6
asI1446
(lp1352
I0
aI0
aI0
asI1447
(lp1353
I0
aI0
aI0
asI1448
(lp1354
I0
aI3
aI1
asI1449
(lp1355
I1
aI0
aI0
asI1450
(lp1356
I0
aI0
aI0
asI1451
(lp1357
I0
aI0
aI0
asI1452
(lp1358
I0
aI0
aI0
asI1453
(lp1359
I1
aI0
aI0
asI1454
(lp1360
I0
aI0
aI0
asI1455
(lp1361
I0
aI2
aI3
asI1456
(lp1362
I0
aI1
aI13
asI1457
(lp1363
I0
aI0
aI2
asI1458
(lp1364
I1
aI0
aI0
asI1459
(lp1365
I3
aI3
aI1
asI1460
(lp1366
I1
aI0
aI0
asI1461
(lp1367
I0
aI0
aI0
asI1462
(lp1368
I0
aI0
aI0
asI1463
(lp1369
I0
aI0
aI0
asI1464
(lp1370
I0
aI0
aI1
asI1465
(lp1371
I0
aI0
aI1
asI1466
(lp1372
I1
aI0
aI0
asI1468
(lp1373
I2
aI0
aI2
asI1469
(lp1374
I2
aI0
aI4
asI1470
(lp1375
I0
aI0
aI0
asI1471
(lp1376
I1
aI0
aI1
asI1472
(lp1377
I1
aI0
aI0
asI1473
(lp1378
I1
aI0
aI0
asI1474
(lp1379
I0
aI1
aI0
asI1475
(lp1380
I0
aI0
aI0
asI1476
(lp1381
I0
aI0
aI0
asI1477
(lp1382
I0
aI0
aI0
asI1478
(lp1383
I1
aI0
aI0
asI1479
(lp1384
I2
aI0
aI0
asI1480
(lp1385
I0
aI0
aI0
asI1481
(lp1386
I0
aI0
aI0
asI1482
(lp1387
I0
aI0
aI0
asI1483
(lp1388
I0
aI0
aI0
asI1484
(lp1389
I0
aI0
aI0
asI1485
(lp1390
I0
aI0
aI0
asI1486
(lp1391
I0
aI0
aI0
asI1487
(lp1392
I1
aI0
aI0
asI1488
(lp1393
I1
aI0
aI0
asI1489
(lp1394
I0
aI0
aI0
asI1490
(lp1395
I0
aI0
aI0
asI1491
(lp1396
I0
aI0
aI0
asI1492
(lp1397
I1
aI0
aI1
asI1493
(lp1398
I1
aI0
aI0
asI1494
(lp1399
I0
aI0
aI0
asI1495
(lp1400
I0
aI0
aI0
asI1496
(lp1401
I0
aI0
aI0
asI1497
(lp1402
I0
aI0
aI0
asI1498
(lp1403
I1
aI0
aI1
asI1499
(lp1404
I0
aI0
aI0
asI1501
(lp1405
I1
aI0
aI2
asI1502
(lp1406
I1
aI0
aI0
asI1503
(lp1407
I0
aI0
aI0
asI1504
(lp1408
I0
aI0
aI1
asI1505
(lp1409
I0
aI0
aI0
asI1506
(lp1410
I0
aI0
aI0
asI1507
(lp1411
I0
aI0
aI2
asI1508
(lp1412
I0
aI0
aI0
asI1509
(lp1413
I0
aI0
aI0
asI1510
(lp1414
I0
aI1
aI0
asI1511
(lp1415
I0
aI0
aI0
asI1512
(lp1416
I0
aI0
aI2
asI1513
(lp1417
I0
aI0
aI0
asI1514
(lp1418
I0
aI0
aI0
asI1515
(lp1419
I0
aI0
aI0
asI1516
(lp1420
I0
aI0
aI0
asI1517
(lp1421
I0
aI0
aI0
asI1519
(lp1422
I0
aI0
aI1
asI1520
(lp1423
I0
aI0
aI0
asI1521
(lp1424
I0
aI0
aI1
asI1522
(lp1425
I1
aI0
aI1
asI1524
(lp1426
I0
aI0
aI0
asI1525
(lp1427
I0
aI0
aI0
asI1526
(lp1428
I0
aI0
aI0
asI1528
(lp1429
I0
aI0
aI0
asI1529
(lp1430
I1
aI0
aI0
asI1530
(lp1431
I0
aI0
aI0
asI1531
(lp1432
I0
aI0
aI0
asI1532
(lp1433
I0
aI0
aI0
asI1533
(lp1434
I1
aI0
aI2
asI1534
(lp1435
I0
aI0
aI0
asI1535
(lp1436
I0
aI0
aI0
asI1536
(lp1437
I0
aI0
aI0
asI1537
(lp1438
I0
aI0
aI0
asI1538
(lp1439
I0
aI0
aI0
asI1539
(lp1440
I0
aI0
aI0
asI1540
(lp1441
I0
aI0
aI0
asI1541
(lp1442
I2
aI0
aI5
asI1542
(lp1443
I0
aI0
aI0
asI1543
(lp1444
I0
aI0
aI0
asI1544
(lp1445
I0
aI0
aI0
asI1545
(lp1446
I1
aI0
aI0
asI1546
(lp1447
I0
aI0
aI0
asI1547
(lp1448
I0
aI1
aI1
asI1548
(lp1449
I0
aI1
aI0
asI1549
(lp1450
I0
aI0
aI0
asI1550
(lp1451
I1
aI0
aI0
asI1551
(lp1452
I1
aI0
aI5
asI1552
(lp1453
I0
aI0
aI0
asI1553
(lp1454
I0
aI1
aI0
asI1554
(lp1455
I0
aI0
aI0
asI1555
(lp1456
I0
aI0
aI0
asI1556
(lp1457
I0
aI1
aI0
asI1557
(lp1458
I1
aI0
aI0
asI1558
(lp1459
I0
aI0
aI0
asI1559
(lp1460
I0
aI0
aI0
asI1560
(lp1461
I0
aI0
aI0
asI1561
(lp1462
I1
aI0
aI1
asI1562
(lp1463
I0
aI0
aI0
asI1563
(lp1464
I0
aI0
aI0
asI1564
(lp1465
I1
aI1
aI5
asI1565
(lp1466
I0
aI0
aI1
asI1566
(lp1467
I0
aI1
aI2
asI1567
(lp1468
I0
aI0
aI0
asI1568
(lp1469
I0
aI0
aI0
asI1569
(lp1470
I0
aI0
aI0
asI1570
(lp1471
I0
aI0
aI2
asI1571
(lp1472
I0
aI0
aI1
asI1572
(lp1473
I0
aI0
aI2
asI1573
(lp1474
I0
aI0
aI0
asI1574
(lp1475
I0
aI0
aI2
asI1575
(lp1476
I0
aI0
aI2
asI1576
(lp1477
I0
aI0
aI0
asI1577
(lp1478
I0
aI0
aI0
asI1578
(lp1479
I0
aI0
aI5
asI1579
(lp1480
I0
aI0
aI0
asI1580
(lp1481
I0
aI0
aI0
asI1581
(lp1482
I0
aI0
aI1
asI1582
(lp1483
I0
aI0
aI0
asI1583
(lp1484
I0
aI0
aI0
asI1584
(lp1485
I0
aI0
aI4
asI1585
(lp1486
I0
aI0
aI0
asI1586
(lp1487
I0
aI0
aI2
asI1587
(lp1488
I0
aI0
aI0
asI1588
(lp1489
I1
aI1
aI0
asI1589
(lp1490
I2
aI2
aI4
asI1590
(lp1491
I0
aI0
aI0
asI1591
(lp1492
I1
aI0
aI0
asI1592
(lp1493
I0
aI0
aI0
asI1593
(lp1494
I0
aI0
aI0
asI1594
(lp1495
I0
aI0
aI0
asI1595
(lp1496
I0
aI0
aI0
asI1596
(lp1497
I0
aI0
aI1
asI1597
(lp1498
I0
aI0
aI1
asI1598
(lp1499
I0
aI0
aI0
asI1599
(lp1500
I3
aI4
aI54
asI1600
(lp1501
I0
aI0
aI0
asI1601
(lp1502
I0
aI0
aI0
asI1602
(lp1503
I2
aI0
aI6
asI1603
(lp1504
I1
aI0
aI0
asI1604
(lp1505
I0
aI1
aI17
asI1605
(lp1506
I0
aI0
aI1
asI1606
(lp1507
I0
aI0
aI0
asI1607
(lp1508
I0
aI0
aI0
asI1608
(lp1509
I0
aI0
aI0
asI1609
(lp1510
I0
aI0
aI9
asI1610
(lp1511
I1
aI1
aI2
asI1611
(lp1512
I0
aI1
aI0
asI1612
(lp1513
I0
aI0
aI0
asI1613
(lp1514
I0
aI0
aI0
asI1614
(lp1515
I0
aI0
aI0
asI1615
(lp1516
I0
aI0
aI0
asI1616
(lp1517
I0
aI0
aI0
asI1617
(lp1518
I0
aI0
aI0
asI1618
(lp1519
I1
aI0
aI0
asI1619
(lp1520
I0
aI0
aI0
asI1620
(lp1521
I1
aI0
aI1
asI1621
(lp1522
I0
aI0
aI0
asI1622
(lp1523
I3
aI1
aI17
asI1623
(lp1524
I1
aI0
aI1
asI1624
(lp1525
I0
aI0
aI0
asI1625
(lp1526
I0
aI0
aI0
asI1626
(lp1527
I0
aI0
aI0
asI1627
(lp1528
I0
aI0
aI0
asI1628
(lp1529
I2
aI0
aI0
asI1629
(lp1530
I0
aI0
aI0
asI1630
(lp1531
I0
aI0
aI0
asI1631
(lp1532
I0
aI0
aI0
asI1632
(lp1533
I1
aI0
aI0
asI1633
(lp1534
I1
aI0
aI0
asI1634
(lp1535
I0
aI0
aI0
asI1635
(lp1536
I0
aI0
aI0
asI1636
(lp1537
I0
aI0
aI0
asI1637
(lp1538
I0
aI0
aI0
asI1638
(lp1539
I1
aI0
aI2
asI1639
(lp1540
I0
aI0
aI0
asI1640
(lp1541
I1
aI0
aI2
asI1641
(lp1542
I0
aI1
aI0
asI1642
(lp1543
I0
aI0
aI0
asI1643
(lp1544
I0
aI1
aI0
asI1644
(lp1545
I1
aI0
aI0
asI1645
(lp1546
I1
aI0
aI0
asI1646
(lp1547
I1
aI0
aI1
asI1647
(lp1548
I0
aI0
aI15
asI1648
(lp1549
I0
aI0
aI0
asI1649
(lp1550
I0
aI0
aI0
asI1650
(lp1551
I0
aI1
aI0
asI1651
(lp1552
I0
aI0
aI0
asI1652
(lp1553
I0
aI1
aI0
asI1654
(lp1554
I1
aI0
aI20
asI1655
(lp1555
I1
aI0
aI0
asI1656
(lp1556
I1
aI0
aI0
asI1657
(lp1557
I0
aI0
aI0
asI1658
(lp1558
I0
aI0
aI0
asI1659
(lp1559
I0
aI0
aI0
asI1660
(lp1560
I0
aI0
aI0
asI1661
(lp1561
I0
aI0
aI0
asI1662
(lp1562
I0
aI0
aI0
asI1663
(lp1563
I0
aI0
aI0
asI1664
(lp1564
I0
aI0
aI0
asI1665
(lp1565
I0
aI0
aI0
asI1666
(lp1566
I1
aI0
aI0
asI1667
(lp1567
I0
aI0
aI0
asI1668
(lp1568
I1
aI0
aI0
asI1669
(lp1569
I1
aI0
aI0
asI1670
(lp1570
I1
aI0
aI0
asI1671
(lp1571
I0
aI0
aI0
asI1672
(lp1572
I2
aI0
aI0
asI1673
(lp1573
I0
aI0
aI0
asI1674
(lp1574
I1
aI0
aI0
asI1675
(lp1575
I0
aI0
aI0
asI1676
(lp1576
I0
aI0
aI0
asI1677
(lp1577
I0
aI0
aI0
asI1678
(lp1578
I0
aI0
aI0
asI1679
(lp1579
I0
aI0
aI0
asI1680
(lp1580
I1
aI0
aI0
asI1681
(lp1581
I0
aI0
aI1
asI1682
(lp1582
I0
aI0
aI0
asI1683
(lp1583
I0
aI0
aI0
asI1684
(lp1584
I0
aI0
aI0
asI1685
(lp1585
I0
aI0
aI0
asI1686
(lp1586
I0
aI0
aI0
asI1687
(lp1587
I0
aI0
aI0
asI1688
(lp1588
I0
aI0
aI0
asI1689
(lp1589
I1
aI0
aI4
asI1690
(lp1590
I0
aI0
aI0
asI1691
(lp1591
I1
aI0
aI0
asI1692
(lp1592
I0
aI0
aI0
asI1693
(lp1593
I0
aI0
aI0
asI1694
(lp1594
I0
aI0
aI0
asI1695
(lp1595
I0
aI0
aI0
asI1696
(lp1596
I1
aI0
aI0
asI1697
(lp1597
I0
aI0
aI0
asI1698
(lp1598
I0
aI0
aI0
asI1699
(lp1599
I1
aI0
aI0
asI1700
(lp1600
I0
aI0
aI0
asI1701
(lp1601
I0
aI0
aI1
asI1702
(lp1602
I0
aI0
aI0
asI1703
(lp1603
I1
aI1
aI2
asI1704
(lp1604
I0
aI0
aI0
asI1705
(lp1605
I0
aI0
aI0
asI1706
(lp1606
I0
aI0
aI0
asI1707
(lp1607
I1
aI0
aI0
asI1708
(lp1608
I0
aI0
aI0
asI1709
(lp1609
I1
aI0
aI0
asI1710
(lp1610
I0
aI0
aI0
asI1711
(lp1611
I2
aI0
aI0
asI1712
(lp1612
I0
aI0
aI0
asI1713
(lp1613
I0
aI0
aI0
asI1714
(lp1614
I0
aI1
aI0
asI1715
(lp1615
I0
aI0
aI0
asI1716
(lp1616
I1
aI0
aI1
asI1717
(lp1617
I1
aI0
aI0
asI1718
(lp1618
I0
aI2
aI0
asI1719
(lp1619
I1
aI0
aI0
asI1720
(lp1620
I0
aI0
aI0
asI1721
(lp1621
I1
aI4
aI7
asI1722
(lp1622
I0
aI0
aI0
asI1723
(lp1623
I0
aI0
aI0
asI1724
(lp1624
I0
aI0
aI0
asI1725
(lp1625
I0
aI0
aI0
asI1726
(lp1626
I1
aI0
aI0
asI1727
(lp1627
I0
aI0
aI0
asI1728
(lp1628
I0
aI0
aI0
asI1729
(lp1629
I0
aI0
aI0
asI1730
(lp1630
I0
aI0
aI0
asI1731
(lp1631
I0
aI0
aI0
asI1732
(lp1632
I1
aI0
aI0
asI1733
(lp1633
I0
aI4
aI3
asI1734
(lp1634
I1
aI0
aI2
asI1735
(lp1635
I0
aI0
aI0
asI1736
(lp1636
I0
aI0
aI0
asI1737
(lp1637
I1
aI0
aI0
asI1738
(lp1638
I0
aI0
aI0
asI1739
(lp1639
I0
aI0
aI0
asI1740
(lp1640
I0
aI0
aI0
asI1741
(lp1641
I0
aI0
aI0
asI1742
(lp1642
I0
aI0
aI0
asI1743
(lp1643
I0
aI0
aI0
asI1744
(lp1644
I1
aI1
aI1
asI1745
(lp1645
I0
aI0
aI0
asI1746
(lp1646
I0
aI0
aI0
asI1747
(lp1647
I0
aI0
aI0
asI1748
(lp1648
I0
aI0
aI0
asI1749
(lp1649
I0
aI0
aI0
asI1750
(lp1650
I0
aI0
aI0
asI1751
(lp1651
I0
aI0
aI0
asI1752
(lp1652
I1
aI0
aI0
asI1753
(lp1653
I1
aI0
aI0
asI1754
(lp1654
I0
aI0
aI0
asI1755
(lp1655
I0
aI0
aI0
asI1756
(lp1656
I0
aI0
aI0
asI1757
(lp1657
I0
aI0
aI0
asI1758
(lp1658
I0
aI0
aI0
asI1759
(lp1659
I1
aI0
aI0
asI1760
(lp1660
I0
aI0
aI2
asI1761
(lp1661
I0
aI0
aI0
asI1762
(lp1662
I0
aI0
aI0
asI1763
(lp1663
I0
aI0
aI0
asI1764
(lp1664
I0
aI0
aI0
asI1765
(lp1665
I0
aI0
aI0
asI1766
(lp1666
I0
aI0
aI0
asI1767
(lp1667
I0
aI0
aI1
asI1768
(lp1668
I0
aI0
aI0
asI1769
(lp1669
I0
aI0
aI0
asI1770
(lp1670
I1
aI0
aI2
asI1771
(lp1671
I0
aI0
aI3
asI1772
(lp1672
I0
aI0
aI0
asI1773
(lp1673
I0
aI0
aI0
asI1774
(lp1674
I0
aI0
aI0
asI1775
(lp1675
I0
aI0
aI0
asI1776
(lp1676
I0
aI0
aI0
asI1777
(lp1677
I0
aI0
aI0
asI1778
(lp1678
I0
aI0
aI0
asI1779
(lp1679
I0
aI0
aI0
asI1780
(lp1680
I1
aI0
aI0
asI1781
(lp1681
I0
aI0
aI0
asI1782
(lp1682
I0
aI0
aI0
asI1783
(lp1683
I0
aI0
aI0
asI1784
(lp1684
I0
aI0
aI0
asI1785
(lp1685
I0
aI0
aI0
asI1786
(lp1686
I1
aI0
aI0
asI1787
(lp1687
I0
aI1
aI0
asI1788
(lp1688
I0
aI0
aI0
asI1789
(lp1689
I0
aI3
aI2
asI1790
(lp1690
I0
aI1
aI0
asI1791
(lp1691
I0
aI0
aI0
asI1792
(lp1692
I0
aI0
aI0
asI1793
(lp1693
I0
aI0
aI0
asI1794
(lp1694
I1
aI0
aI2
asI1795
(lp1695
I0
aI0
aI0
asI1796
(lp1696
I1
aI1
aI3
asI1797
(lp1697
I1
aI0
aI0
asI1798
(lp1698
I0
aI0
aI2
asI1799
(lp1699
I1
aI0
aI0
asI1800
(lp1700
I0
aI0
aI0
asI1801
(lp1701
I1
aI0
aI3
asI1802
(lp1702
I0
aI0
aI0
asI1803
(lp1703
I1
aI0
aI1
asI1804
(lp1704
I0
aI0
aI0
asI1805
(lp1705
I1
aI0
aI1
asI1806
(lp1706
I0
aI1
aI32
asI1807
(lp1707
I0
aI0
aI1
asI1809
(lp1708
I0
aI1
aI0
asI1810
(lp1709
I1
aI0
aI0
asI1811
(lp1710
I1
aI0
aI1
asI1812
(lp1711
I0
aI0
aI0
asI1813
(lp1712
I0
aI0
aI0
asI1814
(lp1713
I0
aI0
aI0
asI1815
(lp1714
I0
aI0
aI0
asI1816
(lp1715
I0
aI0
aI0
asI1817
(lp1716
I0
aI0
aI0
asI1818
(lp1717
I0
aI0
aI0
asI1819
(lp1718
I0
aI0
aI0
asI1820
(lp1719
I0
aI0
aI0
asI1822
(lp1720
I0
aI0
aI0
asI1823
(lp1721
I0
aI0
aI0
asI1824
(lp1722
I0
aI0
aI0
asI1825
(lp1723
I1
aI0
aI0
asI1826
(lp1724
I0
aI0
aI0
asI1827
(lp1725
I1
aI0
aI0
asI1828
(lp1726
I0
aI2
aI0
asI1829
(lp1727
I0
aI0
aI0
asI1830
(lp1728
I0
aI0
aI0
asI1831
(lp1729
I0
aI0
aI0
asI1832
(lp1730
I0
aI0
aI0
asI1834
(lp1731
I1
aI0
aI1
asI1835
(lp1732
I0
aI0
aI0
asI1836
(lp1733
I0
aI0
aI0
asI1837
(lp1734
I1
aI1
aI0
asI1838
(lp1735
I1
aI0
aI2
asI1839
(lp1736
I0
aI0
aI0
asI1840
(lp1737
I0
aI0
aI0
asI1841
(lp1738
I0
aI0
aI0
asI1842
(lp1739
I0
aI0
aI0
asI1843
(lp1740
I0
aI0
aI0
asI1844
(lp1741
I0
aI0
aI0
asI1845
(lp1742
I0
aI0
aI0
asI1846
(lp1743
I0
aI0
aI0
asI1847
(lp1744
I0
aI0
aI0
asI1848
(lp1745
I0
aI0
aI0
asI1849
(lp1746
I0
aI0
aI0
asI1850
(lp1747
I0
aI0
aI0
asI1851
(lp1748
I0
aI0
aI0
asI1852
(lp1749
I0
aI0
aI0
asI1853
(lp1750
I0
aI0
aI0
asI1855
(lp1751
I1
aI0
aI0
asI1856
(lp1752
I1
aI0
aI1
asI1857
(lp1753
I0
aI0
aI0
asI1858
(lp1754
I0
aI0
aI0
asI1859
(lp1755
I1
aI0
aI0
asI1860
(lp1756
I0
aI0
aI0
asI1861
(lp1757
I0
aI0
aI0
asI1862
(lp1758
I0
aI0
aI0
asI1863
(lp1759
I1
aI0
aI0
asI1864
(lp1760
I1
aI0
aI0
asI1865
(lp1761
I0
aI0
aI0
asI1866
(lp1762
I1
aI0
aI1
asI1867
(lp1763
I1
aI0
aI1
asI1868
(lp1764
I0
aI0
aI0
asI1869
(lp1765
I0
aI0
aI0
asI1870
(lp1766
I1
aI0
aI0
asI1871
(lp1767
I1
aI0
aI0
asI1872
(lp1768
I0
aI0
aI0
asI1873
(lp1769
I0
aI0
aI0
asI1874
(lp1770
I0
aI0
aI0
asI1875
(lp1771
I0
aI0
aI0
asI1876
(lp1772
I0
aI0
aI0
asI1877
(lp1773
I0
aI0
aI0
asI1878
(lp1774
I0
aI0
aI0
asI1879
(lp1775
I0
aI0
aI0
asI1880
(lp1776
I0
aI0
aI0
asI1881
(lp1777
I0
aI1
aI0
asI1882
(lp1778
I0
aI0
aI0
asI1883
(lp1779
I0
aI0
aI0
asI1884
(lp1780
I0
aI0
aI0
asI1885
(lp1781
I0
aI1
aI0
asI1886
(lp1782
I0
aI0
aI0
asI1887
(lp1783
I0
aI0
aI0
asI1888
(lp1784
I0
aI0
aI0
asI1889
(lp1785
I0
aI5
aI3
asI1890
(lp1786
I0
aI1
aI0
asI1891
(lp1787
I0
aI0
aI0
asI1892
(lp1788
I0
aI0
aI0
asI1893
(lp1789
I0
aI0
aI1
asI1894
(lp1790
I0
aI0
aI1
asI1895
(lp1791
I0
aI0
aI2
asI1896
(lp1792
I0
aI0
aI0
asI1897
(lp1793
I1
aI0
aI1
asI1898
(lp1794
I0
aI1
aI0
asI1899
(lp1795
I0
aI0
aI0
asI1900
(lp1796
I0
aI0
aI0
asI1901
(lp1797
I1
aI0
aI0
asI1902
(lp1798
I0
aI0
aI0
asI1903
(lp1799
I0
aI0
aI0
asI1904
(lp1800
I0
aI0
aI0
asI1905
(lp1801
I0
aI0
aI0
asI1906
(lp1802
I0
aI0
aI0
asI1907
(lp1803
I0
aI0
aI0
asI1908
(lp1804
I0
aI0
aI0
asI1909
(lp1805
I0
aI0
aI0
asI1910
(lp1806
I0
aI0
aI0
asI1911
(lp1807
I0
aI0
aI0
asI1912
(lp1808
I0
aI0
aI0
asI1913
(lp1809
I0
aI1
aI0
asI1914
(lp1810
I0
aI0
aI0
asI1915
(lp1811
I0
aI0
aI0
asI1916
(lp1812
I0
aI0
aI0
asI1917
(lp1813
I0
aI0
aI0
asI1918
(lp1814
I1
aI1
aI2
asI1919
(lp1815
I0
aI0
aI0
asI1920
(lp1816
I1
aI0
aI0
asI1921
(lp1817
I0
aI0
aI0
asI1922
(lp1818
I1
aI0
aI0
asI1923
(lp1819
I1
aI0
aI0
asI1924
(lp1820
I0
aI0
aI0
asI1925
(lp1821
I0
aI0
aI0
asI1926
(lp1822
I0
aI0
aI0
asI1927
(lp1823
I0
aI0
aI0
asI1929
(lp1824
I0
aI0
aI0
asI1930
(lp1825
I0
aI0
aI0
asI1931
(lp1826
I0
aI0
aI0
asI1932
(lp1827
I0
aI0
aI0
asI1933
(lp1828
I0
aI0
aI0
asI1934
(lp1829
I0
aI0
aI0
asI1935
(lp1830
I0
aI0
aI0
asI1936
(lp1831
I0
aI0
aI0
asI1937
(lp1832
I0
aI0
aI0
asI1938
(lp1833
I1
aI0
aI1
asI1939
(lp1834
I0
aI0
aI2
asI1940
(lp1835
I0
aI2
aI2
asI1941
(lp1836
I0
aI1
aI0
asI1942
(lp1837
I0
aI0
aI0
asI1943
(lp1838
I0
aI0
aI0
asI1944
(lp1839
I1
aI0
aI2
asI1945
(lp1840
I0
aI1
aI1
asI1946
(lp1841
I1
aI0
aI0
asI1947
(lp1842
I0
aI0
aI0
asI1948
(lp1843
I0
aI0
aI0
asI1949
(lp1844
I0
aI0
aI4
asI1950
(lp1845
I0
aI0
aI0
asI1951
(lp1846
I0
aI0
aI0
asI1952
(lp1847
I0
aI2
aI0
asI1953
(lp1848
I1
aI0
aI0
asI1954
(lp1849
I0
aI0
aI0
asI1955
(lp1850
I0
aI0
aI0
asI1956
(lp1851
I0
aI0
aI0
asI1957
(lp1852
I0
aI0
aI0
asI1958
(lp1853
I0
aI0
aI0
asI1959
(lp1854
I0
aI0
aI0
asI1960
(lp1855
I0
aI0
aI0
asI1961
(lp1856
I0
aI0
aI2
asI1962
(lp1857
I0
aI0
aI0
asI1963
(lp1858
I0
aI0
aI0
asI1964
(lp1859
I0
aI0
aI0
asI1965
(lp1860
I0
aI0
aI0
asI1966
(lp1861
I1
aI0
aI1
asI1967
(lp1862
I1
aI0
aI0
asI1968
(lp1863
I0
aI0
aI0
asI1969
(lp1864
I0
aI0
aI0
asI1970
(lp1865
I0
aI0
aI0
asI1971
(lp1866
I0
aI0
aI1
asI1972
(lp1867
I0
aI0
aI0
asI1973
(lp1868
I0
aI0
aI0
asI1974
(lp1869
I0
aI0
aI0
asI1975
(lp1870
I0
aI0
aI0
asI1976
(lp1871
I0
aI1
aI2
asI1977
(lp1872
I0
aI0
aI0
asI1978
(lp1873
I0
aI0
aI0
asI1979
(lp1874
I0
aI0
aI0
asI1980
(lp1875
I0
aI0
aI0
asI1981
(lp1876
I1
aI0
aI1
asI1982
(lp1877
I0
aI0
aI0
asI1983
(lp1878
I0
aI0
aI0
asI1984
(lp1879
I0
aI0
aI1
asI1985
(lp1880
I0
aI0
aI0
asI1986
(lp1881
I0
aI0
aI2
asI1987
(lp1882
I0
aI0
aI0
asI1988
(lp1883
I1
aI0
aI0
asI1989
(lp1884
I0
aI0
aI0
asI1990
(lp1885
I0
aI0
aI0
asI1991
(lp1886
I0
aI0
aI0
asI1992
(lp1887
I0
aI0
aI0
asI1993
(lp1888
I0
aI0
aI0
asI1994
(lp1889
I0
aI0
aI0
asI1995
(lp1890
I0
aI0
aI0
asI1996
(lp1891
I1
aI0
aI0
asI1997
(lp1892
I0
aI0
aI0
asI1998
(lp1893
I0
aI0
aI0
asI1999
(lp1894
I0
aI0
aI0
asI2000
(lp1895
I2
aI0
aI146
asI2001
(lp1896
I0
aI0
aI0
asI2002
(lp1897
I1
aI0
aI0
asI2003
(lp1898
I1
aI0
aI2
asI2004
(lp1899
I0
aI1
aI0
asI2005
(lp1900
I0
aI0
aI0
asI2006
(lp1901
I0
aI0
aI0
asI2007
(lp1902
I0
aI0
aI0
asI2008
(lp1903
I0
aI0
aI0
asI2009
(lp1904
I0
aI0
aI0
asI2010
(lp1905
I0
aI0
aI0
asI2011
(lp1906
I1
aI0
aI0
asI2013
(lp1907
I1
aI0
aI1
asI2014
(lp1908
I0
aI1
aI0
asI2015
(lp1909
I1
aI0
aI0
asI2016
(lp1910
I3
aI0
aI2
asI2017
(lp1911
I0
aI0
aI0
asI2018
(lp1912
I0
aI0
aI0
asI2019
(lp1913
I0
aI0
aI0
asI2020
(lp1914
I1
aI0
aI0
asI2021
(lp1915
I0
aI0
aI0
asI2022
(lp1916
I0
aI0
aI0
asI2023
(lp1917
I0
aI0
aI0
asI2024
(lp1918
I0
aI0
aI0
asI2025
(lp1919
I0
aI0
aI0
asI2026
(lp1920
I0
aI0
aI0
asI2027
(lp1921
I0
aI0
aI0
asI2028
(lp1922
I0
aI0
aI0
asI2029
(lp1923
I0
aI0
aI0
asI2030
(lp1924
I0
aI0
aI0
asI2031
(lp1925
I1
aI0
aI0
asI2032
(lp1926
I0
aI0
aI0
asI2033
(lp1927
I0
aI0
aI0
asI2034
(lp1928
I0
aI0
aI0
asI2035
(lp1929
I0
aI0
aI0
asI2036
(lp1930
I0
aI0
aI0
asI2037
(lp1931
I0
aI2
aI0
asI2038
(lp1932
I0
aI1
aI0
asI2039
(lp1933
I0
aI0
aI0
asI2040
(lp1934
I1
aI0
aI0
asI2041
(lp1935
I0
aI1
aI0
asI2042
(lp1936
I0
aI0
aI0
asI2043
(lp1937
I0
aI0
aI0
asI2044
(lp1938
I1
aI0
aI0
asI2045
(lp1939
I0
aI0
aI0
asI2046
(lp1940
I1
aI0
aI0
asI2047
(lp1941
I0
aI0
aI0
asI2048
(lp1942
I0
aI0
aI0
asI2049
(lp1943
I1
aI0
aI0
asI2050
(lp1944
I0
aI0
aI0
asI2051
(lp1945
I1
aI0
aI0
asI2052
(lp1946
I0
aI0
aI0
asI2053
(lp1947
I1
aI0
aI0
asI2054
(lp1948
I0
aI0
aI0
asI2055
(lp1949
I0
aI0
aI0
asI2056
(lp1950
I0
aI0
aI0
asI2057
(lp1951
I0
aI1
aI0
asI2058
(lp1952
I0
aI0
aI1
asI2059
(lp1953
I0
aI1
aI0
asI2060
(lp1954
I2
aI0
aI0
asI2061
(lp1955
I0
aI0
aI0
asI2062
(lp1956
I0
aI1
aI0
asI2063
(lp1957
I0
aI0
aI0
asI2064
(lp1958
I0
aI0
aI5
asI2065
(lp1959
I0
aI0
aI0
asI2066
(lp1960
I0
aI0
aI0
asI2067
(lp1961
I0
aI1
aI0
asI2068
(lp1962
I0
aI0
aI0
asI2069
(lp1963
I1
aI0
aI0
asI2070
(lp1964
I0
aI0
aI3
asI2071
(lp1965
I2
aI0
aI0
asI2072
(lp1966
I0
aI8
aI2
asI2073
(lp1967
I1
aI0
aI1
asI2074
(lp1968
I1
aI0
aI0
asI2075
(lp1969
I0
aI0
aI0
asI2076
(lp1970
I0
aI1
aI0
asI2077
(lp1971
I0
aI1
aI2
asI2078
(lp1972
I0
aI0
aI0
asI2079
(lp1973
I0
aI0
aI0
asI2080
(lp1974
I0
aI0
aI0
asI2081
(lp1975
I1
aI0
aI1
asI2082
(lp1976
I0
aI0
aI0
asI2083
(lp1977
I0
aI0
aI0
asI2084
(lp1978
I0
aI0
aI0
asI2085
(lp1979
I0
aI0
aI0
asI2086
(lp1980
I0
aI1
aI0
asI2087
(lp1981
I1
aI0
aI0
asI2088
(lp1982
I0
aI0
aI0
asI2089
(lp1983
I0
aI0
aI0
asI2090
(lp1984
I0
aI0
aI0
asI2091
(lp1985
I0
aI1
aI0
asI2092
(lp1986
I0
aI0
aI0
asI2093
(lp1987
I0
aI0
aI0
asI2094
(lp1988
I1
aI0
aI0
asI2095
(lp1989
I0
aI0
aI0
asI2096
(lp1990
I0
aI0
aI1
asI2097
(lp1991
I0
aI0
aI0
asI2098
(lp1992
I2
aI0
aI0
asI2099
(lp1993
I0
aI0
aI0
asI2100
(lp1994
I0
aI0
aI0
asI2101
(lp1995
I0
aI0
aI0
asI2102
(lp1996
I0
aI0
aI0
asI2103
(lp1997
I0
aI0
aI0
asI2104
(lp1998
I0
aI0
aI0
asI2105
(lp1999
I1
aI0
aI0
asI2106
(lp2000
I0
aI0
aI1
asI2107
(lp2001
I0
aI0
aI0
asI2108
(lp2002
I0
aI0
aI0
asI2109
(lp2003
I0
aI0
aI0
asI2110
(lp2004
I0
aI0
aI0
asI2111
(lp2005
I0
aI1
aI0
asI2112
(lp2006
I0
aI0
aI0
asI2113
(lp2007
I0
aI0
aI0
asI2114
(lp2008
I0
aI0
aI0
asI2115
(lp2009
I0
aI0
aI0
asI2116
(lp2010
I0
aI0
aI0
asI2117
(lp2011
I0
aI0
aI0
asI2118
(lp2012
I0
aI0
aI0
asI2119
(lp2013
I0
aI0
aI0
asI2120
(lp2014
I0
aI0
aI1
asI2121
(lp2015
I0
aI0
aI0
asI2122
(lp2016
I0
aI2
aI0
asI2123
(lp2017
I1
aI0
aI0
asI2124
(lp2018
I1
aI0
aI1
asI2125
(lp2019
I0
aI0
aI0
asI2126
(lp2020
I0
aI0
aI1
asI2127
(lp2021
I0
aI0
aI0
asI2128
(lp2022
I1
aI0
aI0
asI2129
(lp2023
I0
aI0
aI0
asI2130
(lp2024
I0
aI0
aI0
asI2131
(lp2025
I0
aI0
aI0
asI2132
(lp2026
I0
aI0
aI1
asI2133
(lp2027
I0
aI0
aI0
asI2134
(lp2028
I0
aI0
aI0
asI2135
(lp2029
I0
aI0
aI0
asI2136
(lp2030
I0
aI0
aI0
asI2137
(lp2031
I0
aI0
aI0
asI2138
(lp2032
I0
aI0
aI0
asI2139
(lp2033
I0
aI0
aI0
asI2140
(lp2034
I0
aI0
aI0
asI2141
(lp2035
I0
aI0
aI0
asI2142
(lp2036
I0
aI0
aI0
asI2143
(lp2037
I0
aI0
aI0
asI2145
(lp2038
I0
aI0
aI0
asI2146
(lp2039
I1
aI0
aI0
asI2147
(lp2040
I0
aI1
aI0
asI2148
(lp2041
I0
aI0
aI0
asI2149
(lp2042
I6
aI1
aI2
asI2151
(lp2043
I0
aI0
aI0
asI2152
(lp2044
I0
aI0
aI0
asI2153
(lp2045
I1
aI1
aI0
asI2154
(lp2046
I0
aI0
aI0
asI2155
(lp2047
I1
aI0
aI1
asI2156
(lp2048
I0
aI0
aI0
asI2157
(lp2049
I2
aI0
aI0
asI2158
(lp2050
I0
aI0
aI0
asI2159
(lp2051
I0
aI0
aI0
asI2160
(lp2052
I2
aI0
aI0
asI2161
(lp2053
I0
aI1
aI0
asI2162
(lp2054
I0
aI0
aI0
asI2163
(lp2055
I0
aI1
aI1
asI2164
(lp2056
I1
aI0
aI0
asI2165
(lp2057
I0
aI0
aI0
asI2166
(lp2058
I0
aI1
aI0
asI2167
(lp2059
I0
aI0
aI43
asI2168
(lp2060
I2
aI0
aI0
asI2169
(lp2061
I1
aI0
aI0
asI2170
(lp2062
I0
aI0
aI1
asI2171
(lp2063
I0
aI0
aI2
asI2172
(lp2064
I5
aI3
aI2
asI2173
(lp2065
I0
aI0
aI0
asI2174
(lp2066
I0
aI0
aI0
asI2175
(lp2067
I0
aI0
aI0
asI2176
(lp2068
I0
aI0
aI0
asI2177
(lp2069
I0
aI0
aI0
asI2178
(lp2070
I0
aI0
aI0
asI2179
(lp2071
I0
aI0
aI1
asI2180
(lp2072
I0
aI0
aI0
asI2181
(lp2073
I0
aI0
aI0
asI2182
(lp2074
I0
aI0
aI0
asI2183
(lp2075
I0
aI0
aI0
asI2185
(lp2076
I0
aI0
aI0
asI2186
(lp2077
I1
aI0
aI0
asI2187
(lp2078
I0
aI0
aI0
asI2189
(lp2079
I0
aI0
aI0
asI2190
(lp2080
I0
aI1
aI0
asI2191
(lp2081
I0
aI0
aI0
asI2192
(lp2082
I1
aI0
aI0
asI2193
(lp2083
I0
aI1
aI0
asI2194
(lp2084
I0
aI0
aI0
asI2195
(lp2085
I0
aI0
aI0
asI2196
(lp2086
I1
aI0
aI3
asI2197
(lp2087
I0
aI0
aI0
asI2198
(lp2088
I1
aI0
aI0
asI2199
(lp2089
I0
aI0
aI0
asI2200
(lp2090
I1
aI0
aI1
asI2201
(lp2091
I0
aI0
aI0
asI2202
(lp2092
I0
aI0
aI0
asI2203
(lp2093
I0
aI15
aI20
asI2204
(lp2094
I1
aI0
aI3
asI2205
(lp2095
I1
aI0
aI0
asI2206
(lp2096
I0
aI0
aI0
asI2207
(lp2097
I0
aI0
aI0
asI2208
(lp2098
I1
aI0
aI1
asI2209
(lp2099
I0
aI0
aI0
asI2210
(lp2100
I0
aI0
aI0
asI2211
(lp2101
I0
aI0
aI0
asI2212
(lp2102
I0
aI0
aI0
asI2213
(lp2103
I0
aI0
aI0
asI2214
(lp2104
I0
aI1
aI0
asI2215
(lp2105
I0
aI0
aI0
asI2216
(lp2106
I0
aI0
aI0
asI2217
(lp2107
I0
aI0
aI0
asI2218
(lp2108
I1
aI0
aI2
asI2219
(lp2109
I0
aI0
aI0
asI2221
(lp2110
I0
aI0
aI0
asI2222
(lp2111
I0
aI0
aI0
asI2223
(lp2112
I0
aI0
aI0
asI2224
(lp2113
I0
aI0
aI0
asI2225
(lp2114
I1
aI0
aI0
asI2226
(lp2115
I0
aI0
aI0
asI2227
(lp2116
I1
aI0
aI0
asI2228
(lp2117
I0
aI0
aI0
asI2229
(lp2118
I0
aI0
aI0
asI2230
(lp2119
I1
aI0
aI0
asI2231
(lp2120
I1
aI0
aI0
asI2232
(lp2121
I0
aI0
aI1
asI2233
(lp2122
I0
aI0
aI0
asI2234
(lp2123
I0
aI0
aI0
asI2235
(lp2124
I0
aI0
aI0
asI2236
(lp2125
I0
aI0
aI0
asI2237
(lp2126
I1
aI1
aI0
asI2238
(lp2127
I1
aI0
aI1
asI2239
(lp2128
I0
aI0
aI0
asI2240
(lp2129
I0
aI0
aI0
asI2241
(lp2130
I1
aI0
aI0
asI2242
(lp2131
I1
aI0
aI2
asI2243
(lp2132
I0
aI2
aI4
asI2244
(lp2133
I0
aI0
aI0
asI2245
(lp2134
I0
aI1
aI0
asI2246
(lp2135
I0
aI0
aI0
asI2247
(lp2136
I1
aI1
aI0
asI2248
(lp2137
I0
aI0
aI0
asI2249
(lp2138
I0
aI0
aI0
asI2250
(lp2139
I0
aI0
aI0
asI2251
(lp2140
I0
aI0
aI0
asI2252
(lp2141
I0
aI0
aI0
asI2253
(lp2142
I0
aI0
aI0
asI2254
(lp2143
I1
aI0
aI1
asI2255
(lp2144
I0
aI0
aI0
asI2256
(lp2145
I1
aI0
aI0
asI2257
(lp2146
I1
aI0
aI0
asI2258
(lp2147
I0
aI0
aI0
asI2259
(lp2148
I0
aI0
aI0
asI2260
(lp2149
I0
aI0
aI1
asI2261
(lp2150
I1
aI0
aI0
asI2262
(lp2151
I0
aI0
aI0
asI2263
(lp2152
I1
aI0
aI0
asI2264
(lp2153
I0
aI0
aI0
asI2265
(lp2154
I1
aI0
aI0
asI2266
(lp2155
I1
aI0
aI0
asI2267
(lp2156
I0
aI0
aI0
asI2268
(lp2157
I0
aI0
aI0
asI2269
(lp2158
I0
aI0
aI0
asI2270
(lp2159
I0
aI0
aI0
asI2271
(lp2160
I0
aI0
aI0
asI2272
(lp2161
I0
aI0
aI0
asI2273
(lp2162
I0
aI0
aI0
asI2274
(lp2163
I0
aI0
aI0
asI2275
(lp2164
I0
aI0
aI0
asI2276
(lp2165
I0
aI0
aI0
asI2277
(lp2166
I1
aI0
aI1
asI2278
(lp2167
I0
aI0
aI0
asI2279
(lp2168
I0
aI0
aI0
asI2280
(lp2169
I0
aI0
aI0
asI2281
(lp2170
I1
aI0
aI0
asI2282
(lp2171
I1
aI0
aI3
asI2283
(lp2172
I0
aI0
aI0
asI2284
(lp2173
I0
aI0
aI0
asI2285
(lp2174
I0
aI0
aI0
asI2286
(lp2175
I0
aI0
aI0
asI2287
(lp2176
I0
aI0
aI0
asI2288
(lp2177
I0
aI0
aI0
asI2289
(lp2178
I0
aI1
aI0
asI2290
(lp2179
I0
aI0
aI0
asI2291
(lp2180
I0
aI0
aI0
asI2292
(lp2181
I0
aI0
aI0
asI2293
(lp2182
I0
aI0
aI0
asI2294
(lp2183
I0
aI0
aI0
asI2295
(lp2184
I1
aI0
aI0
asI2296
(lp2185
I0
aI0
aI0
asI2297
(lp2186
I0
aI0
aI0
asI2298
(lp2187
I0
aI0
aI0
asI2299
(lp2188
I0
aI0
aI0
asI2300
(lp2189
I0
aI0
aI2
asI2301
(lp2190
I1
aI0
aI1
asI2302
(lp2191
I0
aI0
aI2
asI2303
(lp2192
I0
aI0
aI0
asI2304
(lp2193
I0
aI0
aI0
asI2305
(lp2194
I0
aI0
aI0
asI2306
(lp2195
I0
aI0
aI0
asI2307
(lp2196
I1
aI2
aI3
asI2308
(lp2197
I0
aI1
aI1
asI2309
(lp2198
I0
aI1
aI0
asI2310
(lp2199
I0
aI0
aI0
asI2311
(lp2200
I0
aI0
aI0
asI2312
(lp2201
I0
aI0
aI0
asI2313
(lp2202
I1
aI0
aI0
asI2314
(lp2203
I0
aI0
aI0
asI2315
(lp2204
I1
aI0
aI0
asI2316
(lp2205
I0
aI0
aI0
asI2317
(lp2206
I1
aI1
aI0
asI2318
(lp2207
I1
aI0
aI0
asI2319
(lp2208
I1
aI0
aI0
asI2320
(lp2209
I0
aI0
aI2
asI2321
(lp2210
I0
aI0
aI0
asI2322
(lp2211
I0
aI12
aI0
asI2323
(lp2212
I0
aI2
aI0
asI2324
(lp2213
I1
aI0
aI0
asI2325
(lp2214
I0
aI0
aI0
asI2326
(lp2215
I0
aI0
aI0
asI2327
(lp2216
I1
aI0
aI0
asI2328
(lp2217
I0
aI0
aI0
asI2329
(lp2218
I1
aI2
aI3
asI2330
(lp2219
I1
aI0
aI0
asI2331
(lp2220
I0
aI0
aI0
asI2332
(lp2221
I0
aI0
aI0
asI2333
(lp2222
I0
aI0
aI0
asI2334
(lp2223
I1
aI0
aI0
asI2335
(lp2224
I0
aI0
aI0
asI2336
(lp2225
I1
aI0
aI1
asI2337
(lp2226
I0
aI0
aI0
asI2338
(lp2227
I0
aI1
aI0
asI2339
(lp2228
I0
aI0
aI0
asI2340
(lp2229
I0
aI0
aI0
asI2341
(lp2230
I0
aI0
aI0
asI2342
(lp2231
I0
aI1
aI0
asI2343
(lp2232
I1
aI0
aI0
asI2344
(lp2233
I0
aI0
aI0
asI2345
(lp2234
I0
aI0
aI0
asI2346
(lp2235
I0
aI0
aI0
asI2347
(lp2236
I0
aI0
aI0
asI2348
(lp2237
I0
aI0
aI0
asI2349
(lp2238
I0
aI0
aI0
asI2350
(lp2239
I1
aI0
aI0
asI2351
(lp2240
I0
aI0
aI0
asI2352
(lp2241
I0
aI0
aI0
asI2353
(lp2242
I0
aI0
aI0
asI2354
(lp2243
I1
aI0
aI0
asI2355
(lp2244
I0
aI0
aI0
asI2356
(lp2245
I0
aI0
aI0
asI2357
(lp2246
I0
aI0
aI0
asI2358
(lp2247
I1
aI0
aI1
asI2359
(lp2248
I1
aI0
aI0
asI2360
(lp2249
I0
aI0
aI0
asI2361
(lp2250
I0
aI0
aI0
asI2362
(lp2251
I1
aI0
aI0
asI2363
(lp2252
I0
aI0
aI0
asI2364
(lp2253
I1
aI0
aI0
asI2365
(lp2254
I1
aI0
aI1
asI2366
(lp2255
I2
aI2
aI0
asI2367
(lp2256
I1
aI0
aI0
asI2368
(lp2257
I1
aI0
aI0
asI2369
(lp2258
I1
aI0
aI0
asI2370
(lp2259
I0
aI0
aI1
asI2371
(lp2260
I0
aI0
aI0
asI2372
(lp2261
I1
aI0
aI0
asI2373
(lp2262
I1
aI0
aI1
asI2374
(lp2263
I1
aI0
aI0
asI2375
(lp2264
I1
aI0
aI0
asI2376
(lp2265
I0
aI1
aI0
asI2377
(lp2266
I0
aI0
aI0
asI2378
(lp2267
I0
aI0
aI0
asI2379
(lp2268
I0
aI0
aI0
asI2380
(lp2269
I0
aI0
aI0
asI2381
(lp2270
I0
aI0
aI0
asI2382
(lp2271
I1
aI0
aI0
asI2383
(lp2272
I0
aI0
aI0
asI2384
(lp2273
I0
aI0
aI0
asI2385
(lp2274
I1
aI0
aI0
asI2386
(lp2275
I0
aI0
aI0
asI2387
(lp2276
I1
aI0
aI0
asI2388
(lp2277
I1
aI0
aI0
asI2389
(lp2278
I0
aI0
aI0
asI2390
(lp2279
I0
aI0
aI0
asI2391
(lp2280
I0
aI0
aI0
asI2392
(lp2281
I0
aI0
aI0
asI2393
(lp2282
I0
aI0
aI0
asI2394
(lp2283
I1
aI0
aI0
asI2395
(lp2284
I1
aI0
aI0
asI2396
(lp2285
I0
aI0
aI0
asI2397
(lp2286
I0
aI0
aI0
asI2398
(lp2287
I0
aI0
aI0
asI2399
(lp2288
I1
aI0
aI0
asI2400
(lp2289
I0
aI0
aI0
asI2401
(lp2290
I0
aI0
aI0
asI2402
(lp2291
I0
aI0
aI0
asI2403
(lp2292
I0
aI0
aI0
asI2404
(lp2293
I0
aI0
aI0
asI2405
(lp2294
I0
aI0
aI0
asI2406
(lp2295
I0
aI0
aI0
asI2407
(lp2296
I0
aI0
aI0
asI2408
(lp2297
I1
aI0
aI0
asI2409
(lp2298
I0
aI0
aI0
asI2410
(lp2299
I0
aI0
aI0
asI2411
(lp2300
I0
aI0
aI0
asI2412
(lp2301
I0
aI0
aI0
asI2413
(lp2302
I0
aI0
aI0
asI2414
(lp2303
I0
aI0
aI0
asI2415
(lp2304
I0
aI0
aI0
asI2416
(lp2305
I0
aI0
aI0
asI2417
(lp2306
I1
aI0
aI0
asI2418
(lp2307
I1
aI1
aI0
asI2419
(lp2308
I0
aI0
aI0
asI2420
(lp2309
I0
aI0
aI0
asI2421
(lp2310
I1
aI0
aI0
asI2422
(lp2311
I1
aI0
aI0
asI2423
(lp2312
I0
aI0
aI0
asI2424
(lp2313
I1
aI0
aI0
asI2425
(lp2314
I0
aI0
aI0
asI2426
(lp2315
I0
aI0
aI0
asI2427
(lp2316
I0
aI0
aI0
asI2428
(lp2317
I0
aI0
aI0
asI2429
(lp2318
I1
aI0
aI0
asI2430
(lp2319
I0
aI0
aI0
asI2431
(lp2320
I0
aI0
aI0
asI2432
(lp2321
I0
aI0
aI0
asI2433
(lp2322
I1
aI0
aI0
asI2434
(lp2323
I1
aI0
aI1
asI2435
(lp2324
I0
aI1
aI0
asI2436
(lp2325
I1
aI1
aI2
asI2437
(lp2326
I0
aI0
aI0
asI2438
(lp2327
I1
aI0
aI0
asI2439
(lp2328
I1
aI0
aI0
asI2440
(lp2329
I0
aI0
aI0
asI2441
(lp2330
I0
aI1
aI0
asI2442
(lp2331
I1
aI0
aI0
asI2443
(lp2332
I0
aI0
aI0
asI2444
(lp2333
I1
aI0
aI1
asI2445
(lp2334
I0
aI1
aI0
asI2446
(lp2335
I0
aI1
aI0
asI2447
(lp2336
I1
aI0
aI0
asI2448
(lp2337
I0
aI0
aI0
asI2449
(lp2338
I0
aI1
aI0
asI2450
(lp2339
I1
aI0
aI0
asI2451
(lp2340
I1
aI0
aI0
asI2452
(lp2341
I0
aI0
aI0
asI2453
(lp2342
I0
aI1
aI0
asI2454
(lp2343
I0
aI1
aI0
asI2455
(lp2344
I0
aI0
aI0
asI2456
(lp2345
I0
aI0
aI2
asI2457
(lp2346
I0
aI0
aI0
asI2458
(lp2347
I0
aI0
aI0
asI2459
(lp2348
I0
aI1
aI0
asI2460
(lp2349
I0
aI0
aI0
asI2461
(lp2350
I0
aI0
aI0
asI2462
(lp2351
I0
aI1
aI0
asI2463
(lp2352
I1
aI0
aI0
asI2464
(lp2353
I0
aI0
aI0
asI-1
(lp2354
I0
aI0
aI172
as.