(dp0
I1
(lp1
I0
aI0
aI2
asI2
(lp2
I1
aI0
aI50
asI3
(lp3
I0
aI0
aI0
asI4
(lp4
I6
aI9
aI61
asI5
(lp5
I0
aI0
aI0
asI6
(lp6
I0
aI2
aI13
asI7
(lp7
I0
aI0
aI1
asI8
(lp8
I0
aI0
aI0
asI9
(lp9
I0
aI0
aI0
asI10
(lp10
I0
aI4
aI2
asI11
(lp11
I0
aI1
aI7
asI12
(lp12
I1
aI12
aI39
asI13
(lp13
I1
aI0
aI46
asI14
(lp14
I0
aI0
aI0
asI15
(lp15
I0
aI0
aI35
asI16
(lp16
I0
aI0
aI0
asI17
(lp17
I0
aI0
aI16
asI18
(lp18
I0
aI0
aI0
asI19
(lp19
I0
aI0
aI0
asI20
(lp20
I0
aI0
aI0
asI21
(lp21
I0
aI0
aI0
asI22
(lp22
I0
aI1
aI1
asI23
(lp23
I0
aI0
aI0
asI24
(lp24
I2
aI0
aI7
asI25
(lp25
I0
aI0
aI8
asI26
(lp26
I0
aI4
aI3
asI27
(lp27
I0
aI0
aI0
asI28
(lp28
I0
aI0
aI3
asI29
(lp29
I11
aI8
aI24
asI30
(lp30
I0
aI0
aI0
asI31
(lp31
I1
aI0
aI3
asI32
(lp32
I0
aI0
aI0
asI33
(lp33
I0
aI0
aI0
asI34
(lp34
I0
aI0
aI0
asI35
(lp35
I0
aI0
aI1
asI36
(lp36
I0
aI0
aI0
asI37
(lp37
I7
aI4
aI54
asI38
(lp38
I0
aI0
aI0
asI39
(lp39
I0
aI0
aI0
asI40
(lp40
I0
aI2
aI4
asI41
(lp41
I0
aI0
aI0
asI42
(lp42
I0
aI0
aI0
asI43
(lp43
I0
aI0
aI0
asI44
(lp44
I0
aI0
aI7
asI45
(lp45
I0
aI0
aI1
asI46
(lp46
I0
aI7
aI146
asI47
(lp47
I0
aI1
aI18
asI48
(lp48
I0
aI0
aI0
asI49
(lp49
I0
aI1
aI0
asI50
(lp50
I0
aI0
aI0
asI51
(lp51
I0
aI0
aI0
asI52
(lp52
I0
aI0
aI0
asI54
(lp53
I0
aI0
aI0
asI55
(lp54
I4
aI1
aI10
asI56
(lp55
I12
aI11
aI76
asI57
(lp56
I0
aI0
aI1
asI58
(lp57
I0
aI0
aI0
asI59
(lp58
I0
aI0
aI0
asI60
(lp59
I0
aI0
aI0
asI61
(lp60
I0
aI1
aI0
asI62
(lp61
I0
aI0
aI0
asI63
(lp62
I0
aI0
aI0
asI64
(lp63
I8
aI3
aI117
asI65
(lp64
I3
aI0
aI6
asI66
(lp65
I0
aI0
aI0
asI67
(lp66
I0
aI0
aI0
asI68
(lp67
I0
aI0
aI0
asI69
(lp68
I1
aI0
aI3
asI70
(lp69
I0
aI2
aI6
asI71
(lp70
I2
aI7
aI42
asI72
(lp71
I0
aI8
aI29
asI73
(lp72
I0
aI0
aI0
asI74
(lp73
I16
aI4
aI64
asI75
(lp74
I4
aI15
aI32
asI76
(lp75
I0
aI0
aI17
asI77
(lp76
I0
aI2
aI0
asI78
(lp77
I0
aI0
aI0
asI79
(lp78
I0
aI23
aI42
asI80
(lp79
I1
aI5
aI119
asI81
(lp80
I6
aI4
aI15
asI82
(lp81
I0
aI0
aI0
asI83
(lp82
I0
aI0
aI0
asI84
(lp83
I0
aI0
aI0
asI85
(lp84
I0
aI0
aI0
asI86
(lp85
I0
aI0
aI0
asI87
(lp86
I1
aI1
aI36
asI88
(lp87
I0
aI0
aI0
asI89
(lp88
I1
aI3
aI25
asI90
(lp89
I0
aI1
aI1
asI91
(lp90
I0
aI0
aI0
asI92
(lp91
I0
aI7
aI160
asI93
(lp92
I0
aI0
aI0
asI94
(lp93
I0
aI0
aI3
asI95
(lp94
I0
aI0
aI0
asI96
(lp95
I0
aI0
aI0
asI97
(lp96
I0
aI0
aI0
asI98
(lp97
I0
aI0
aI0
asI99
(lp98
I0
aI1
aI1
asI100
(lp99
I0
aI0
aI0
asI101
(lp100
I0
aI0
aI3
asI102
(lp101
I0
aI0
aI40
asI103
(lp102
I1
aI0
aI3
asI104
(lp103
I0
aI0
aI0
asI105
(lp104
I8
aI34
aI21
asI106
(lp105
I0
aI0
aI0
asI107
(lp106
I4
aI4
aI107
asI108
(lp107
I0
aI0
aI13
asI109
(lp108
I0
aI0
aI0
asI110
(lp109
I0
aI1
aI1
asI111
(lp110
I0
aI1
aI1
asI112
(lp111
I0
aI0
aI0
asI113
(lp112
I0
aI0
aI0
asI114
(lp113
I0
aI0
aI0
asI115
(lp114
I3
aI2
aI255
asI116
(lp115
I0
aI0
aI0
asI117
(lp116
I0
aI0
aI0
asI118
(lp117
I0
aI0
aI0
asI119
(lp118
I0
aI0
aI0
asI120
(lp119
I0
aI0
aI2
asI121
(lp120
I0
aI0
aI0
asI122
(lp121
I0
aI0
aI0
asI123
(lp122
I0
aI3
aI27
asI124
(lp123
I0
aI0
aI7
asI125
(lp124
I3
aI6
aI259
asI126
(lp125
I0
aI0
aI2
asI127
(lp126
I0
aI0
aI2
asI128
(lp127
I5
aI0
aI25
asI129
(lp128
I3
aI0
aI30
asI130
(lp129
I0
aI3
aI19
asI131
(lp130
I0
aI0
aI0
asI132
(lp131
I1
aI0
aI7
asI133
(lp132
I1
aI1
aI35
asI134
(lp133
I0
aI0
aI0
asI135
(lp134
I0
aI0
aI0
asI136
(lp135
I0
aI0
aI1
asI137
(lp136
I0
aI0
aI0
asI138
(lp137
I0
aI1
aI1
asI139
(lp138
I0
aI0
aI0
asI140
(lp139
I0
aI0
aI0
asI141
(lp140
I4
aI3
aI30
asI142
(lp141
I0
aI0
aI0
asI143
(lp142
I2
aI0
aI3
asI144
(lp143
I0
aI0
aI0
asI145
(lp144
I0
aI1
aI0
asI146
(lp145
I2
aI0
aI3
asI147
(lp146
I0
aI0
aI0
asI148
(lp147
I2
aI6
aI164
asI149
(lp148
I3
aI1
aI9
asI150
(lp149
I0
aI0
aI0
asI151
(lp150
I0
aI0
aI0
asI152
(lp151
I2
aI0
aI20
asI153
(lp152
I0
aI1
aI23
asI154
(lp153
I0
aI1
aI69
asI155
(lp154
I0
aI0
aI13
asI156
(lp155
I0
aI0
aI3
asI157
(lp156
I0
aI0
aI3
asI158
(lp157
I0
aI0
aI0
asI159
(lp158
I0
aI0
aI0
asI160
(lp159
I0
aI0
aI0
asI161
(lp160
I0
aI0
aI0
asI162
(lp161
I0
aI0
aI0
asI163
(lp162
I0
aI0
aI0
asI164
(lp163
I0
aI0
aI0
asI165
(lp164
I0
aI0
aI10
asI166
(lp165
I0
aI0
aI0
asI167
(lp166
I0
aI0
aI13
asI168
(lp167
I2
aI0
aI16
asI169
(lp168
I0
aI0
aI0
asI170
(lp169
I0
aI0
aI0
asI171
(lp170
I0
aI0
aI0
asI172
(lp171
I0
aI0
aI3
asI173
(lp172
I7
aI9
aI18
asI174
(lp173
I0
aI0
aI0
asI175
(lp174
I1
aI2
aI46
asI176
(lp175
I0
aI0
aI4
asI177
(lp176
I0
aI2
aI2
asI178
(lp177
I0
aI0
aI0
asI179
(lp178
I0
aI1
aI0
asI180
(lp179
I0
aI1
aI7
asI181
(lp180
I0
aI3
aI15
asI182
(lp181
I0
aI0
aI0
asI183
(lp182
I0
aI0
aI0
asI184
(lp183
I1
aI0
aI2
asI185
(lp184
I0
aI0
aI2
asI186
(lp185
I0
aI0
aI0
asI187
(lp186
I0
aI0
aI0
asI188
(lp187
I0
aI0
aI0
asI189
(lp188
I0
aI0
aI0
asI190
(lp189
I0
aI0
aI1
asI191
(lp190
I0
aI0
aI1
asI192
(lp191
I0
aI0
aI0
asI193
(lp192
I0
aI0
aI0
asI194
(lp193
I0
aI0
aI0
asI195
(lp194
I0
aI0
aI0
asI196
(lp195
I0
aI0
aI2
asI197
(lp196
I0
aI0
aI0
asI198
(lp197
I0
aI0
aI0
asI199
(lp198
I0
aI0
aI0
asI200
(lp199
I0
aI0
aI0
asI201
(lp200
I0
aI0
aI2
asI202
(lp201
I0
aI2
aI44
asI203
(lp202
I0
aI0
aI2
asI204
(lp203
I0
aI1
aI3
asI205
(lp204
I0
aI0
aI0
asI206
(lp205
I0
aI0
aI0
asI207
(lp206
I0
aI0
aI0
asI208
(lp207
I0
aI0
aI0
asI209
(lp208
I0
aI0
aI0
asI210
(lp209
I0
aI0
aI0
asI211
(lp210
I0
aI0
aI0
asI212
(lp211
I0
aI0
aI0
asI213
(lp212
I0
aI0
aI0
asI214
(lp213
I0
aI0
aI0
asI215
(lp214
I0
aI0
aI0
asI216
(lp215
I0
aI0
aI0
asI217
(lp216
I0
aI0
aI0
asI218
(lp217
I1
aI0
aI31
asI219
(lp218
I0
aI0
aI3
asI220
(lp219
I0
aI0
aI0
asI221
(lp220
I2
aI0
aI3
asI222
(lp221
I0
aI0
aI5
asI223
(lp222
I0
aI0
aI0
asI224
(lp223
I0
aI0
aI0
asI225
(lp224
I2
aI0
aI5
asI226
(lp225
I0
aI0
aI0
asI227
(lp226
I0
aI0
aI4
asI228
(lp227
I0
aI1
aI2
asI229
(lp228
I0
aI0
aI0
asI230
(lp229
I0
aI0
aI0
asI231
(lp230
I0
aI0
aI0
asI232
(lp231
I0
aI0
aI0
asI233
(lp232
I0
aI0
aI0
asI234
(lp233
I0
aI2
aI0
asI235
(lp234
I0
aI0
aI1
asI236
(lp235
I0
aI0
aI0
asI237
(lp236
I0
aI0
aI0
asI238
(lp237
I0
aI0
aI0
asI239
(lp238
I0
aI0
aI0
asI240
(lp239
I0
aI0
aI0
asI241
(lp240
I0
aI0
aI0
asI242
(lp241
I0
aI0
aI0
asI243
(lp242
I0
aI0
aI0
asI244
(lp243
I0
aI0
aI0
asI245
(lp244
I0
aI0
aI3
asI246
(lp245
I0
aI0
aI0
asI247
(lp246
I0
aI0
aI0
asI248
(lp247
I0
aI0
aI0
asI249
(lp248
I0
aI0
aI0
asI250
(lp249
I0
aI0
aI0
asI251
(lp250
I0
aI0
aI0
asI252
(lp251
I0
aI0
aI0
asI253
(lp252
I0
aI0
aI0
asI254
(lp253
I3
aI1
aI8
asI255
(lp254
I0
aI0
aI0
asI256
(lp255
I1
aI0
aI2
asI257
(lp256
I0
aI0
aI0
asI258
(lp257
I0
aI0
aI0
asI259
(lp258
I0
aI0
aI0
asI260
(lp259
I0
aI4
aI25
asI261
(lp260
I0
aI0
aI0
asI262
(lp261
I0
aI0
aI0
asI263
(lp262
I0
aI0
aI0
asI264
(lp263
I0
aI0
aI0
asI265
(lp264
I0
aI0
aI0
asI266
(lp265
I0
aI0
aI2
asI267
(lp266
I0
aI0
aI0
asI268
(lp267
I1
aI0
aI1
asI269
(lp268
I0
aI0
aI0
asI270
(lp269
I0
aI0
aI0
asI271
(lp270
I0
aI0
aI0
asI272
(lp271
I0
aI0
aI5
asI273
(lp272
I0
aI0
aI0
asI274
(lp273
I0
aI0
aI0
asI275
(lp274
I0
aI0
aI0
asI276
(lp275
I1
aI4
aI112
asI277
(lp276
I0
aI0
aI17
asI278
(lp277
I4
aI1
aI127
asI279
(lp278
I0
aI0
aI0
asI280
(lp279
I0
aI1
aI3
asI281
(lp280
I0
aI0
aI0
asI282
(lp281
I0
aI0
aI0
asI283
(lp282
I0
aI0
aI1
asI284
(lp283
I0
aI0
aI0
asI285
(lp284
I0
aI0
aI3
asI286
(lp285
I0
aI0
aI0
asI287
(lp286
I0
aI0
aI0
asI288
(lp287
I0
aI0
aI0
asI289
(lp288
I0
aI0
aI0
asI290
(lp289
I0
aI0
aI0
asI291
(lp290
I0
aI0
aI0
asI292
(lp291
I0
aI0
aI0
asI293
(lp292
I0
aI1
aI1
asI294
(lp293
I0
aI0
aI0
asI295
(lp294
I0
aI0
aI0
asI296
(lp295
I0
aI0
aI0
asI297
(lp296
I0
aI0
aI0
asI298
(lp297
I0
aI0
aI0
asI299
(lp298
I0
aI0
aI0
asI300
(lp299
I0
aI2
aI1
asI301
(lp300
I0
aI6
aI2
asI302
(lp301
I0
aI0
aI1
asI303
(lp302
I0
aI0
aI1
asI304
(lp303
I0
aI0
aI3
asI305
(lp304
I0
aI0
aI0
asI306
(lp305
I0
aI0
aI0
asI307
(lp306
I0
aI0
aI0
asI308
(lp307
I0
aI1
aI1
asI309
(lp308
I0
aI0
aI3
asI310
(lp309
I0
aI0
aI0
asI311
(lp310
I0
aI0
aI0
asI312
(lp311
I0
aI0
aI0
asI313
(lp312
I0
aI0
aI0
asI314
(lp313
I0
aI0
aI0
asI315
(lp314
I0
aI0
aI0
asI316
(lp315
I0
aI0
aI0
asI317
(lp316
I0
aI0
aI0
asI318
(lp317
I0
aI0
aI0
asI319
(lp318
I0
aI0
aI0
asI320
(lp319
I0
aI9
aI254
asI321
(lp320
I0
aI0
aI0
asI322
(lp321
I0
aI0
aI0
asI323
(lp322
I0
aI0
aI0
asI324
(lp323
I0
aI0
aI0
asI325
(lp324
I0
aI0
aI0
asI326
(lp325
I1
aI0
aI0
asI327
(lp326
I0
aI1
aI1
asI328
(lp327
I0
aI0
aI0
asI330
(lp328
I0
aI0
aI0
asI331
(lp329
I0
aI0
aI0
asI332
(lp330
I0
aI1
aI7
asI333
(lp331
I0
aI3
aI21
asI334
(lp332
I0
aI0
aI2
asI335
(lp333
I0
aI3
aI1
asI336
(lp334
I0
aI0
aI3
asI337
(lp335
I0
aI0
aI29
asI338
(lp336
I0
aI0
aI8
asI339
(lp337
I0
aI0
aI0
asI340
(lp338
I1
aI5
aI3
asI341
(lp339
I1
aI0
aI0
asI342
(lp340
I0
aI0
aI0
asI343
(lp341
I0
aI0
aI0
asI344
(lp342
I0
aI0
aI0
asI345
(lp343
I0
aI0
aI0
asI346
(lp344
I0
aI0
aI0
asI347
(lp345
I0
aI0
aI0
asI348
(lp346
I0
aI0
aI0
asI349
(lp347
I0
aI0
aI2
asI350
(lp348
I0
aI0
aI2
asI351
(lp349
I0
aI0
aI0
asI352
(lp350
I0
aI0
aI4
asI353
(lp351
I0
aI0
aI0
asI354
(lp352
I0
aI0
aI0
asI355
(lp353
I0
aI0
aI0
asI356
(lp354
I0
aI0
aI0
asI357
(lp355
I0
aI0
aI9
asI358
(lp356
I0
aI0
aI2
asI359
(lp357
I0
aI0
aI0
asI360
(lp358
I0
aI1
aI0
asI361
(lp359
I0
aI0
aI0
asI362
(lp360
I0
aI0
aI0
asI363
(lp361
I0
aI0
aI0
asI364
(lp362
I0
aI0
aI3
asI365
(lp363
I0
aI0
aI0
asI366
(lp364
I0
aI0
aI19
asI367
(lp365
I4
aI12
aI84
asI368
(lp366
I0
aI0
aI0
asI369
(lp367
I0
aI1
aI0
asI370
(lp368
I0
aI0
aI0
asI371
(lp369
I0
aI0
aI0
asI372
(lp370
I0
aI0
aI0
asI373
(lp371
I0
aI0
aI0
asI374
(lp372
I0
aI0
aI0
asI375
(lp373
I0
aI0
aI1
asI376
(lp374
I0
aI1
aI0
asI377
(lp375
I0
aI0
aI0
asI378
(lp376
I0
aI0
aI0
asI379
(lp377
I1
aI0
aI2
asI380
(lp378
I0
aI0
aI0
asI381
(lp379
I0
aI1
aI0
asI382
(lp380
I1
aI5
aI3
asI383
(lp381
I0
aI0
aI0
asI384
(lp382
I0
aI0
aI0
asI385
(lp383
I0
aI0
aI0
asI386
(lp384
I0
aI0
aI0
asI387
(lp385
I0
aI0
aI0
asI388
(lp386
I0
aI0
aI0
asI389
(lp387
I0
aI0
aI0
asI390
(lp388
I0
aI0
aI0
asI391
(lp389
I0
aI0
aI0
asI392
(lp390
I0
aI0
aI0
asI393
(lp391
I6
aI1
aI10
asI394
(lp392
I0
aI1
aI4
asI395
(lp393
I0
aI0
aI0
asI396
(lp394
I0
aI0
aI0
asI397
(lp395
I0
aI0
aI0
asI398
(lp396
I0
aI1
aI48
asI399
(lp397
I0
aI0
aI0
asI400
(lp398
I0
aI0
aI0
asI401
(lp399
I0
aI0
aI0
asI402
(lp400
I0
aI0
aI0
asI403
(lp401
I0
aI0
aI0
asI404
(lp402
I0
aI0
aI0
asI405
(lp403
I0
aI0
aI0
asI406
(lp404
I0
aI0
aI0
asI407
(lp405
I0
aI0
aI0
asI408
(lp406
I0
aI0
aI3
asI409
(lp407
I0
aI0
aI4
asI410
(lp408
I0
aI0
aI1
asI411
(lp409
I0
aI0
aI3
asI412
(lp410
I0
aI0
aI0
asI413
(lp411
I1
aI0
aI0
asI414
(lp412
I0
aI0
aI0
asI415
(lp413
I0
aI0
aI13
asI416
(lp414
I0
aI0
aI0
asI417
(lp415
I0
aI1
aI6
asI418
(lp416
I0
aI0
aI1
asI419
(lp417
I0
aI0
aI0
asI420
(lp418
I0
aI0
aI0
asI422
(lp419
I0
aI0
aI17
asI423
(lp420
I0
aI2
aI0
asI424
(lp421
I0
aI1
aI1
asI425
(lp422
I0
aI0
aI0
asI426
(lp423
I0
aI0
aI0
asI427
(lp424
I0
aI0
aI0
asI428
(lp425
I0
aI0
aI9
asI429
(lp426
I0
aI0
aI0
asI430
(lp427
I0
aI0
aI1
asI431
(lp428
I0
aI0
aI0
asI432
(lp429
I0
aI0
aI6
asI433
(lp430
I0
aI1
aI5
asI434
(lp431
I0
aI0
aI3
asI435
(lp432
I0
aI0
aI1
asI436
(lp433
I0
aI0
aI3
asI437
(lp434
I0
aI0
aI4
asI438
(lp435
I0
aI0
aI1
asI439
(lp436
I2
aI6
aI7
asI440
(lp437
I0
aI0
aI0
asI441
(lp438
I0
aI0
aI0
asI442
(lp439
I0
aI0
aI2
asI443
(lp440
I0
aI0
aI0
asI444
(lp441
I0
aI0
aI1
asI445
(lp442
I0
aI0
aI33
asI446
(lp443
I0
aI1
aI0
asI447
(lp444
I0
aI0
aI1
asI448
(lp445
I1
aI0
aI3
asI449
(lp446
I0
aI0
aI0
asI450
(lp447
I0
aI0
aI0
asI451
(lp448
I0
aI1
aI0
asI452
(lp449
I0
aI1
aI0
asI453
(lp450
I0
aI0
aI1
asI454
(lp451
I0
aI1
aI3
asI455
(lp452
I0
aI0
aI0
asI456
(lp453
I0
aI0
aI0
asI457
(lp454
I0
aI0
aI4
asI458
(lp455
I0
aI0
aI3
asI459
(lp456
I0
aI0
aI0
asI460
(lp457
I0
aI0
aI0
asI461
(lp458
I0
aI0
aI0
asI462
(lp459
I4
aI3
aI22
asI463
(lp460
I0
aI0
aI0
asI464
(lp461
I0
aI0
aI0
asI465
(lp462
I0
aI0
aI0
asI466
(lp463
I0
aI0
aI4
asI467
(lp464
I0
aI0
aI2
asI468
(lp465
I0
aI0
aI0
asI469
(lp466
I0
aI0
aI1
asI470
(lp467
I0
aI0
aI0
asI471
(lp468
I0
aI0
aI0
asI472
(lp469
I0
aI0
aI0
asI473
(lp470
I0
aI0
aI0
asI474
(lp471
I0
aI0
aI0
asI475
(lp472
I0
aI0
aI0
asI476
(lp473
I0
aI0
aI0
asI477
(lp474
I0
aI0
aI1
asI478
(lp475
I0
aI0
aI0
asI479
(lp476
I0
aI0
aI0
asI480
(lp477
I0
aI0
aI0
asI481
(lp478
I0
aI0
aI15
asI482
(lp479
I0
aI0
aI0
asI483
(lp480
I0
aI0
aI0
asI484
(lp481
I0
aI0
aI1
asI485
(lp482
I0
aI1
aI0
asI486
(lp483
I0
aI0
aI0
asI487
(lp484
I0
aI0
aI2
asI488
(lp485
I0
aI0
aI0
asI489
(lp486
I0
aI0
aI10
asI490
(lp487
I0
aI0
aI0
asI491
(lp488
I0
aI0
aI0
asI492
(lp489
I0
aI0
aI0
asI493
(lp490
I0
aI0
aI16
asI494
(lp491
I0
aI1
aI0
asI495
(lp492
I0
aI1
aI0
asI496
(lp493
I0
aI0
aI1
asI497
(lp494
I0
aI0
aI1
asI498
(lp495
I0
aI0
aI2
asI499
(lp496
I0
aI1
aI6
asI500
(lp497
I0
aI0
aI2
asI501
(lp498
I0
aI0
aI1
asI502
(lp499
I0
aI0
aI0
asI503
(lp500
I0
aI0
aI0
asI504
(lp501
I0
aI0
aI1
asI505
(lp502
I0
aI0
aI0
asI506
(lp503
I0
aI0
aI1
asI507
(lp504
I0
aI1
aI0
asI508
(lp505
I0
aI0
aI21
asI509
(lp506
I0
aI0
aI5
asI510
(lp507
I0
aI0
aI0
asI511
(lp508
I0
aI0
aI0
asI512
(lp509
I0
aI0
aI0
asI513
(lp510
I0
aI0
aI0
asI514
(lp511
I0
aI0
aI0
asI515
(lp512
I0
aI0
aI1
asI516
(lp513
I1
aI0
aI3
asI517
(lp514
I1
aI0
aI4
asI518
(lp515
I0
aI0
aI0
asI519
(lp516
I0
aI0
aI7
asI520
(lp517
I0
aI1
aI7
asI521
(lp518
I0
aI0
aI12
asI522
(lp519
I0
aI0
aI0
asI523
(lp520
I0
aI0
aI1
asI524
(lp521
I0
aI0
aI0
asI525
(lp522
I0
aI1
aI0
asI526
(lp523
I0
aI0
aI0
asI527
(lp524
I0
aI0
aI2
asI528
(lp525
I0
aI0
aI3
asI529
(lp526
I0
aI0
aI4
asI530
(lp527
I0
aI0
aI4
asI531
(lp528
I0
aI0
aI2
asI532
(lp529
I0
aI0
aI34
asI533
(lp530
I0
aI0
aI3
asI534
(lp531
I0
aI0
aI12
asI535
(lp532
I0
aI0
aI1
asI536
(lp533
I0
aI0
aI3
asI537
(lp534
I0
aI0
aI1
asI538
(lp535
I0
aI0
aI1
asI539
(lp536
I3
aI4
aI23
asI540
(lp537
I0
aI0
aI0
asI541
(lp538
I0
aI0
aI1
asI542
(lp539
I0
aI0
aI9
asI543
(lp540
I0
aI0
aI2
asI544
(lp541
I0
aI0
aI1
asI545
(lp542
I0
aI0
aI0
asI546
(lp543
I0
aI0
aI0
asI547
(lp544
I0
aI3
aI3
asI548
(lp545
I0
aI1
aI0
asI549
(lp546
I0
aI0
aI0
asI550
(lp547
I0
aI1
aI0
asI551
(lp548
I0
aI0
aI0
asI552
(lp549
I0
aI0
aI1
asI553
(lp550
I0
aI2
aI0
asI554
(lp551
I0
aI0
aI0
asI555
(lp552
I0
aI0
aI1
asI556
(lp553
I0
aI0
aI2
asI557
(lp554
I0
aI0
aI0
asI558
(lp555
I0
aI0
aI4
asI559
(lp556
I0
aI0
aI0
asI560
(lp557
I0
aI0
aI0
asI561
(lp558
I0
aI0
aI0
asI562
(lp559
I0
aI0
aI2
asI563
(lp560
I1
aI0
aI12
asI564
(lp561
I0
aI0
aI1
asI565
(lp562
I0
aI0
aI2
asI566
(lp563
I0
aI0
aI6
asI567
(lp564
I0
aI0
aI0
asI568
(lp565
I0
aI0
aI0
asI569
(lp566
I0
aI0
aI0
asI570
(lp567
I0
aI0
aI2
asI571
(lp568
I0
aI0
aI5
asI572
(lp569
I0
aI0
aI2
asI573
(lp570
I0
aI0
aI2
asI574
(lp571
I0
aI0
aI0
asI575
(lp572
I0
aI0
aI0
asI576
(lp573
I0
aI0
aI0
asI577
(lp574
I0
aI0
aI1
asI578
(lp575
I0
aI0
aI0
asI579
(lp576
I0
aI0
aI3
asI580
(lp577
I0
aI0
aI0
asI581
(lp578
I0
aI0
aI2
asI582
(lp579
I0
aI0
aI7
asI583
(lp580
I0
aI0
aI0
asI584
(lp581
I0
aI0
aI2
asI585
(lp582
I0
aI1
aI1
asI586
(lp583
I0
aI0
aI0
asI587
(lp584
I0
aI0
aI0
asI588
(lp585
I0
aI0
aI0
asI589
(lp586
I0
aI0
aI6
asI590
(lp587
I0
aI0
aI0
asI591
(lp588
I0
aI0
aI0
asI592
(lp589
I0
aI0
aI0
asI593
(lp590
I0
aI0
aI4
asI594
(lp591
I0
aI0
aI0
asI595
(lp592
I0
aI0
aI0
asI596
(lp593
I0
aI0
aI6
asI597
(lp594
I0
aI0
aI0
asI598
(lp595
I0
aI0
aI3
asI599
(lp596
I0
aI0
aI9
asI600
(lp597
I0
aI0
aI0
asI601
(lp598
I0
aI0
aI20
asI602
(lp599
I0
aI0
aI0
asI603
(lp600
I0
aI0
aI3
asI604
(lp601
I0
aI0
aI0
asI605
(lp602
I0
aI0
aI0
asI606
(lp603
I0
aI0
aI0
asI607
(lp604
I0
aI0
aI5
asI608
(lp605
I0
aI0
aI3
asI609
(lp606
I0
aI0
aI2
asI610
(lp607
I0
aI0
aI0
asI611
(lp608
I1
aI1
aI2
asI612
(lp609
I0
aI0
aI0
asI613
(lp610
I0
aI0
aI3
asI614
(lp611
I0
aI0
aI2
asI615
(lp612
I0
aI0
aI6
asI616
(lp613
I1
aI0
aI6
asI617
(lp614
I0
aI0
aI0
asI618
(lp615
I0
aI0
aI1
asI619
(lp616
I0
aI0
aI0
asI620
(lp617
I0
aI0
aI0
asI621
(lp618
I11
aI6
aI241
asI622
(lp619
I0
aI0
aI1
asI623
(lp620
I0
aI0
aI10
asI624
(lp621
I0
aI0
aI2
asI625
(lp622
I0
aI0
aI1
asI626
(lp623
I0
aI0
aI0
asI627
(lp624
I0
aI1
aI0
asI628
(lp625
I0
aI1
aI0
asI629
(lp626
I0
aI0
aI11
asI630
(lp627
I0
aI0
aI1
asI631
(lp628
I0
aI0
aI4
asI632
(lp629
I0
aI1
aI1
asI633
(lp630
I0
aI0
aI0
asI634
(lp631
I0
aI0
aI0
asI635
(lp632
I0
aI0
aI1
asI636
(lp633
I0
aI0
aI0
asI637
(lp634
I0
aI3
aI1
asI638
(lp635
I0
aI0
aI0
asI639
(lp636
I0
aI0
aI1
asI640
(lp637
I0
aI0
aI2
asI641
(lp638
I0
aI0
aI1
asI642
(lp639
I0
aI0
aI0
asI643
(lp640
I0
aI0
aI0
asI644
(lp641
I1
aI0
aI1
asI645
(lp642
I0
aI0
aI1
asI646
(lp643
I0
aI0
aI1
asI647
(lp644
I0
aI0
aI2
asI648
(lp645
I0
aI0
aI0
asI649
(lp646
I0
aI0
aI2
asI650
(lp647
I0
aI0
aI1
asI651
(lp648
I0
aI1
aI0
asI652
(lp649
I0
aI0
aI9
asI653
(lp650
I0
aI0
aI2
asI654
(lp651
I0
aI0
aI0
asI655
(lp652
I0
aI0
aI0
asI656
(lp653
I0
aI0
aI0
asI657
(lp654
I0
aI0
aI0
asI658
(lp655
I0
aI0
aI11
asI659
(lp656
I0
aI0
aI0
asI660
(lp657
I0
aI0
aI0
asI661
(lp658
I0
aI0
aI2
asI662
(lp659
I0
aI0
aI1
asI663
(lp660
I0
aI0
aI0
asI664
(lp661
I0
aI0
aI0
asI665
(lp662
I0
aI0
aI1
asI666
(lp663
I0
aI0
aI0
asI667
(lp664
I0
aI0
aI2
asI668
(lp665
I0
aI0
aI0
asI669
(lp666
I0
aI0
aI1
asI670
(lp667
I0
aI0
aI0
asI671
(lp668
I0
aI0
aI5
asI672
(lp669
I0
aI0
aI1
asI673
(lp670
I0
aI0
aI0
asI674
(lp671
I0
aI0
aI6
asI675
(lp672
I0
aI0
aI0
asI676
(lp673
I0
aI0
aI3
asI677
(lp674
I0
aI0
aI4
asI678
(lp675
I0
aI0
aI0
asI679
(lp676
I0
aI0
aI0
asI680
(lp677
I0
aI1
aI0
asI681
(lp678
I0
aI0
aI0
asI682
(lp679
I0
aI0
aI1
asI683
(lp680
I0
aI0
aI0
asI684
(lp681
I0
aI0
aI0
asI685
(lp682
I0
aI0
aI0
asI686
(lp683
I0
aI0
aI0
asI687
(lp684
I0
aI0
aI0
asI688
(lp685
I0
aI0
aI0
asI689
(lp686
I0
aI0
aI1
asI690
(lp687
I0
aI0
aI1
asI691
(lp688
I0
aI0
aI0
asI692
(lp689
I0
aI0
aI0
asI693
(lp690
I0
aI0
aI0
asI694
(lp691
I0
aI1
aI0
asI695
(lp692
I0
aI0
aI0
asI696
(lp693
I0
aI0
aI0
asI697
(lp694
I0
aI0
aI0
asI698
(lp695
I0
aI1
aI0
asI699
(lp696
I0
aI0
aI0
asI700
(lp697
I0
aI0
aI0
asI701
(lp698
I0
aI0
aI0
asI702
(lp699
I1
aI0
aI0
asI703
(lp700
I0
aI0
aI1
asI704
(lp701
I0
aI0
aI2
asI705
(lp702
I0
aI0
aI0
asI706
(lp703
I0
aI0
aI1
asI707
(lp704
I0
aI0
aI2
asI708
(lp705
I0
aI0
aI0
asI709
(lp706
I0
aI0
aI0
asI710
(lp707
I0
aI0
aI0
asI711
(lp708
I0
aI0
aI0
asI712
(lp709
I0
aI2
aI9
asI713
(lp710
I0
aI0
aI1
asI714
(lp711
I0
aI0
aI1
asI715
(lp712
I0
aI0
aI0
asI716
(lp713
I0
aI0
aI0
asI717
(lp714
I0
aI0
aI0
asI718
(lp715
I0
aI0
aI0
asI719
(lp716
I0
aI0
aI1
asI720
(lp717
I0
aI0
aI0
asI721
(lp718
I0
aI0
aI0
asI722
(lp719
I0
aI0
aI1
asI723
(lp720
I0
aI1
aI0
asI724
(lp721
I0
aI0
aI0
asI725
(lp722
I0
aI0
aI0
asI726
(lp723
I0
aI0
aI0
asI727
(lp724
I0
aI0
aI1
asI728
(lp725
I0
aI0
aI0
asI729
(lp726
I0
aI0
aI7
asI730
(lp727
I0
aI1
aI0
asI731
(lp728
I0
aI0
aI3
asI732
(lp729
I0
aI0
aI0
asI733
(lp730
I0
aI0
aI0
asI734
(lp731
I0
aI0
aI1
asI735
(lp732
I0
aI0
aI0
asI736
(lp733
I0
aI0
aI0
asI737
(lp734
I0
aI0
aI0
asI738
(lp735
I0
aI0
aI0
asI739
(lp736
I0
aI0
aI0
asI740
(lp737
I0
aI0
aI2
asI741
(lp738
I0
aI0
aI0
asI742
(lp739
I0
aI0
aI0
asI743
(lp740
I0
aI0
aI0
asI744
(lp741
I0
aI0
aI0
asI745
(lp742
I0
aI0
aI0
asI746
(lp743
I0
aI0
aI1
asI747
(lp744
I0
aI0
aI0
asI748
(lp745
I0
aI0
aI0
asI749
(lp746
I0
aI0
aI0
asI750
(lp747
I0
aI0
aI2
asI751
(lp748
I0
aI0
aI2
asI752
(lp749
I0
aI0
aI0
asI753
(lp750
I0
aI0
aI0
asI754
(lp751
I0
aI0
aI0
asI755
(lp752
I0
aI0
aI0
asI756
(lp753
I0
aI0
aI0
asI757
(lp754
I0
aI0
aI0
asI758
(lp755
I0
aI0
aI0
asI759
(lp756
I0
aI0
aI0
asI760
(lp757
I0
aI0
aI0
asI761
(lp758
I0
aI0
aI0
asI762
(lp759
I2
aI1
aI0
asI763
(lp760
I0
aI0
aI5
asI764
(lp761
I0
aI0
aI0
asI765
(lp762
I0
aI0
aI0
asI766
(lp763
I0
aI0
aI0
asI767
(lp764
I0
aI0
aI0
asI768
(lp765
I0
aI0
aI2
asI769
(lp766
I0
aI0
aI2
asI770
(lp767
I0
aI0
aI0
asI771
(lp768
I0
aI0
aI0
asI772
(lp769
I0
aI0
aI0
asI773
(lp770
I0
aI0
aI0
asI774
(lp771
I0
aI0
aI4
asI775
(lp772
I0
aI0
aI0
asI776
(lp773
I0
aI0
aI5
asI777
(lp774
I0
aI0
aI1
asI778
(lp775
I0
aI1
aI1
asI779
(lp776
I0
aI0
aI0
asI780
(lp777
I0
aI2
aI5
asI782
(lp778
I0
aI0
aI0
asI783
(lp779
I0
aI0
aI30
asI784
(lp780
I0
aI0
aI2
asI785
(lp781
I0
aI0
aI0
asI786
(lp782
I0
aI0
aI0
asI787
(lp783
I0
aI0
aI0
asI788
(lp784
I0
aI0
aI1
asI789
(lp785
I0
aI1
aI0
asI790
(lp786
I0
aI0
aI0
asI791
(lp787
I0
aI0
aI1
asI792
(lp788
I0
aI0
aI0
asI793
(lp789
I0
aI0
aI1
asI794
(lp790
I0
aI0
aI3
asI795
(lp791
I0
aI0
aI1
asI796
(lp792
I0
aI0
aI0
asI797
(lp793
I0
aI0
aI1
asI798
(lp794
I0
aI0
aI0
asI799
(lp795
I0
aI0
aI6
asI800
(lp796
I0
aI0
aI4
asI801
(lp797
I0
aI1
aI0
asI802
(lp798
I0
aI0
aI0
asI803
(lp799
I0
aI0
aI0
asI804
(lp800
I0
aI0
aI0
asI805
(lp801
I0
aI1
aI0
asI806
(lp802
I0
aI0
aI4
asI807
(lp803
I0
aI0
aI1
asI808
(lp804
I0
aI3
aI0
asI809
(lp805
I0
aI0
aI0
asI810
(lp806
I0
aI0
aI3
asI811
(lp807
I0
aI0
aI1
asI812
(lp808
I0
aI0
aI2
asI813
(lp809
I0
aI0
aI0
asI814
(lp810
I0
aI0
aI2
asI815
(lp811
I0
aI0
aI0
asI816
(lp812
I0
aI0
aI2
asI817
(lp813
I0
aI0
aI0
asI818
(lp814
I0
aI0
aI2
asI819
(lp815
I0
aI0
aI0
asI820
(lp816
I0
aI0
aI0
asI821
(lp817
I0
aI0
aI1
asI822
(lp818
I0
aI0
aI2
asI823
(lp819
I0
aI0
aI3
asI824
(lp820
I0
aI0
aI5
asI825
(lp821
I0
aI0
aI0
asI826
(lp822
I0
aI0
aI0
asI827
(lp823
I0
aI0
aI6
asI828
(lp824
I0
aI0
aI0
asI829
(lp825
I0
aI0
aI0
asI830
(lp826
I0
aI0
aI1
asI831
(lp827
I0
aI0
aI2
asI832
(lp828
I1
aI0
aI2
asI833
(lp829
I0
aI0
aI2
asI834
(lp830
I0
aI0
aI3
asI835
(lp831
I0
aI0
aI0
asI836
(lp832
I0
aI0
aI1
asI837
(lp833
I0
aI0
aI9
asI838
(lp834
I0
aI0
aI0
asI839
(lp835
I0
aI0
aI0
asI840
(lp836
I0
aI0
aI0
asI841
(lp837
I0
aI0
aI5
asI842
(lp838
I0
aI0
aI1
asI843
(lp839
I0
aI1
aI3
asI844
(lp840
I0
aI0
aI1
asI845
(lp841
I0
aI0
aI2
asI846
(lp842
I0
aI0
aI0
asI847
(lp843
I0
aI0
aI9
asI848
(lp844
I0
aI0
aI0
asI849
(lp845
I0
aI0
aI0
asI850
(lp846
I0
aI0
aI0
asI851
(lp847
I0
aI0
aI2
asI852
(lp848
I0
aI0
aI2
asI853
(lp849
I0
aI0
aI0
asI854
(lp850
I0
aI1
aI0
asI855
(lp851
I0
aI1
aI0
asI856
(lp852
I0
aI0
aI0
asI857
(lp853
I2
aI1
aI1
asI858
(lp854
I0
aI0
aI1
asI859
(lp855
I0
aI0
aI1
asI860
(lp856
I0
aI0
aI0
asI861
(lp857
I0
aI0
aI5
asI862
(lp858
I0
aI0
aI0
asI863
(lp859
I0
aI0
aI2
asI864
(lp860
I0
aI0
aI0
asI865
(lp861
I0
aI0
aI0
asI1864
(lp862
I0
aI0
aI0
asI1865
(lp863
I0
aI0
aI0
asI1866
(lp864
I0
aI0
aI0
asI1867
(lp865
I0
aI1
aI6
asI1868
(lp866
I0
aI0
aI0
asI1869
(lp867
I0
aI0
aI0
asI1870
(lp868
I0
aI0
aI2
asI1871
(lp869
I0
aI0
aI0
asI1872
(lp870
I1
aI0
aI1
asI1873
(lp871
I0
aI0
aI0
asI1874
(lp872
I0
aI0
aI1
asI1875
(lp873
I1
aI0
aI3
asI1876
(lp874
I0
aI1
aI0
asI1877
(lp875
I0
aI0
aI0
asI1878
(lp876
I0
aI0
aI0
asI1879
(lp877
I0
aI0
aI0
asI1880
(lp878
I5
aI2
aI27
asI1881
(lp879
I0
aI0
aI0
asI1882
(lp880
I0
aI0
aI2
asI1883
(lp881
I0
aI0
aI1
asI1884
(lp882
I0
aI0
aI0
asI1885
(lp883
I0
aI0
aI2
asI1886
(lp884
I0
aI0
aI0
asI1887
(lp885
I0
aI0
aI0
asI1888
(lp886
I0
aI0
aI0
asI1889
(lp887
I0
aI0
aI0
asI1890
(lp888
I0
aI0
aI2
asI1891
(lp889
I0
aI0
aI0
asI1892
(lp890
I0
aI1
aI0
asI1893
(lp891
I1
aI0
aI0
asI1894
(lp892
I0
aI0
aI3
asI1895
(lp893
I0
aI0
aI0
asI1896
(lp894
I0
aI0
aI0
asI1897
(lp895
I0
aI0
aI0
asI1898
(lp896
I0
aI0
aI0
asI1899
(lp897
I0
aI0
aI2
asI1900
(lp898
I0
aI0
aI2
asI1901
(lp899
I0
aI0
aI0
asI1902
(lp900
I0
aI0
aI1
asI1903
(lp901
I0
aI1
aI0
asI1904
(lp902
I0
aI0
aI0
asI1905
(lp903
I0
aI0
aI0
asI1906
(lp904
I0
aI0
aI3
asI1907
(lp905
I0
aI0
aI2
asI1908
(lp906
I0
aI0
aI1
asI1909
(lp907
I0
aI0
aI0
asI1910
(lp908
I0
aI0
aI0
asI1911
(lp909
I0
aI0
aI0
asI1912
(lp910
I0
aI3
aI0
asI1913
(lp911
I0
aI0
aI1
asI1914
(lp912
I0
aI0
aI3
asI1915
(lp913
I0
aI0
aI1
asI1916
(lp914
I0
aI0
aI0
asI1917
(lp915
I0
aI0
aI0
asI1918
(lp916
I0
aI0
aI0
asI1919
(lp917
I0
aI0
aI1
asI1920
(lp918
I0
aI0
aI4
asI1921
(lp919
I0
aI0
aI0
asI1922
(lp920
I0
aI0
aI0
asI1923
(lp921
I0
aI1
aI0
asI1924
(lp922
I0
aI0
aI0
asI1925
(lp923
I0
aI0
aI2
asI1926
(lp924
I0
aI0
aI0
asI1927
(lp925
I0
aI0
aI1
asI1928
(lp926
I0
aI0
aI0
asI1929
(lp927
I0
aI0
aI1
asI1930
(lp928
I0
aI0
aI0
asI1931
(lp929
I0
aI0
aI0
asI1932
(lp930
I0
aI0
aI0
asI1933
(lp931
I0
aI4
aI0
asI1934
(lp932
I0
aI0
aI2
asI1935
(lp933
I0
aI0
aI5
asI1936
(lp934
I0
aI0
aI0
asI1937
(lp935
I1
aI0
aI0
asI1938
(lp936
I0
aI0
aI0
asI1939
(lp937
I2
aI0
aI29
asI1940
(lp938
I0
aI0
aI0
asI1941
(lp939
I0
aI0
aI0
asI1942
(lp940
I0
aI0
aI1
asI1943
(lp941
I0
aI0
aI0
asI1944
(lp942
I0
aI0
aI3
asI1945
(lp943
I0
aI0
aI0
asI1946
(lp944
I0
aI0
aI0
asI1947
(lp945
I0
aI0
aI1
asI1948
(lp946
I0
aI0
aI0
asI1949
(lp947
I0
aI0
aI0
asI1950
(lp948
I0
aI0
aI3
asI1951
(lp949
I0
aI1
aI0
asI1952
(lp950
I0
aI0
aI0
asI1953
(lp951
I0
aI0
aI0
asI1954
(lp952
I0
aI0
aI0
asI1955
(lp953
I0
aI1
aI0
asI1956
(lp954
I0
aI0
aI0
asI1957
(lp955
I0
aI1
aI0
asI1958
(lp956
I0
aI0
aI0
asI1959
(lp957
I0
aI0
aI0
asI1960
(lp958
I0
aI0
aI2
asI1961
(lp959
I0
aI0
aI1
asI1962
(lp960
I0
aI0
aI0
asI1963
(lp961
I0
aI0
aI0
asI1964
(lp962
I0
aI0
aI0
asI1965
(lp963
I0
aI1
aI0
asI1966
(lp964
I0
aI0
aI0
asI1967
(lp965
I0
aI0
aI0
asI1968
(lp966
I0
aI0
aI4
asI1969
(lp967
I0
aI2
aI0
asI1970
(lp968
I0
aI0
aI1
asI1971
(lp969
I0
aI0
aI0
asI1972
(lp970
I0
aI0
aI0
asI1973
(lp971
I0
aI0
aI0
asI1974
(lp972
I0
aI0
aI6
asI1975
(lp973
I0
aI0
aI2
asI1976
(lp974
I0
aI1
aI0
asI1977
(lp975
I1
aI0
aI0
asI1978
(lp976
I0
aI0
aI0
asI1979
(lp977
I0
aI1
aI0
asI1980
(lp978
I0
aI0
aI1
asI1981
(lp979
I0
aI0
aI0
asI1982
(lp980
I0
aI0
aI1
asI1983
(lp981
I0
aI0
aI0
asI1984
(lp982
I0
aI0
aI0
asI1985
(lp983
I0
aI0
aI0
asI1986
(lp984
I0
aI0
aI0
asI-1
(lp985
I0
aI0
aI3
as.