(dp0
I0
(lp1
I9
aI1
aI0
asI1
(lp2
I0
aI0
aI0
asI2
(lp3
I5
aI5
aI38
asI3
(lp4
I0
aI0
aI0
asI4
(lp5
I0
aI0
aI0
asI5
(lp6
I1
aI1
aI123
asI6
(lp7
I0
aI0
aI3
asI7
(lp8
I0
aI0
aI2
asI8
(lp9
I5
aI11
aI436
asI9
(lp10
I2
aI1
aI20
asI10
(lp11
I0
aI0
aI0
asI11
(lp12
I2
aI0
aI35
asI12
(lp13
I2
aI0
aI16
asI13
(lp14
I3
aI14
aI268
asI14
(lp15
I1
aI2
aI7
asI15
(lp16
I0
aI49
aI104
asI16
(lp17
I0
aI1
aI14
asI17
(lp18
I2
aI0
aI11
asI18
(lp19
I1
aI2
aI7
asI19
(lp20
I0
aI8
aI19
asI20
(lp21
I0
aI10
aI119
asI21
(lp22
I6
aI57
aI207
asI22
(lp23
I0
aI0
aI2
asI23
(lp24
I0
aI0
aI0
asI24
(lp25
I14
aI19
aI513
asI25
(lp26
I6
aI0
aI20
asI26
(lp27
I0
aI0
aI2
asI27
(lp28
I0
aI2
aI4
asI28
(lp29
I7
aI0
aI188
asI29
(lp30
I1
aI0
aI4
asI30
(lp31
I1
aI0
aI3
asI31
(lp32
I0
aI9
aI63
asI32
(lp33
I0
aI0
aI0
asI33
(lp34
I0
aI0
aI0
asI34
(lp35
I0
aI0
aI0
asI35
(lp36
I0
aI0
aI0
asI36
(lp37
I0
aI0
aI0
asI37
(lp38
I0
aI3
aI3
asI38
(lp39
I0
aI0
aI2
asI39
(lp40
I0
aI0
aI1
asI40
(lp41
I3
aI0
aI9
asI41
(lp42
I0
aI1
aI0
asI42
(lp43
I0
aI0
aI3
asI43
(lp44
I0
aI0
aI0
asI44
(lp45
I1
aI6
aI29
asI45
(lp46
I0
aI0
aI21
asI46
(lp47
I0
aI12
aI19
asI47
(lp48
I0
aI0
aI1
asI48
(lp49
I0
aI0
aI4
asI49
(lp50
I0
aI0
aI0
asI50
(lp51
I0
aI1
aI9
asI51
(lp52
I38
aI221
aI1013
asI52
(lp53
I0
aI0
aI13
asI53
(lp54
I12
aI3
aI39
asI54
(lp55
I1
aI256
aI297
asI55
(lp56
I0
aI0
aI0
asI56
(lp57
I0
aI0
aI0
asI57
(lp58
I0
aI0
aI3
asI58
(lp59
I0
aI1
aI5
asI59
(lp60
I0
aI4
aI20
asI60
(lp61
I0
aI0
aI6
asI61
(lp62
I0
aI0
aI0
asI62
(lp63
I0
aI0
aI2
asI63
(lp64
I0
aI0
aI0
asI64
(lp65
I2
aI40
aI99
asI65
(lp66
I2
aI0
aI11
asI66
(lp67
I0
aI1
aI7
asI67
(lp68
I4
aI7
aI2222
asI68
(lp69
I0
aI0
aI0
asI69
(lp70
I17
aI2
aI49
asI70
(lp71
I0
aI0
aI0
asI71
(lp72
I0
aI135
aI9
asI72
(lp73
I6
aI30
aI51
asI73
(lp74
I0
aI2
aI23
asI74
(lp75
I0
aI27
aI28
asI75
(lp76
I0
aI0
aI0
asI76
(lp77
I0
aI0
aI6
asI77
(lp78
I1
aI0
aI5
asI78
(lp79
I0
aI1
aI4
asI79
(lp80
I3
aI0
aI10
asI80
(lp81
I0
aI0
aI0
asI81
(lp82
I0
aI4
aI5
asI82
(lp83
I2
aI4
aI63
asI83
(lp84
I1
aI0
aI17
asI84
(lp85
I0
aI0
aI0
asI85
(lp86
I0
aI0
aI0
asI86
(lp87
I1
aI1
aI18
asI87
(lp88
I0
aI0
aI0
asI88
(lp89
I12
aI44
aI37
asI89
(lp90
I3
aI2
aI19
asI90
(lp91
I0
aI0
aI4
asI91
(lp92
I14
aI3
aI145
asI92
(lp93
I2
aI0
aI12
asI93
(lp94
I0
aI14
aI31
asI94
(lp95
I0
aI0
aI0
asI95
(lp96
I0
aI0
aI3
asI96
(lp97
I0
aI0
aI0
asI97
(lp98
I0
aI0
aI1
asI98
(lp99
I0
aI0
aI6
asI99
(lp100
I0
aI0
aI0
asI101
(lp101
I1
aI0
aI9
asI102
(lp102
I0
aI0
aI0
asI103
(lp103
I0
aI0
aI0
asI104
(lp104
I0
aI0
aI2
asI105
(lp105
I0
aI0
aI0
asI106
(lp106
I1
aI0
aI400
asI107
(lp107
I0
aI0
aI3
asI108
(lp108
I0
aI0
aI3
asI109
(lp109
I0
aI2
aI5
asI110
(lp110
I0
aI0
aI0
asI111
(lp111
I0
aI0
aI6
asI112
(lp112
I0
aI0
aI2
asI113
(lp113
I0
aI0
aI1
asI114
(lp114
I2
aI0
aI10
asI115
(lp115
I0
aI0
aI0
asI116
(lp116
I0
aI0
aI0
asI117
(lp117
I3
aI2
aI14
asI118
(lp118
I0
aI0
aI0
asI119
(lp119
I0
aI0
aI2
asI120
(lp120
I0
aI0
aI0
asI121
(lp121
I0
aI0
aI0
asI122
(lp122
I0
aI0
aI1
asI123
(lp123
I0
aI0
aI10
asI124
(lp124
I3
aI1
aI3
asI125
(lp125
I0
aI0
aI2
asI126
(lp126
I2
aI5
aI58
asI127
(lp127
I0
aI1
aI13
asI128
(lp128
I0
aI0
aI3
asI129
(lp129
I2
aI0
aI15
asI130
(lp130
I6
aI12
aI229
asI131
(lp131
I3
aI0
aI20
asI132
(lp132
I1
aI7
aI6
asI133
(lp133
I1
aI5
aI11
asI134
(lp134
I5
aI0
aI31
asI135
(lp135
I1
aI11
aI106
asI136
(lp136
I0
aI0
aI0
asI137
(lp137
I1
aI0
aI2
asI138
(lp138
I0
aI1
aI2
asI140
(lp139
I0
aI0
aI6
asI141
(lp140
I1
aI5
aI108
asI142
(lp141
I5
aI10
aI11
asI143
(lp142
I0
aI0
aI6
asI144
(lp143
I0
aI0
aI0
asI145
(lp144
I0
aI0
aI0
asI147
(lp145
I4
aI0
aI33
asI148
(lp146
I0
aI0
aI0
asI149
(lp147
I0
aI0
aI0
asI150
(lp148
I0
aI1
aI2
asI151
(lp149
I1
aI0
aI0
asI152
(lp150
I0
aI0
aI18
asI153
(lp151
I3
aI10
aI58
asI154
(lp152
I0
aI0
aI0
asI155
(lp153
I2
aI0
aI8
asI156
(lp154
I0
aI0
aI0
asI157
(lp155
I0
aI0
aI0
asI158
(lp156
I0
aI0
aI0
asI159
(lp157
I0
aI1
aI10
asI160
(lp158
I0
aI0
aI1
asI161
(lp159
I1
aI1
aI13
asI162
(lp160
I4
aI1
aI13
asI163
(lp161
I3
aI4
aI24
asI164
(lp162
I0
aI0
aI0
asI165
(lp163
I0
aI0
aI2
asI166
(lp164
I0
aI0
aI0
asI167
(lp165
I0
aI0
aI0
asI168
(lp166
I0
aI0
aI12
asI169
(lp167
I0
aI0
aI16
asI170
(lp168
I0
aI0
aI0
asI171
(lp169
I0
aI1
aI6
asI172
(lp170
I0
aI0
aI0
asI173
(lp171
I0
aI0
aI0
asI174
(lp172
I0
aI0
aI6
asI175
(lp173
I0
aI0
aI7
asI176
(lp174
I3
aI0
aI4
asI177
(lp175
I2
aI10
aI8
asI178
(lp176
I4
aI1
aI19
asI179
(lp177
I3
aI2
aI9
asI180
(lp178
I2
aI0
aI7
asI181
(lp179
I0
aI0
aI0
asI182
(lp180
I4
aI6
aI129
asI183
(lp181
I0
aI0
aI0
asI184
(lp182
I0
aI0
aI0
asI185
(lp183
I0
aI0
aI0
asI186
(lp184
I0
aI0
aI0
asI187
(lp185
I0
aI0
aI0
asI188
(lp186
I7
aI0
aI41
asI189
(lp187
I2
aI2
aI10
asI190
(lp188
I0
aI0
aI1
asI191
(lp189
I0
aI0
aI1
asI192
(lp190
I0
aI1
aI10
asI193
(lp191
I0
aI0
aI4
asI194
(lp192
I0
aI0
aI0
asI195
(lp193
I0
aI7
aI1
asI196
(lp194
I0
aI0
aI4
asI197
(lp195
I0
aI0
aI0
asI198
(lp196
I0
aI0
aI0
asI199
(lp197
I0
aI0
aI0
asI200
(lp198
I5
aI1
aI1
asI201
(lp199
I0
aI0
aI0
asI202
(lp200
I0
aI0
aI0
asI203
(lp201
I0
aI0
aI0
asI204
(lp202
I0
aI0
aI2
asI205
(lp203
I36
aI151
aI896
asI206
(lp204
I0
aI1
aI1
asI207
(lp205
I0
aI0
aI12
asI208
(lp206
I0
aI0
aI0
asI209
(lp207
I0
aI0
aI0
asI210
(lp208
I1
aI0
aI27
asI211
(lp209
I2
aI0
aI10
asI212
(lp210
I1
aI4
aI44
asI213
(lp211
I0
aI0
aI0
asI214
(lp212
I0
aI0
aI3
asI215
(lp213
I0
aI0
aI1
asI216
(lp214
I0
aI0
aI1
asI217
(lp215
I2
aI0
aI4
asI218
(lp216
I0
aI0
aI1
asI219
(lp217
I0
aI0
aI0
asI220
(lp218
I6
aI8
aI142
asI221
(lp219
I0
aI0
aI0
asI222
(lp220
I0
aI0
aI4
asI223
(lp221
I0
aI0
aI3
asI224
(lp222
I2
aI2
aI64
asI225
(lp223
I0
aI0
aI0
asI226
(lp224
I8
aI4
aI56
asI227
(lp225
I3
aI42
aI858
asI228
(lp226
I0
aI0
aI0
asI229
(lp227
I0
aI0
aI0
asI230
(lp228
I2
aI0
aI6
asI231
(lp229
I2
aI0
aI2
asI232
(lp230
I0
aI0
aI0
asI233
(lp231
I0
aI3
aI1
asI234
(lp232
I1
aI0
aI2
asI235
(lp233
I0
aI0
aI0
asI236
(lp234
I0
aI0
aI6
asI237
(lp235
I18
aI13
aI15
asI238
(lp236
I1
aI1
aI2
asI239
(lp237
I1
aI0
aI25
asI240
(lp238
I0
aI0
aI0
asI241
(lp239
I0
aI0
aI3
asI242
(lp240
I0
aI0
aI0
asI243
(lp241
I0
aI0
aI0
asI244
(lp242
I0
aI0
aI0
asI245
(lp243
I2
aI2
aI4
asI246
(lp244
I0
aI27
aI176
asI247
(lp245
I0
aI0
aI0
asI248
(lp246
I0
aI12
aI47
asI249
(lp247
I0
aI0
aI0
asI250
(lp248
I0
aI0
aI0
asI251
(lp249
I0
aI0
aI1
asI252
(lp250
I0
aI0
aI0
asI253
(lp251
I0
aI0
aI15
asI255
(lp252
I0
aI0
aI1
asI256
(lp253
I0
aI0
aI0
asI257
(lp254
I0
aI0
aI0
asI258
(lp255
I0
aI1
aI1
asI259
(lp256
I0
aI4
aI106
asI260
(lp257
I2
aI0
aI2
asI261
(lp258
I2
aI0
aI4
asI262
(lp259
I0
aI0
aI0
asI263
(lp260
I0
aI0
aI0
asI264
(lp261
I0
aI0
aI2
asI265
(lp262
I0
aI0
aI10
asI266
(lp263
I0
aI0
aI0
asI267
(lp264
I14
aI4
aI128
asI268
(lp265
I12
aI2
aI45
asI269
(lp266
I0
aI0
aI2
asI270
(lp267
I0
aI0
aI0
asI271
(lp268
I0
aI0
aI0
asI272
(lp269
I0
aI0
aI0
asI273
(lp270
I0
aI0
aI1
asI274
(lp271
I0
aI0
aI0
asI275
(lp272
I0
aI0
aI3
asI276
(lp273
I0
aI1
aI3
asI277
(lp274
I0
aI0
aI0
asI278
(lp275
I0
aI0
aI1
asI279
(lp276
I0
aI0
aI0
asI280
(lp277
I0
aI0
aI5
asI281
(lp278
I0
aI0
aI1
asI283
(lp279
I0
aI1
aI0
asI284
(lp280
I0
aI1
aI8
asI285
(lp281
I0
aI0
aI10
asI286
(lp282
I0
aI0
aI3
asI287
(lp283
I0
aI1
aI4
asI288
(lp284
I0
aI0
aI3
asI289
(lp285
I0
aI0
aI0
asI290
(lp286
I0
aI0
aI1
asI291
(lp287
I0
aI0
aI2
asI292
(lp288
I1
aI1
aI0
asI293
(lp289
I0
aI0
aI0
asI294
(lp290
I0
aI0
aI47
asI295
(lp291
I0
aI0
aI1
asI296
(lp292
I0
aI0
aI0
asI297
(lp293
I0
aI0
aI0
asI298
(lp294
I0
aI0
aI0
asI299
(lp295
I0
aI0
aI0
asI300
(lp296
I0
aI0
aI14
asI301
(lp297
I9
aI0
aI63
asI302
(lp298
I0
aI0
aI6
asI303
(lp299
I0
aI0
aI1
asI304
(lp300
I0
aI0
aI0
asI305
(lp301
I0
aI0
aI0
asI306
(lp302
I0
aI10
aI26
asI307
(lp303
I4
aI1
aI93
asI308
(lp304
I0
aI0
aI0
asI309
(lp305
I0
aI0
aI10
asI310
(lp306
I0
aI0
aI2
asI311
(lp307
I2
aI3
aI7
asI312
(lp308
I0
aI0
aI0
asI313
(lp309
I0
aI0
aI1
asI314
(lp310
I0
aI0
aI1
asI315
(lp311
I0
aI0
aI0
asI316
(lp312
I0
aI0
aI0
asI317
(lp313
I0
aI0
aI1
asI318
(lp314
I3
aI0
aI13
asI319
(lp315
I2
aI0
aI4
asI320
(lp316
I0
aI0
aI4
asI321
(lp317
I0
aI0
aI1
asI322
(lp318
I0
aI0
aI1
asI323
(lp319
I3
aI0
aI10
asI325
(lp320
I0
aI0
aI2
asI326
(lp321
I1
aI0
aI2
asI327
(lp322
I0
aI0
aI0
asI328
(lp323
I0
aI0
aI0
asI329
(lp324
I0
aI0
aI8
asI330
(lp325
I0
aI0
aI10
asI331
(lp326
I0
aI1
aI0
asI332
(lp327
I0
aI0
aI1
asI333
(lp328
I1
aI0
aI0
asI334
(lp329
I1
aI0
aI2
asI335
(lp330
I0
aI0
aI0
asI336
(lp331
I0
aI1
aI1
asI337
(lp332
I0
aI0
aI0
asI338
(lp333
I0
aI0
aI0
asI340
(lp334
I0
aI0
aI0
asI341
(lp335
I0
aI0
aI0
asI342
(lp336
I11
aI2
aI172
asI343
(lp337
I6
aI48
aI516
asI344
(lp338
I0
aI0
aI1
asI345
(lp339
I0
aI2
aI8
asI346
(lp340
I0
aI0
aI0
asI347
(lp341
I0
aI0
aI26
asI348
(lp342
I0
aI0
aI1
asI350
(lp343
I4
aI3
aI62
asI351
(lp344
I4
aI0
aI9
asI352
(lp345
I0
aI0
aI3
asI353
(lp346
I0
aI0
aI1
asI354
(lp347
I1
aI0
aI3
asI355
(lp348
I0
aI2
aI0
asI356
(lp349
I14
aI7
aI101
asI357
(lp350
I0
aI0
aI0
asI358
(lp351
I0
aI0
aI0
asI359
(lp352
I1
aI0
aI3
asI360
(lp353
I6
aI0
aI16
asI361
(lp354
I2
aI1
aI4
asI362
(lp355
I1
aI2
aI14
asI363
(lp356
I0
aI0
aI0
asI365
(lp357
I0
aI0
aI0
asI366
(lp358
I0
aI0
aI2
asI367
(lp359
I0
aI1
aI0
asI368
(lp360
I7
aI1
aI11
asI369
(lp361
I0
aI0
aI0
asI370
(lp362
I0
aI0
aI0
asI371
(lp363
I0
aI0
aI0
asI372
(lp364
I0
aI0
aI0
asI373
(lp365
I0
aI0
aI0
asI374
(lp366
I0
aI0
aI0
asI375
(lp367
I0
aI0
aI0
asI376
(lp368
I0
aI1
aI7
asI377
(lp369
I0
aI0
aI0
asI378
(lp370
I0
aI0
aI0
asI379
(lp371
I0
aI0
aI9
asI380
(lp372
I0
aI0
aI1
asI382
(lp373
I0
aI0
aI0
asI383
(lp374
I5
aI10
aI28
asI384
(lp375
I0
aI0
aI0
asI385
(lp376
I0
aI0
aI2
asI386
(lp377
I0
aI0
aI0
asI387
(lp378
I0
aI0
aI0
asI388
(lp379
I0
aI0
aI0
asI389
(lp380
I0
aI0
aI0
asI390
(lp381
I14
aI6
aI8
asI391
(lp382
I0
aI0
aI2
asI392
(lp383
I0
aI0
aI0
asI393
(lp384
I0
aI0
aI14
asI394
(lp385
I0
aI0
aI2
asI395
(lp386
I0
aI0
aI11
asI396
(lp387
I0
aI0
aI3
asI397
(lp388
I0
aI0
aI8
asI398
(lp389
I6
aI2
aI43
asI399
(lp390
I0
aI0
aI0
asI400
(lp391
I0
aI0
aI0
asI401
(lp392
I1
aI1
aI8
asI402
(lp393
I0
aI0
aI0
asI403
(lp394
I4
aI3
aI24
asI404
(lp395
I0
aI0
aI0
asI405
(lp396
I0
aI0
aI0
asI406
(lp397
I0
aI0
aI0
asI407
(lp398
I0
aI0
aI3
asI408
(lp399
I2
aI0
aI0
asI409
(lp400
I1
aI0
aI8
asI410
(lp401
I0
aI0
aI3
asI411
(lp402
I1
aI5
aI2
asI412
(lp403
I0
aI0
aI0
asI413
(lp404
I0
aI0
aI0
asI414
(lp405
I0
aI0
aI1
asI415
(lp406
I0
aI0
aI0
asI416
(lp407
I1
aI0
aI3
asI417
(lp408
I0
aI0
aI0
asI418
(lp409
I1
aI0
aI0
asI419
(lp410
I0
aI0
aI0
asI420
(lp411
I0
aI0
aI0
asI422
(lp412
I0
aI0
aI1
asI423
(lp413
I1
aI0
aI2
asI424
(lp414
I0
aI0
aI0
asI425
(lp415
I0
aI0
aI0
asI426
(lp416
I0
aI0
aI0
asI427
(lp417
I0
aI0
aI0
asI428
(lp418
I2
aI1
aI17
asI429
(lp419
I0
aI0
aI0
asI430
(lp420
I0
aI0
aI0
asI431
(lp421
I0
aI0
aI1
asI432
(lp422
I0
aI0
aI0
asI433
(lp423
I0
aI0
aI1
asI434
(lp424
I0
aI0
aI0
asI435
(lp425
I0
aI0
aI0
asI436
(lp426
I1
aI0
aI0
asI437
(lp427
I0
aI0
aI10
asI438
(lp428
I0
aI0
aI0
asI439
(lp429
I0
aI0
aI0
asI440
(lp430
I0
aI0
aI0
asI441
(lp431
I0
aI0
aI0
asI442
(lp432
I0
aI0
aI0
asI443
(lp433
I0
aI0
aI0
asI444
(lp434
I0
aI0
aI0
asI445
(lp435
I0
aI0
aI0
asI446
(lp436
I1
aI1
aI2
asI447
(lp437
I0
aI0
aI0
asI448
(lp438
I0
aI0
aI0
asI449
(lp439
I0
aI0
aI3
asI450
(lp440
I0
aI0
aI3
asI451
(lp441
I0
aI0
aI0
asI452
(lp442
I0
aI0
aI0
asI453
(lp443
I0
aI0
aI1
asI454
(lp444
I0
aI1
aI0
asI455
(lp445
I0
aI0
aI0
asI456
(lp446
I0
aI0
aI0
asI457
(lp447
I0
aI0
aI0
asI458
(lp448
I0
aI0
aI0
asI459
(lp449
I0
aI0
aI0
asI460
(lp450
I1
aI0
aI5
asI461
(lp451
I0
aI0
aI0
asI462
(lp452
I0
aI0
aI2
asI463
(lp453
I0
aI0
aI0
asI464
(lp454
I1
aI0
aI8
asI465
(lp455
I1
aI0
aI8
asI466
(lp456
I0
aI2
aI7
asI467
(lp457
I50
aI68
aI312
asI468
(lp458
I0
aI0
aI2
asI469
(lp459
I0
aI0
aI0
asI470
(lp460
I0
aI0
aI0
asI471
(lp461
I0
aI0
aI0
asI474
(lp462
I0
aI0
aI0
asI475
(lp463
I5
aI0
aI236
asI476
(lp464
I0
aI0
aI0
asI477
(lp465
I11
aI0
aI18
asI478
(lp466
I0
aI0
aI0
asI479
(lp467
I0
aI0
aI0
asI480
(lp468
I1
aI0
aI1
asI481
(lp469
I0
aI0
aI1
asI482
(lp470
I0
aI0
aI0
asI483
(lp471
I1
aI0
aI1
asI484
(lp472
I0
aI0
aI0
asI485
(lp473
I0
aI0
aI0
asI486
(lp474
I1
aI0
aI12
asI488
(lp475
I4
aI6
aI13
asI489
(lp476
I15
aI2
aI8
asI490
(lp477
I0
aI0
aI0
asI492
(lp478
I0
aI1
aI0
asI493
(lp479
I0
aI0
aI0
asI494
(lp480
I0
aI0
aI0
asI495
(lp481
I0
aI0
aI1
asI496
(lp482
I4
aI0
aI30
asI497
(lp483
I0
aI0
aI0
asI498
(lp484
I0
aI0
aI0
asI499
(lp485
I0
aI2
aI2
asI500
(lp486
I4
aI12
aI33
asI501
(lp487
I0
aI1
aI8
asI502
(lp488
I0
aI1
aI1
asI503
(lp489
I0
aI0
aI0
asI504
(lp490
I0
aI0
aI0
asI505
(lp491
I0
aI0
aI0
asI506
(lp492
I0
aI0
aI0
asI507
(lp493
I0
aI0
aI0
asI508
(lp494
I0
aI0
aI7
asI509
(lp495
I0
aI0
aI6
asI510
(lp496
I0
aI0
aI0
asI511
(lp497
I0
aI0
aI0
asI512
(lp498
I0
aI0
aI0
asI513
(lp499
I0
aI0
aI1
asI514
(lp500
I1
aI1
aI51
asI515
(lp501
I0
aI4
aI1
asI516
(lp502
I0
aI0
aI0
asI517
(lp503
I0
aI0
aI0
asI518
(lp504
I0
aI0
aI4
asI519
(lp505
I0
aI0
aI1
asI520
(lp506
I0
aI1
aI14
asI521
(lp507
I0
aI0
aI0
asI522
(lp508
I0
aI0
aI0
asI523
(lp509
I0
aI0
aI0
asI524
(lp510
I0
aI0
aI0
asI525
(lp511
I0
aI0
aI0
asI526
(lp512
I0
aI0
aI16
asI527
(lp513
I0
aI0
aI0
asI528
(lp514
I0
aI0
aI0
asI529
(lp515
I0
aI0
aI0
asI530
(lp516
I0
aI0
aI0
asI531
(lp517
I0
aI0
aI0
asI532
(lp518
I0
aI2
aI12
asI533
(lp519
I0
aI0
aI2
asI534
(lp520
I1
aI0
aI10
asI535
(lp521
I0
aI0
aI0
asI536
(lp522
I0
aI0
aI0
asI537
(lp523
I0
aI0
aI0
asI538
(lp524
I0
aI0
aI0
asI539
(lp525
I0
aI0
aI0
asI540
(lp526
I0
aI0
aI0
asI541
(lp527
I0
aI0
aI2
asI542
(lp528
I0
aI0
aI1
asI543
(lp529
I0
aI0
aI1
asI544
(lp530
I4
aI12
aI22
asI545
(lp531
I0
aI0
aI0
asI546
(lp532
I0
aI0
aI0
asI547
(lp533
I0
aI0
aI0
asI548
(lp534
I0
aI0
aI0
asI549
(lp535
I0
aI0
aI2
asI550
(lp536
I0
aI0
aI0
asI551
(lp537
I0
aI0
aI0
asI552
(lp538
I0
aI0
aI0
asI553
(lp539
I0
aI0
aI0
asI554
(lp540
I0
aI1
aI3
asI555
(lp541
I0
aI0
aI7
asI556
(lp542
I0
aI0
aI0
asI557
(lp543
I0
aI0
aI0
asI558
(lp544
I0
aI0
aI0
asI559
(lp545
I0
aI1
aI2
asI560
(lp546
I0
aI0
aI2
asI561
(lp547
I0
aI0
aI0
asI562
(lp548
I0
aI0
aI0
asI563
(lp549
I0
aI0
aI1
asI564
(lp550
I0
aI0
aI0
asI565
(lp551
I0
aI0
aI0
asI566
(lp552
I0
aI0
aI5
asI567
(lp553
I0
aI0
aI0
asI568
(lp554
I0
aI0
aI1
asI569
(lp555
I0
aI0
aI0
asI570
(lp556
I0
aI0
aI2
asI571
(lp557
I0
aI1
aI3
asI573
(lp558
I0
aI0
aI0
asI574
(lp559
I0
aI0
aI0
asI575
(lp560
I0
aI0
aI0
asI576
(lp561
I0
aI0
aI0
asI577
(lp562
I0
aI0
aI0
asI578
(lp563
I1
aI4
aI20
asI579
(lp564
I5
aI4
aI3
asI580
(lp565
I0
aI0
aI0
asI581
(lp566
I2
aI1
aI1
asI582
(lp567
I0
aI0
aI0
asI583
(lp568
I2
aI1
aI8
asI584
(lp569
I3
aI1
aI2
asI586
(lp570
I0
aI2
aI15
asI587
(lp571
I0
aI1
aI3
asI588
(lp572
I0
aI0
aI0
asI589
(lp573
I0
aI0
aI1
asI590
(lp574
I2
aI0
aI4
asI591
(lp575
I0
aI0
aI1
asI592
(lp576
I0
aI1
aI0
asI593
(lp577
I0
aI3
aI5
asI594
(lp578
I0
aI0
aI0
asI595
(lp579
I0
aI0
aI2
asI596
(lp580
I0
aI0
aI0
asI597
(lp581
I0
aI0
aI0
asI598
(lp582
I0
aI0
aI0
asI599
(lp583
I7
aI13
aI172
asI600
(lp584
I0
aI0
aI0
asI601
(lp585
I0
aI0
aI0
asI602
(lp586
I4
aI0
aI63
asI603
(lp587
I0
aI0
aI0
asI604
(lp588
I0
aI0
aI1
asI605
(lp589
I0
aI0
aI1
asI606
(lp590
I0
aI0
aI2
asI607
(lp591
I0
aI0
aI2
asI608
(lp592
I0
aI0
aI0
asI609
(lp593
I0
aI4
aI7
asI610
(lp594
I0
aI0
aI2
asI611
(lp595
I0
aI0
aI0
asI612
(lp596
I0
aI2
aI1
asI613
(lp597
I0
aI0
aI1
asI614
(lp598
I0
aI0
aI0
asI615
(lp599
I0
aI0
aI0
asI616
(lp600
I0
aI0
aI0
asI617
(lp601
I0
aI0
aI2
asI618
(lp602
I0
aI0
aI2
asI619
(lp603
I0
aI0
aI0
asI620
(lp604
I0
aI0
aI0
asI621
(lp605
I0
aI1
aI0
asI622
(lp606
I3
aI3
aI57
asI623
(lp607
I0
aI0
aI0
asI624
(lp608
I0
aI0
aI11
asI625
(lp609
I0
aI0
aI0
asI626
(lp610
I1
aI66
aI64
asI627
(lp611
I0
aI0
aI0
asI628
(lp612
I0
aI1
aI0
asI629
(lp613
I0
aI0
aI0
asI630
(lp614
I6
aI34
aI145
asI631
(lp615
I0
aI0
aI0
asI632
(lp616
I0
aI1
aI15
asI633
(lp617
I0
aI0
aI0
asI634
(lp618
I1
aI0
aI4
asI635
(lp619
I0
aI0
aI0
asI636
(lp620
I0
aI0
aI0
asI637
(lp621
I0
aI0
aI0
asI638
(lp622
I0
aI0
aI0
asI639
(lp623
I0
aI0
aI0
asI640
(lp624
I0
aI0
aI0
asI641
(lp625
I0
aI0
aI2
asI642
(lp626
I0
aI0
aI2
asI643
(lp627
I0
aI0
aI13
asI644
(lp628
I0
aI1
aI0
asI645
(lp629
I0
aI1
aI0
asI646
(lp630
I0
aI0
aI24
asI647
(lp631
I0
aI0
aI0
asI648
(lp632
I1
aI0
aI15
asI649
(lp633
I0
aI0
aI0
asI650
(lp634
I1
aI0
aI1
asI651
(lp635
I0
aI0
aI0
asI652
(lp636
I0
aI0
aI0
asI653
(lp637
I0
aI0
aI0
asI654
(lp638
I0
aI0
aI1
asI655
(lp639
I0
aI1
aI1
asI656
(lp640
I0
aI0
aI0
asI657
(lp641
I0
aI0
aI0
asI658
(lp642
I0
aI0
aI0
asI659
(lp643
I0
aI0
aI0
asI660
(lp644
I0
aI0
aI0
asI661
(lp645
I0
aI0
aI6
asI662
(lp646
I1
aI2
aI7
asI663
(lp647
I0
aI0
aI0
asI664
(lp648
I0
aI0
aI2
asI665
(lp649
I0
aI0
aI0
asI666
(lp650
I1
aI0
aI2
asI667
(lp651
I0
aI0
aI0
asI668
(lp652
I0
aI0
aI0
asI669
(lp653
I2
aI1
aI13
asI670
(lp654
I0
aI0
aI0
asI671
(lp655
I3
aI0
aI15
asI672
(lp656
I0
aI0
aI2
asI673
(lp657
I0
aI0
aI2
asI674
(lp658
I0
aI0
aI0
asI675
(lp659
I0
aI0
aI0
asI676
(lp660
I0
aI0
aI0
asI678
(lp661
I0
aI0
aI0
asI679
(lp662
I0
aI0
aI0
asI680
(lp663
I0
aI32
aI48
asI681
(lp664
I0
aI0
aI0
asI682
(lp665
I2
aI1
aI8
asI683
(lp666
I0
aI1
aI2
asI684
(lp667
I0
aI1
aI2
asI685
(lp668
I0
aI0
aI4
asI686
(lp669
I0
aI0
aI0
asI687
(lp670
I0
aI1
aI23
asI688
(lp671
I0
aI0
aI0
asI689
(lp672
I0
aI0
aI0
asI690
(lp673
I0
aI0
aI0
asI691
(lp674
I0
aI0
aI0
asI692
(lp675
I0
aI0
aI0
asI694
(lp676
I0
aI0
aI0
asI696
(lp677
I0
aI0
aI0
asI697
(lp678
I1
aI0
aI0
asI698
(lp679
I0
aI0
aI0
asI699
(lp680
I0
aI0
aI4
asI700
(lp681
I0
aI0
aI0
asI701
(lp682
I0
aI1
aI18
asI702
(lp683
I0
aI1
aI0
asI703
(lp684
I0
aI0
aI0
asI704
(lp685
I0
aI0
aI0
asI705
(lp686
I0
aI0
aI0
asI706
(lp687
I0
aI0
aI14
asI707
(lp688
I0
aI0
aI0
asI708
(lp689
I1
aI0
aI2
asI709
(lp690
I0
aI0
aI1
asI710
(lp691
I0
aI0
aI0
asI711
(lp692
I0
aI0
aI0
asI712
(lp693
I0
aI0
aI2
asI713
(lp694
I0
aI0
aI0
asI714
(lp695
I0
aI0
aI0
asI715
(lp696
I0
aI0
aI0
asI716
(lp697
I0
aI0
aI0
asI717
(lp698
I0
aI0
aI0
asI718
(lp699
I0
aI0
aI1
asI719
(lp700
I0
aI0
aI6
asI720
(lp701
I0
aI0
aI0
asI721
(lp702
I0
aI0
aI0
asI722
(lp703
I0
aI0
aI0
asI723
(lp704
I0
aI0
aI2
asI725
(lp705
I0
aI0
aI6
asI726
(lp706
I0
aI0
aI0
asI727
(lp707
I0
aI0
aI0
asI729
(lp708
I0
aI0
aI1
asI730
(lp709
I0
aI0
aI0
asI731
(lp710
I0
aI0
aI0
asI732
(lp711
I0
aI0
aI0
asI733
(lp712
I0
aI0
aI0
asI734
(lp713
I0
aI0
aI0
asI735
(lp714
I0
aI0
aI0
asI736
(lp715
I0
aI0
aI0
asI737
(lp716
I0
aI0
aI1
asI738
(lp717
I0
aI0
aI0
asI739
(lp718
I0
aI0
aI4
asI740
(lp719
I0
aI0
aI0
asI741
(lp720
I0
aI0
aI0
asI742
(lp721
I0
aI0
aI0
asI743
(lp722
I0
aI0
aI0
asI744
(lp723
I0
aI0
aI0
asI745
(lp724
I0
aI0
aI0
asI746
(lp725
I0
aI0
aI4
asI747
(lp726
I0
aI0
aI2
asI748
(lp727
I0
aI0
aI0
asI749
(lp728
I0
aI0
aI0
asI750
(lp729
I0
aI0
aI0
asI751
(lp730
I0
aI0
aI1
asI752
(lp731
I0
aI0
aI0
asI753
(lp732
I0
aI0
aI0
asI754
(lp733
I0
aI1
aI0
asI755
(lp734
I0
aI0
aI3
asI756
(lp735
I1
aI0
aI5
asI757
(lp736
I0
aI0
aI39
asI758
(lp737
I0
aI0
aI0
asI759
(lp738
I0
aI0
aI0
asI760
(lp739
I0
aI0
aI0
asI761
(lp740
I0
aI0
aI0
asI762
(lp741
I0
aI0
aI0
asI763
(lp742
I1
aI0
aI15
asI764
(lp743
I0
aI0
aI0
asI765
(lp744
I0
aI0
aI0
asI768
(lp745
I0
aI0
aI0
asI769
(lp746
I0
aI0
aI0
asI770
(lp747
I0
aI0
aI1
asI771
(lp748
I0
aI0
aI0
asI772
(lp749
I0
aI0
aI1
asI773
(lp750
I0
aI0
aI0
asI774
(lp751
I0
aI0
aI0
asI775
(lp752
I0
aI0
aI2
asI776
(lp753
I0
aI0
aI0
asI777
(lp754
I0
aI0
aI2
asI778
(lp755
I0
aI87
aI562
asI779
(lp756
I1
aI1
aI3
asI780
(lp757
I1
aI3
aI18
asI782
(lp758
I0
aI0
aI5
asI783
(lp759
I1
aI1
aI0
asI784
(lp760
I3
aI1
aI4
asI785
(lp761
I0
aI0
aI2
asI786
(lp762
I0
aI0
aI1
asI787
(lp763
I0
aI0
aI0
asI788
(lp764
I0
aI1
aI2
asI789
(lp765
I0
aI0
aI7
asI790
(lp766
I0
aI0
aI1
asI791
(lp767
I0
aI0
aI0
asI792
(lp768
I0
aI0
aI0
asI794
(lp769
I0
aI0
aI4
asI795
(lp770
I0
aI0
aI0
asI796
(lp771
I0
aI0
aI0
asI797
(lp772
I0
aI0
aI17
asI798
(lp773
I0
aI0
aI3
asI799
(lp774
I0
aI0
aI0
asI800
(lp775
I2
aI1
aI4
asI801
(lp776
I0
aI0
aI0
asI803
(lp777
I0
aI0
aI0
asI804
(lp778
I0
aI0
aI0
asI805
(lp779
I0
aI0
aI0
asI806
(lp780
I0
aI0
aI0
asI807
(lp781
I0
aI0
aI0
asI808
(lp782
I0
aI0
aI0
asI809
(lp783
I0
aI0
aI0
asI810
(lp784
I1
aI0
aI9
asI811
(lp785
I1
aI0
aI0
asI812
(lp786
I1
aI1
aI3
asI813
(lp787
I0
aI1
aI0
asI814
(lp788
I0
aI0
aI14
asI815
(lp789
I0
aI1
aI0
asI816
(lp790
I0
aI0
aI0
asI817
(lp791
I0
aI0
aI0
asI818
(lp792
I0
aI0
aI0
asI819
(lp793
I0
aI1
aI0
asI820
(lp794
I1
aI0
aI2
asI821
(lp795
I0
aI0
aI1
asI822
(lp796
I0
aI0
aI0
asI823
(lp797
I0
aI0
aI0
asI824
(lp798
I3
aI1
aI6
asI825
(lp799
I0
aI0
aI0
asI826
(lp800
I1
aI2
aI10
asI827
(lp801
I0
aI0
aI6
asI828
(lp802
I0
aI0
aI3
asI829
(lp803
I0
aI0
aI6
asI830
(lp804
I0
aI0
aI2
asI831
(lp805
I0
aI0
aI0
asI832
(lp806
I0
aI0
aI0
asI833
(lp807
I1
aI0
aI2
asI834
(lp808
I0
aI0
aI0
asI835
(lp809
I0
aI0
aI0
asI836
(lp810
I0
aI0
aI11
asI837
(lp811
I0
aI0
aI0
asI838
(lp812
I0
aI0
aI0
asI839
(lp813
I0
aI0
aI0
asI840
(lp814
I0
aI0
aI0
asI841
(lp815
I0
aI0
aI0
asI842
(lp816
I0
aI1
aI0
asI843
(lp817
I0
aI1
aI1
asI844
(lp818
I0
aI0
aI0
asI845
(lp819
I0
aI0
aI5
asI846
(lp820
I0
aI0
aI0
asI847
(lp821
I0
aI0
aI0
asI848
(lp822
I0
aI0
aI0
asI849
(lp823
I0
aI0
aI0
asI850
(lp824
I3
aI2
aI26
asI852
(lp825
I1
aI0
aI10
asI853
(lp826
I0
aI0
aI0
asI854
(lp827
I9
aI3
aI89
asI855
(lp828
I0
aI0
aI0
asI856
(lp829
I0
aI0
aI0
asI857
(lp830
I0
aI0
aI0
asI858
(lp831
I0
aI0
aI0
asI859
(lp832
I4
aI2
aI12
asI860
(lp833
I0
aI1
aI0
asI861
(lp834
I0
aI1
aI0
asI862
(lp835
I0
aI0
aI0
asI863
(lp836
I0
aI0
aI0
asI865
(lp837
I12
aI43
aI619
asI866
(lp838
I0
aI0
aI0
asI867
(lp839
I0
aI0
aI0
asI868
(lp840
I0
aI0
aI0
asI869
(lp841
I0
aI1
aI0
asI870
(lp842
I0
aI0
aI0
asI871
(lp843
I0
aI0
aI5
asI872
(lp844
I0
aI0
aI0
asI873
(lp845
I0
aI0
aI1
asI874
(lp846
I0
aI1
aI0
asI875
(lp847
I0
aI3
aI8
asI876
(lp848
I0
aI0
aI0
asI877
(lp849
I0
aI0
aI0
asI878
(lp850
I3
aI0
aI31
asI879
(lp851
I0
aI0
aI0
asI880
(lp852
I6
aI6
aI19
asI881
(lp853
I0
aI0
aI0
asI882
(lp854
I0
aI0
aI0
asI883
(lp855
I0
aI0
aI0
asI884
(lp856
I0
aI0
aI1
asI885
(lp857
I0
aI0
aI0
asI886
(lp858
I0
aI0
aI0
asI887
(lp859
I0
aI0
aI16
asI888
(lp860
I0
aI0
aI0
asI889
(lp861
I1
aI0
aI7
asI890
(lp862
I0
aI1
aI0
asI891
(lp863
I0
aI0
aI1
asI892
(lp864
I0
aI0
aI0
asI893
(lp865
I0
aI0
aI0
asI894
(lp866
I0
aI0
aI0
asI895
(lp867
I0
aI44
aI150
asI896
(lp868
I0
aI0
aI0
asI897
(lp869
I0
aI1
aI1
asI898
(lp870
I0
aI0
aI0
asI899
(lp871
I0
aI0
aI0
asI900
(lp872
I0
aI0
aI0
asI901
(lp873
I0
aI0
aI0
asI902
(lp874
I1
aI0
aI2
asI903
(lp875
I0
aI0
aI0
asI904
(lp876
I0
aI0
aI6
asI905
(lp877
I0
aI0
aI2
asI906
(lp878
I0
aI0
aI1
asI907
(lp879
I0
aI1
aI0
asI908
(lp880
I0
aI0
aI1
asI909
(lp881
I0
aI0
aI0
asI910
(lp882
I0
aI0
aI0
asI911
(lp883
I3
aI2
aI1
asI912
(lp884
I0
aI0
aI7
asI913
(lp885
I0
aI0
aI0
asI914
(lp886
I0
aI0
aI0
asI915
(lp887
I2
aI0
aI18
asI916
(lp888
I0
aI0
aI1
asI917
(lp889
I0
aI0
aI0
asI918
(lp890
I0
aI0
aI0
asI919
(lp891
I0
aI0
aI0
asI920
(lp892
I1
aI0
aI5
asI921
(lp893
I0
aI0
aI1
asI922
(lp894
I1
aI0
aI0
asI923
(lp895
I0
aI0
aI4
asI924
(lp896
I0
aI0
aI0
asI925
(lp897
I10
aI2
aI60
asI926
(lp898
I0
aI0
aI0
asI927
(lp899
I0
aI0
aI0
asI929
(lp900
I0
aI0
aI0
asI930
(lp901
I0
aI0
aI70
asI931
(lp902
I0
aI0
aI0
asI932
(lp903
I0
aI0
aI0
asI933
(lp904
I0
aI0
aI0
asI934
(lp905
I0
aI0
aI0
asI935
(lp906
I0
aI0
aI2
asI936
(lp907
I0
aI0
aI4
asI937
(lp908
I0
aI0
aI0
asI938
(lp909
I0
aI0
aI16
asI939
(lp910
I0
aI0
aI0
asI940
(lp911
I0
aI0
aI0
asI941
(lp912
I0
aI0
aI2
asI942
(lp913
I0
aI0
aI0
asI943
(lp914
I0
aI0
aI3
asI944
(lp915
I0
aI0
aI29
asI945
(lp916
I2
aI0
aI13
asI946
(lp917
I0
aI0
aI0
asI947
(lp918
I0
aI2
aI16
asI948
(lp919
I0
aI0
aI0
asI949
(lp920
I0
aI0
aI6
asI950
(lp921
I0
aI0
aI0
asI951
(lp922
I0
aI0
aI5
asI952
(lp923
I0
aI0
aI5
asI953
(lp924
I0
aI0
aI0
asI954
(lp925
I0
aI0
aI0
asI955
(lp926
I0
aI0
aI0
asI956
(lp927
I0
aI0
aI0
asI957
(lp928
I0
aI0
aI0
asI958
(lp929
I0
aI0
aI0
asI959
(lp930
I0
aI0
aI0
asI960
(lp931
I2
aI0
aI2
asI961
(lp932
I0
aI0
aI0
asI962
(lp933
I0
aI1
aI0
asI963
(lp934
I0
aI1
aI2
asI964
(lp935
I0
aI0
aI2
asI965
(lp936
I0
aI0
aI0
asI966
(lp937
I0
aI0
aI0
asI967
(lp938
I0
aI0
aI0
asI968
(lp939
I0
aI0
aI0
asI969
(lp940
I0
aI1
aI9
asI970
(lp941
I0
aI110
aI47
asI971
(lp942
I0
aI0
aI3
asI972
(lp943
I0
aI0
aI0
asI973
(lp944
I0
aI0
aI0
asI974
(lp945
I0
aI0
aI0
asI975
(lp946
I0
aI0
aI0
asI976
(lp947
I0
aI0
aI0
asI977
(lp948
I4
aI0
aI1
asI978
(lp949
I0
aI4
aI12
asI979
(lp950
I1
aI0
aI4
asI980
(lp951
I0
aI0
aI0
asI981
(lp952
I0
aI0
aI1
asI982
(lp953
I0
aI0
aI0
asI983
(lp954
I8
aI1
aI17
asI984
(lp955
I0
aI0
aI12
asI985
(lp956
I24
aI2
aI26
asI986
(lp957
I0
aI0
aI0
asI988
(lp958
I0
aI0
aI0
asI989
(lp959
I3
aI4
aI76
asI990
(lp960
I0
aI0
aI0
asI991
(lp961
I0
aI0
aI0
asI992
(lp962
I0
aI0
aI0
asI993
(lp963
I1
aI0
aI1
asI994
(lp964
I0
aI0
aI3
asI995
(lp965
I0
aI0
aI0
asI996
(lp966
I0
aI0
aI0
asI997
(lp967
I0
aI0
aI0
asI998
(lp968
I0
aI0
aI0
asI999
(lp969
I0
aI0
aI0
asI1000
(lp970
I0
aI0
aI1
asI1001
(lp971
I0
aI0
aI0
asI1002
(lp972
I0
aI0
aI0
asI1003
(lp973
I0
aI0
aI3
asI1004
(lp974
I0
aI0
aI6
asI1005
(lp975
I0
aI0
aI0
asI1006
(lp976
I0
aI0
aI2
asI1007
(lp977
I0
aI0
aI0
asI1008
(lp978
I1
aI1
aI5
asI1009
(lp979
I0
aI0
aI4
asI1010
(lp980
I0
aI0
aI0
asI1011
(lp981
I1
aI0
aI1
asI1012
(lp982
I0
aI0
aI0
asI1013
(lp983
I0
aI0
aI0
asI1014
(lp984
I1
aI0
aI1
asI1015
(lp985
I0
aI0
aI9
asI1016
(lp986
I0
aI0
aI0
asI1017
(lp987
I0
aI0
aI0
asI1018
(lp988
I0
aI0
aI5
asI1019
(lp989
I1
aI0
aI0
asI1020
(lp990
I0
aI0
aI0
asI1021
(lp991
I0
aI0
aI0
asI1022
(lp992
I0
aI0
aI0
asI1023
(lp993
I0
aI0
aI0
asI1024
(lp994
I0
aI0
aI0
asI1025
(lp995
I0
aI0
aI0
asI1026
(lp996
I0
aI0
aI0
asI1027
(lp997
I0
aI0
aI0
asI1028
(lp998
I0
aI0
aI0
asI1029
(lp999
I0
aI0
aI0
asI1030
(lp1000
I0
aI0
aI0
asI1031
(lp1001
I0
aI0
aI5
asI1032
(lp1002
I0
aI0
aI0
asI1033
(lp1003
I1
aI0
aI1
asI1034
(lp1004
I0
aI0
aI0
asI1035
(lp1005
I0
aI0
aI1
asI1036
(lp1006
I0
aI0
aI0
asI1037
(lp1007
I1
aI0
aI0
asI1038
(lp1008
I0
aI0
aI2
asI1039
(lp1009
I1
aI1
aI1
asI1040
(lp1010
I0
aI0
aI20
asI1041
(lp1011
I0
aI1
aI7
asI1042
(lp1012
I0
aI0
aI2
asI1043
(lp1013
I0
aI0
aI0
asI1044
(lp1014
I0
aI0
aI15
asI1045
(lp1015
I1
aI0
aI16
asI1046
(lp1016
I0
aI0
aI0
asI1047
(lp1017
I1
aI0
aI0
asI1048
(lp1018
I0
aI0
aI2
asI1049
(lp1019
I0
aI0
aI0
asI1050
(lp1020
I0
aI0
aI0
asI1051
(lp1021
I0
aI0
aI0
asI1052
(lp1022
I0
aI0
aI3
asI1054
(lp1023
I0
aI0
aI0
asI1055
(lp1024
I2
aI1
aI4
asI1056
(lp1025
I2
aI0
aI11
asI1057
(lp1026
I1
aI0
aI3
asI1058
(lp1027
I0
aI0
aI1
asI1059
(lp1028
I0
aI0
aI1
asI1060
(lp1029
I4
aI2
aI21
asI1061
(lp1030
I0
aI0
aI0
asI1062
(lp1031
I0
aI0
aI0
asI1063
(lp1032
I0
aI0
aI0
asI1064
(lp1033
I0
aI0
aI2
asI1065
(lp1034
I27
aI0
aI39
asI1066
(lp1035
I8
aI1
aI5
asI1067
(lp1036
I4
aI5
aI15
asI1068
(lp1037
I0
aI0
aI0
asI1069
(lp1038
I0
aI0
aI0
asI1070
(lp1039
I0
aI0
aI0
asI1071
(lp1040
I0
aI0
aI6
asI1072
(lp1041
I1
aI0
aI2
asI1073
(lp1042
I0
aI0
aI0
asI1074
(lp1043
I0
aI0
aI0
asI1075
(lp1044
I0
aI0
aI0
asI1076
(lp1045
I0
aI0
aI0
asI1077
(lp1046
I0
aI2
aI0
asI1078
(lp1047
I0
aI0
aI0
asI1079
(lp1048
I1
aI1
aI0
asI1080
(lp1049
I21
aI0
aI0
asI1081
(lp1050
I4
aI0
aI19
asI1082
(lp1051
I0
aI0
aI0
asI1083
(lp1052
I2
aI1
aI5
asI1084
(lp1053
I0
aI0
aI0
asI1085
(lp1054
I0
aI0
aI0
asI1086
(lp1055
I0
aI0
aI1
asI1087
(lp1056
I0
aI0
aI0
asI1088
(lp1057
I0
aI0
aI1
asI1089
(lp1058
I0
aI0
aI0
asI1090
(lp1059
I0
aI0
aI0
asI1091
(lp1060
I0
aI0
aI0
asI1092
(lp1061
I0
aI0
aI0
asI1093
(lp1062
I1
aI0
aI7
asI1094
(lp1063
I0
aI3
aI47
asI1095
(lp1064
I2
aI4
aI0
asI1096
(lp1065
I0
aI0
aI0
asI1097
(lp1066
I7
aI2
aI2
asI1098
(lp1067
I0
aI0
aI0
asI1099
(lp1068
I0
aI0
aI0
asI1100
(lp1069
I0
aI0
aI2
asI1101
(lp1070
I0
aI1
aI2
asI1102
(lp1071
I0
aI0
aI0
asI1103
(lp1072
I0
aI0
aI0
asI1104
(lp1073
I1
aI0
aI0
asI1105
(lp1074
I0
aI0
aI0
asI1106
(lp1075
I0
aI0
aI0
asI1107
(lp1076
I1
aI0
aI0
asI1108
(lp1077
I0
aI0
aI0
asI1109
(lp1078
I1
aI0
aI12
asI1110
(lp1079
I0
aI0
aI0
asI1111
(lp1080
I10
aI4
aI55
asI1112
(lp1081
I1
aI0
aI0
asI1113
(lp1082
I0
aI0
aI0
asI1114
(lp1083
I0
aI0
aI0
asI1115
(lp1084
I2
aI5
aI3
asI1116
(lp1085
I0
aI0
aI0
asI1117
(lp1086
I0
aI0
aI0
asI1118
(lp1087
I0
aI0
aI0
asI1119
(lp1088
I0
aI0
aI0
asI1120
(lp1089
I0
aI0
aI1
asI1121
(lp1090
I0
aI0
aI0
asI1122
(lp1091
I0
aI0
aI2
asI1123
(lp1092
I0
aI0
aI2
asI1124
(lp1093
I0
aI0
aI0
asI1125
(lp1094
I0
aI0
aI1
asI1126
(lp1095
I0
aI0
aI0
asI1127
(lp1096
I0
aI0
aI0
asI1129
(lp1097
I0
aI0
aI0
asI1130
(lp1098
I0
aI0
aI0
asI1131
(lp1099
I0
aI0
aI0
asI1132
(lp1100
I3
aI0
aI6
asI1133
(lp1101
I1
aI0
aI1
asI1134
(lp1102
I0
aI0
aI2
asI1135
(lp1103
I0
aI0
aI0
asI1136
(lp1104
I0
aI0
aI0
asI1137
(lp1105
I0
aI0
aI1
asI1138
(lp1106
I1
aI0
aI0
asI1139
(lp1107
I0
aI0
aI0
asI1140
(lp1108
I0
aI0
aI0
asI1141
(lp1109
I0
aI0
aI6
asI1142
(lp1110
I0
aI0
aI1
asI1143
(lp1111
I0
aI0
aI1
asI1144
(lp1112
I0
aI0
aI0
asI1145
(lp1113
I0
aI10
aI25
asI1146
(lp1114
I0
aI0
aI0
asI1147
(lp1115
I0
aI0
aI0
asI1148
(lp1116
I0
aI0
aI0
asI1149
(lp1117
I0
aI1
aI5
asI1150
(lp1118
I0
aI0
aI0
asI1151
(lp1119
I0
aI0
aI7
asI1152
(lp1120
I0
aI0
aI2
asI1153
(lp1121
I0
aI0
aI0
asI1154
(lp1122
I1
aI1
aI24
asI1155
(lp1123
I0
aI6
aI13
asI1156
(lp1124
I0
aI0
aI1
asI1157
(lp1125
I0
aI0
aI1
asI1158
(lp1126
I0
aI0
aI1
asI1159
(lp1127
I0
aI0
aI0
asI1160
(lp1128
I0
aI0
aI0
asI1161
(lp1129
I0
aI0
aI5
asI1162
(lp1130
I1
aI0
aI0
asI1163
(lp1131
I0
aI0
aI0
asI1164
(lp1132
I0
aI0
aI0
asI1165
(lp1133
I0
aI0
aI0
asI1166
(lp1134
I5
aI2
aI27
asI1167
(lp1135
I0
aI0
aI0
asI1168
(lp1136
I12
aI1
aI15
asI1169
(lp1137
I0
aI0
aI19
asI1170
(lp1138
I0
aI0
aI0
asI1171
(lp1139
I0
aI0
aI0
asI1172
(lp1140
I0
aI1
aI0
asI1173
(lp1141
I0
aI0
aI0
asI1174
(lp1142
I0
aI0
aI0
asI1175
(lp1143
I0
aI0
aI0
asI1176
(lp1144
I2
aI0
aI1
asI1177
(lp1145
I0
aI0
aI1
asI1178
(lp1146
I0
aI0
aI0
asI1179
(lp1147
I0
aI0
aI0
asI1180
(lp1148
I0
aI0
aI0
asI1181
(lp1149
I0
aI1
aI0
asI1182
(lp1150
I0
aI1
aI0
asI1183
(lp1151
I0
aI0
aI1
asI1184
(lp1152
I0
aI0
aI0
asI1185
(lp1153
I0
aI0
aI0
asI1186
(lp1154
I0
aI0
aI0
asI1187
(lp1155
I0
aI0
aI1
asI1188
(lp1156
I0
aI0
aI0
asI1189
(lp1157
I0
aI0
aI0
asI1190
(lp1158
I0
aI0
aI8
asI1191
(lp1159
I0
aI0
aI0
asI1192
(lp1160
I0
aI0
aI0
asI1193
(lp1161
I0
aI0
aI0
asI1194
(lp1162
I0
aI0
aI2
asI1195
(lp1163
I0
aI0
aI1
asI1196
(lp1164
I0
aI0
aI0
asI1197
(lp1165
I0
aI0
aI4
asI1198
(lp1166
I0
aI0
aI0
asI1199
(lp1167
I0
aI0
aI0
asI1200
(lp1168
I0
aI0
aI0
asI1201
(lp1169
I0
aI0
aI0
asI1202
(lp1170
I0
aI0
aI0
asI1203
(lp1171
I0
aI0
aI0
asI1205
(lp1172
I0
aI0
aI0
asI1206
(lp1173
I0
aI0
aI0
asI1207
(lp1174
I0
aI0
aI0
asI1208
(lp1175
I0
aI0
aI0
asI1209
(lp1176
I0
aI0
aI0
asI1210
(lp1177
I0
aI0
aI0
asI1211
(lp1178
I0
aI0
aI0
asI1212
(lp1179
I0
aI0
aI0
asI1213
(lp1180
I0
aI0
aI0
asI1214
(lp1181
I1
aI0
aI0
asI1215
(lp1182
I0
aI0
aI0
asI1216
(lp1183
I0
aI0
aI0
asI1217
(lp1184
I0
aI0
aI0
asI1218
(lp1185
I0
aI0
aI0
asI1219
(lp1186
I0
aI0
aI0
asI1220
(lp1187
I1
aI0
aI0
asI1221
(lp1188
I0
aI0
aI0
asI1222
(lp1189
I0
aI0
aI0
asI1223
(lp1190
I0
aI0
aI40
asI1224
(lp1191
I0
aI0
aI0
asI1225
(lp1192
I0
aI0
aI1
asI1227
(lp1193
I0
aI0
aI3
asI1228
(lp1194
I0
aI1
aI0
asI1229
(lp1195
I0
aI0
aI0
asI1230
(lp1196
I0
aI1
aI1
asI1231
(lp1197
I0
aI0
aI0
asI1232
(lp1198
I0
aI1
aI2
asI1233
(lp1199
I0
aI0
aI0
asI1234
(lp1200
I0
aI0
aI0
asI1235
(lp1201
I0
aI0
aI0
asI1236
(lp1202
I0
aI0
aI0
asI1237
(lp1203
I0
aI0
aI0
asI1238
(lp1204
I0
aI2
aI50
asI1239
(lp1205
I0
aI0
aI0
asI1240
(lp1206
I0
aI0
aI0
asI1241
(lp1207
I0
aI0
aI0
asI1242
(lp1208
I0
aI0
aI1
asI1243
(lp1209
I0
aI0
aI0
asI1244
(lp1210
I0
aI0
aI0
asI1245
(lp1211
I0
aI0
aI0
asI1246
(lp1212
I0
aI0
aI0
asI1247
(lp1213
I0
aI0
aI0
asI1248
(lp1214
I9
aI1
aI4
asI1249
(lp1215
I0
aI0
aI0
asI1251
(lp1216
I0
aI0
aI0
asI1252
(lp1217
I0
aI0
aI0
asI1253
(lp1218
I0
aI0
aI0
asI1254
(lp1219
I0
aI0
aI0
asI1255
(lp1220
I0
aI0
aI0
asI1256
(lp1221
I1
aI1
aI0
asI1257
(lp1222
I0
aI0
aI0
asI1258
(lp1223
I0
aI0
aI0
asI1259
(lp1224
I0
aI1
aI20
asI1260
(lp1225
I0
aI0
aI0
asI1261
(lp1226
I0
aI0
aI2
asI1262
(lp1227
I4
aI0
aI103
asI1263
(lp1228
I0
aI0
aI0
asI1264
(lp1229
I0
aI0
aI0
asI1265
(lp1230
I0
aI0
aI4
asI1266
(lp1231
I0
aI0
aI0
asI1267
(lp1232
I0
aI0
aI0
asI1268
(lp1233
I0
aI0
aI3
asI1269
(lp1234
I0
aI0
aI0
asI1270
(lp1235
I0
aI0
aI1
asI1271
(lp1236
I0
aI0
aI0
asI1272
(lp1237
I1
aI0
aI0
asI1273
(lp1238
I0
aI0
aI0
asI1274
(lp1239
I0
aI0
aI0
asI1275
(lp1240
I1
aI0
aI3
asI1276
(lp1241
I24
aI2
aI20
asI1277
(lp1242
I0
aI0
aI0
asI1278
(lp1243
I5
aI1
aI20
asI1279
(lp1244
I0
aI0
aI0
asI1280
(lp1245
I0
aI0
aI0
asI1281
(lp1246
I0
aI0
aI0
asI1282
(lp1247
I0
aI0
aI0
asI1283
(lp1248
I1
aI0
aI12
asI1284
(lp1249
I0
aI0
aI0
asI1285
(lp1250
I0
aI0
aI3
asI1286
(lp1251
I0
aI0
aI0
asI1287
(lp1252
I0
aI0
aI0
asI1288
(lp1253
I0
aI0
aI1
asI1289
(lp1254
I0
aI0
aI6
asI1290
(lp1255
I0
aI0
aI0
asI1291
(lp1256
I0
aI0
aI10
asI1292
(lp1257
I0
aI0
aI33
asI1293
(lp1258
I0
aI0
aI0
asI1294
(lp1259
I0
aI0
aI2
asI1295
(lp1260
I0
aI0
aI0
asI1296
(lp1261
I3
aI20
aI16
asI1297
(lp1262
I0
aI0
aI0
asI1298
(lp1263
I0
aI0
aI0
asI1299
(lp1264
I0
aI0
aI1
asI1300
(lp1265
I0
aI1
aI1
asI1301
(lp1266
I0
aI1
aI0
asI1302
(lp1267
I0
aI1
aI5
asI1303
(lp1268
I0
aI0
aI0
asI1304
(lp1269
I0
aI0
aI0
asI1305
(lp1270
I4
aI1
aI15
asI1306
(lp1271
I5
aI30
aI182
asI1307
(lp1272
I0
aI0
aI0
asI1308
(lp1273
I0
aI0
aI3
asI1309
(lp1274
I0
aI0
aI1
asI1310
(lp1275
I0
aI0
aI0
asI1311
(lp1276
I0
aI0
aI14
asI1312
(lp1277
I0
aI0
aI0
asI1313
(lp1278
I3
aI3
aI8
asI1314
(lp1279
I0
aI0
aI0
asI1315
(lp1280
I2
aI1
aI7
asI1316
(lp1281
I0
aI0
aI0
asI1317
(lp1282
I4
aI0
aI8
asI1318
(lp1283
I0
aI0
aI0
asI1319
(lp1284
I0
aI0
aI0
asI1320
(lp1285
I0
aI0
aI0
asI1321
(lp1286
I0
aI0
aI0
asI1322
(lp1287
I0
aI0
aI0
asI1323
(lp1288
I0
aI0
aI0
asI1324
(lp1289
I0
aI0
aI1
asI1325
(lp1290
I0
aI0
aI0
asI1326
(lp1291
I0
aI0
aI0
asI1327
(lp1292
I0
aI0
aI0
asI1328
(lp1293
I0
aI0
aI4
asI1329
(lp1294
I0
aI0
aI0
asI1330
(lp1295
I0
aI0
aI0
asI1331
(lp1296
I1
aI0
aI1
asI1332
(lp1297
I0
aI0
aI0
asI1333
(lp1298
I0
aI0
aI1
asI1334
(lp1299
I1
aI0
aI0
asI1335
(lp1300
I0
aI1
aI1
asI1336
(lp1301
I2
aI1
aI1
asI1337
(lp1302
I0
aI0
aI0
asI1338
(lp1303
I0
aI0
aI0
asI1339
(lp1304
I0
aI0
aI0
asI1340
(lp1305
I0
aI0
aI2
asI1341
(lp1306
I0
aI0
aI0
asI1342
(lp1307
I0
aI0
aI0
asI1343
(lp1308
I0
aI0
aI0
asI1344
(lp1309
I0
aI1
aI0
asI1345
(lp1310
I0
aI0
aI2
asI1346
(lp1311
I0
aI0
aI0
asI1347
(lp1312
I0
aI0
aI0
asI1348
(lp1313
I0
aI0
aI1
asI1349
(lp1314
I0
aI0
aI0
asI1350
(lp1315
I0
aI0
aI1
asI1351
(lp1316
I0
aI0
aI0
asI1352
(lp1317
I0
aI0
aI8
asI1353
(lp1318
I0
aI0
aI0
asI1354
(lp1319
I0
aI0
aI0
asI1355
(lp1320
I0
aI0
aI0
asI1356
(lp1321
I0
aI0
aI0
asI1357
(lp1322
I0
aI0
aI0
asI1358
(lp1323
I0
aI0
aI0
asI1359
(lp1324
I0
aI0
aI0
asI1360
(lp1325
I0
aI0
aI0
asI1361
(lp1326
I0
aI0
aI0
asI1362
(lp1327
I0
aI0
aI0
asI1363
(lp1328
I0
aI0
aI1
asI1364
(lp1329
I0
aI0
aI0
asI1365
(lp1330
I0
aI0
aI0
asI1366
(lp1331
I0
aI0
aI0
asI1367
(lp1332
I0
aI0
aI1
asI1368
(lp1333
I0
aI0
aI0
asI1369
(lp1334
I0
aI0
aI1
asI1370
(lp1335
I0
aI0
aI0
asI1371
(lp1336
I0
aI0
aI2
asI1372
(lp1337
I0
aI0
aI0
asI1373
(lp1338
I1
aI0
aI1
asI1374
(lp1339
I0
aI0
aI0
asI1375
(lp1340
I0
aI0
aI0
asI1376
(lp1341
I0
aI0
aI0
asI1377
(lp1342
I0
aI1
aI4
asI1378
(lp1343
I6
aI0
aI4
asI1379
(lp1344
I0
aI0
aI5
asI1380
(lp1345
I0
aI0
aI0
asI1381
(lp1346
I0
aI0
aI0
asI1382
(lp1347
I0
aI0
aI1
asI1383
(lp1348
I0
aI0
aI0
asI1384
(lp1349
I0
aI0
aI0
asI1385
(lp1350
I0
aI0
aI0
asI1386
(lp1351
I0
aI0
aI3
asI1387
(lp1352
I0
aI0
aI0
asI1388
(lp1353
I0
aI0
aI0
asI1389
(lp1354
I1
aI0
aI2
asI1390
(lp1355
I0
aI0
aI0
asI1391
(lp1356
I0
aI0
aI0
asI1392
(lp1357
I0
aI0
aI0
asI1393
(lp1358
I0
aI0
aI1
asI1394
(lp1359
I0
aI0
aI0
asI1395
(lp1360
I0
aI0
aI0
asI1396
(lp1361
I0
aI0
aI0
asI1397
(lp1362
I0
aI0
aI0
asI1398
(lp1363
I0
aI0
aI4
asI1399
(lp1364
I0
aI0
aI0
asI1400
(lp1365
I0
aI0
aI0
asI1401
(lp1366
I0
aI0
aI0
asI1402
(lp1367
I2
aI5
aI359
asI1403
(lp1368
I0
aI0
aI0
asI1404
(lp1369
I0
aI0
aI0
asI1405
(lp1370
I1
aI57
aI134
asI1406
(lp1371
I4
aI0
aI7
asI1407
(lp1372
I0
aI0
aI0
asI1408
(lp1373
I0
aI0
aI0
asI1409
(lp1374
I0
aI0
aI1
asI1410
(lp1375
I8
aI3
aI3
asI1411
(lp1376
I0
aI0
aI2
asI1412
(lp1377
I0
aI0
aI0
asI1413
(lp1378
I0
aI0
aI1
asI1414
(lp1379
I0
aI0
aI0
asI1415
(lp1380
I0
aI0
aI0
asI1416
(lp1381
I0
aI0
aI0
asI1417
(lp1382
I5
aI2
aI4
asI1418
(lp1383
I0
aI0
aI0
asI1419
(lp1384
I0
aI0
aI0
asI1420
(lp1385
I0
aI0
aI12
asI1422
(lp1386
I0
aI0
aI0
asI1423
(lp1387
I0
aI0
aI0
asI1424
(lp1388
I0
aI0
aI0
asI1425
(lp1389
I0
aI0
aI0
asI1426
(lp1390
I0
aI0
aI0
asI1427
(lp1391
I0
aI0
aI0
asI1428
(lp1392
I0
aI0
aI0
asI1429
(lp1393
I0
aI0
aI0
asI1430
(lp1394
I5
aI5
aI153
asI1431
(lp1395
I0
aI0
aI0
asI1432
(lp1396
I0
aI0
aI0
asI1433
(lp1397
I0
aI0
aI11
asI1434
(lp1398
I0
aI0
aI7
asI1435
(lp1399
I0
aI0
aI0
asI1436
(lp1400
I0
aI0
aI0
asI1437
(lp1401
I0
aI0
aI0
asI1438
(lp1402
I1
aI1
aI0
asI1439
(lp1403
I0
aI0
aI0
asI1440
(lp1404
I0
aI0
aI0
asI1441
(lp1405
I0
aI0
aI0
asI1442
(lp1406
I0
aI0
aI1
asI1443
(lp1407
I8
aI0
aI12
asI1444
(lp1408
I0
aI0
aI0
asI1445
(lp1409
I0
aI0
aI0
asI1446
(lp1410
I0
aI0
aI0
asI1447
(lp1411
I0
aI0
aI0
asI1448
(lp1412
I0
aI0
aI0
asI1449
(lp1413
I0
aI0
aI6
asI1450
(lp1414
I1
aI0
aI1
asI1451
(lp1415
I1
aI0
aI0
asI1452
(lp1416
I0
aI1
aI12
asI1453
(lp1417
I2
aI4
aI392
asI1454
(lp1418
I0
aI0
aI0
asI1455
(lp1419
I0
aI0
aI0
asI1456
(lp1420
I0
aI0
aI4
asI1457
(lp1421
I0
aI0
aI0
asI1458
(lp1422
I0
aI0
aI0
asI1459
(lp1423
I0
aI0
aI3
asI1460
(lp1424
I0
aI0
aI0
asI1461
(lp1425
I1
aI0
aI2
asI1462
(lp1426
I0
aI0
aI0
asI1463
(lp1427
I1
aI1
aI0
asI1464
(lp1428
I2
aI0
aI1
asI1465
(lp1429
I0
aI0
aI0
asI1466
(lp1430
I0
aI0
aI0
asI1467
(lp1431
I0
aI0
aI0
asI1468
(lp1432
I0
aI0
aI4
asI1469
(lp1433
I0
aI0
aI0
asI1470
(lp1434
I0
aI0
aI0
asI1471
(lp1435
I0
aI0
aI1
asI1472
(lp1436
I3
aI5
aI13
asI1473
(lp1437
I0
aI0
aI0
asI1474
(lp1438
I0
aI0
aI0
asI1475
(lp1439
I0
aI0
aI0
asI1476
(lp1440
I0
aI0
aI0
asI1477
(lp1441
I0
aI0
aI2
asI1478
(lp1442
I0
aI0
aI0
asI1479
(lp1443
I1
aI0
aI3
asI1480
(lp1444
I0
aI0
aI2
asI1481
(lp1445
I0
aI0
aI1
asI1482
(lp1446
I0
aI0
aI0
asI1483
(lp1447
I0
aI0
aI0
asI1484
(lp1448
I0
aI0
aI0
asI1485
(lp1449
I0
aI0
aI12
asI1486
(lp1450
I0
aI0
aI0
asI1487
(lp1451
I1
aI0
aI3
asI1488
(lp1452
I0
aI0
aI0
asI1489
(lp1453
I1
aI0
aI1
asI1490
(lp1454
I0
aI0
aI0
asI1491
(lp1455
I0
aI0
aI0
asI1492
(lp1456
I0
aI0
aI0
asI1493
(lp1457
I1
aI0
aI5
asI1494
(lp1458
I0
aI0
aI0
asI1495
(lp1459
I0
aI0
aI2
asI1496
(lp1460
I0
aI0
aI0
asI1497
(lp1461
I0
aI0
aI0
asI1498
(lp1462
I0
aI1
aI2
asI1499
(lp1463
I0
aI0
aI0
asI1500
(lp1464
I0
aI0
aI0
asI1501
(lp1465
I0
aI0
aI0
asI1502
(lp1466
I0
aI0
aI0
asI1503
(lp1467
I1
aI0
aI0
asI1504
(lp1468
I0
aI0
aI0
asI1505
(lp1469
I0
aI0
aI0
asI1506
(lp1470
I0
aI0
aI0
asI1507
(lp1471
I1
aI0
aI1
asI1508
(lp1472
I0
aI0
aI0
asI1509
(lp1473
I0
aI0
aI0
asI1510
(lp1474
I0
aI0
aI0
asI1511
(lp1475
I0
aI0
aI0
asI1512
(lp1476
I0
aI0
aI0
asI1513
(lp1477
I0
aI0
aI0
asI1514
(lp1478
I0
aI0
aI0
asI1515
(lp1479
I0
aI0
aI0
asI1516
(lp1480
I0
aI0
aI0
asI1517
(lp1481
I0
aI0
aI0
asI1518
(lp1482
I2
aI1
aI3
asI1519
(lp1483
I0
aI0
aI0
asI1521
(lp1484
I0
aI0
aI39
asI1522
(lp1485
I0
aI0
aI0
asI1523
(lp1486
I0
aI0
aI0
asI1524
(lp1487
I0
aI0
aI0
asI1525
(lp1488
I0
aI0
aI0
asI1526
(lp1489
I6
aI0
aI1
asI1527
(lp1490
I0
aI1
aI0
asI1528
(lp1491
I0
aI1
aI2
asI1529
(lp1492
I0
aI0
aI3
asI1530
(lp1493
I0
aI0
aI0
asI1531
(lp1494
I0
aI0
aI0
asI1532
(lp1495
I1
aI0
aI1
asI1533
(lp1496
I0
aI0
aI0
asI1534
(lp1497
I0
aI0
aI0
asI1535
(lp1498
I0
aI0
aI0
asI1536
(lp1499
I0
aI0
aI2
asI1537
(lp1500
I0
aI0
aI0
asI1538
(lp1501
I0
aI0
aI0
asI1539
(lp1502
I1
aI0
aI2
asI1540
(lp1503
I0
aI0
aI0
asI1541
(lp1504
I1
aI0
aI0
asI1542
(lp1505
I2
aI0
aI4
asI1543
(lp1506
I2
aI8
aI60
asI1545
(lp1507
I0
aI1
aI2
asI1546
(lp1508
I0
aI0
aI0
asI1547
(lp1509
I0
aI0
aI0
asI1548
(lp1510
I0
aI0
aI2
asI1550
(lp1511
I0
aI0
aI0
asI1551
(lp1512
I0
aI0
aI16
asI1552
(lp1513
I1
aI0
aI3
asI1553
(lp1514
I2
aI1
aI3
asI1554
(lp1515
I0
aI0
aI4
asI1555
(lp1516
I0
aI0
aI0
asI1557
(lp1517
I0
aI0
aI1
asI1558
(lp1518
I1
aI1
aI8
asI1559
(lp1519
I0
aI0
aI0
asI1560
(lp1520
I0
aI0
aI0
asI1561
(lp1521
I0
aI0
aI0
asI1562
(lp1522
I0
aI0
aI0
asI1563
(lp1523
I0
aI0
aI0
asI1564
(lp1524
I0
aI0
aI0
asI1565
(lp1525
I0
aI0
aI0
asI1566
(lp1526
I0
aI0
aI0
asI1567
(lp1527
I0
aI0
aI0
asI1568
(lp1528
I0
aI0
aI0
asI1569
(lp1529
I0
aI9
aI0
asI1570
(lp1530
I0
aI0
aI0
asI1571
(lp1531
I0
aI0
aI0
asI1572
(lp1532
I0
aI0
aI2
asI1573
(lp1533
I0
aI0
aI0
asI1574
(lp1534
I0
aI0
aI0
asI1575
(lp1535
I0
aI0
aI2
asI1576
(lp1536
I0
aI0
aI0
asI1577
(lp1537
I0
aI42
aI222
asI1578
(lp1538
I0
aI0
aI0
asI1579
(lp1539
I0
aI0
aI0
asI1580
(lp1540
I0
aI0
aI0
asI1581
(lp1541
I0
aI0
aI0
asI1582
(lp1542
I0
aI0
aI3
asI1583
(lp1543
I0
aI0
aI0
asI1584
(lp1544
I0
aI0
aI0
asI1585
(lp1545
I0
aI0
aI3
asI1586
(lp1546
I0
aI0
aI0
asI1587
(lp1547
I0
aI0
aI2
asI1588
(lp1548
I0
aI0
aI0
asI1589
(lp1549
I0
aI0
aI0
asI1590
(lp1550
I0
aI0
aI0
asI1591
(lp1551
I0
aI0
aI0
asI1592
(lp1552
I0
aI0
aI0
asI1593
(lp1553
I0
aI0
aI0
asI1594
(lp1554
I0
aI0
aI0
asI1595
(lp1555
I0
aI0
aI0
asI1596
(lp1556
I1
aI0
aI1
asI1597
(lp1557
I0
aI0
aI0
asI1598
(lp1558
I0
aI0
aI2
asI1599
(lp1559
I0
aI0
aI0
asI1600
(lp1560
I0
aI0
aI0
asI1601
(lp1561
I0
aI0
aI0
asI1602
(lp1562
I0
aI0
aI0
asI1603
(lp1563
I0
aI0
aI0
asI1604
(lp1564
I0
aI0
aI0
asI1605
(lp1565
I0
aI0
aI0
asI1606
(lp1566
I0
aI0
aI0
asI1607
(lp1567
I0
aI0
aI0
asI1608
(lp1568
I0
aI0
aI10
asI1609
(lp1569
I0
aI0
aI0
asI1610
(lp1570
I0
aI0
aI0
asI1611
(lp1571
I0
aI0
aI0
asI1612
(lp1572
I1
aI0
aI1
asI1613
(lp1573
I0
aI0
aI0
asI1614
(lp1574
I0
aI0
aI0
asI1615
(lp1575
I0
aI0
aI0
asI1616
(lp1576
I2
aI4
aI33
asI1617
(lp1577
I0
aI0
aI0
asI1618
(lp1578
I0
aI0
aI0
asI1619
(lp1579
I0
aI0
aI0
asI1620
(lp1580
I3
aI0
aI1
asI1621
(lp1581
I0
aI0
aI0
asI1622
(lp1582
I0
aI0
aI0
asI1623
(lp1583
I1
aI1
aI3
asI1624
(lp1584
I0
aI0
aI0
asI1625
(lp1585
I0
aI0
aI2
asI1626
(lp1586
I0
aI0
aI0
asI1627
(lp1587
I0
aI0
aI0
asI1628
(lp1588
I0
aI0
aI0
asI1629
(lp1589
I0
aI0
aI0
asI1630
(lp1590
I0
aI0
aI0
asI1631
(lp1591
I0
aI1
aI1
asI1632
(lp1592
I1
aI0
aI0
asI1633
(lp1593
I0
aI0
aI0
asI1634
(lp1594
I1
aI1
aI0
asI1635
(lp1595
I0
aI0
aI0
asI1636
(lp1596
I0
aI0
aI0
asI1637
(lp1597
I0
aI0
aI0
asI1638
(lp1598
I0
aI0
aI0
asI1639
(lp1599
I1
aI0
aI0
asI1640
(lp1600
I0
aI0
aI0
asI1641
(lp1601
I0
aI1
aI0
asI1642
(lp1602
I0
aI0
aI0
asI1643
(lp1603
I0
aI3
aI3
asI1644
(lp1604
I0
aI0
aI4
asI1645
(lp1605
I0
aI0
aI1
asI1646
(lp1606
I0
aI0
aI0
asI1647
(lp1607
I0
aI0
aI0
asI1648
(lp1608
I0
aI0
aI4
asI1649
(lp1609
I0
aI0
aI0
asI1650
(lp1610
I0
aI0
aI0
asI1651
(lp1611
I0
aI0
aI0
asI1652
(lp1612
I0
aI0
aI8
asI1653
(lp1613
I0
aI1
aI0
asI1654
(lp1614
I0
aI0
aI0
asI1655
(lp1615
I0
aI0
aI0
asI1656
(lp1616
I1
aI0
aI0
asI1657
(lp1617
I0
aI0
aI0
asI1658
(lp1618
I0
aI0
aI0
asI1659
(lp1619
I0
aI0
aI0
asI1660
(lp1620
I0
aI0
aI1
asI1661
(lp1621
I1
aI0
aI2
asI1662
(lp1622
I0
aI0
aI0
asI1663
(lp1623
I0
aI0
aI0
asI1664
(lp1624
I0
aI0
aI0
asI1665
(lp1625
I0
aI0
aI0
asI1667
(lp1626
I0
aI0
aI0
asI1668
(lp1627
I0
aI0
aI0
asI1669
(lp1628
I0
aI0
aI0
asI1670
(lp1629
I0
aI0
aI0
asI1671
(lp1630
I0
aI0
aI0
asI1672
(lp1631
I0
aI16
aI4
asI1673
(lp1632
I0
aI0
aI17
asI1674
(lp1633
I0
aI0
aI0
asI1675
(lp1634
I0
aI0
aI0
asI1676
(lp1635
I0
aI0
aI0
asI1677
(lp1636
I0
aI0
aI0
asI1678
(lp1637
I0
aI0
aI0
asI1679
(lp1638
I0
aI0
aI0
asI1680
(lp1639
I0
aI0
aI0
asI1681
(lp1640
I0
aI0
aI6
asI1682
(lp1641
I4
aI1
aI17
asI1683
(lp1642
I0
aI0
aI0
asI1684
(lp1643
I0
aI0
aI5
asI1685
(lp1644
I1
aI0
aI0
asI1686
(lp1645
I0
aI0
aI0
asI1687
(lp1646
I1
aI0
aI1
asI1688
(lp1647
I2
aI4
aI1
asI1689
(lp1648
I0
aI0
aI0
asI1690
(lp1649
I3
aI1
aI3
asI1691
(lp1650
I0
aI4
aI6
asI1692
(lp1651
I0
aI0
aI0
asI1693
(lp1652
I0
aI0
aI0
asI1694
(lp1653
I0
aI0
aI0
asI1695
(lp1654
I1
aI0
aI0
asI1696
(lp1655
I0
aI0
aI0
asI1697
(lp1656
I0
aI0
aI0
asI1698
(lp1657
I0
aI0
aI0
asI1699
(lp1658
I0
aI0
aI0
asI1700
(lp1659
I0
aI0
aI0
asI1701
(lp1660
I0
aI0
aI0
asI1702
(lp1661
I0
aI0
aI0
asI1703
(lp1662
I0
aI0
aI0
asI1704
(lp1663
I0
aI0
aI0
asI1705
(lp1664
I2
aI2
aI2
asI1706
(lp1665
I0
aI0
aI0
asI1707
(lp1666
I0
aI0
aI0
asI1708
(lp1667
I0
aI0
aI43
asI1709
(lp1668
I0
aI0
aI2
asI1710
(lp1669
I0
aI1
aI0
asI1711
(lp1670
I0
aI0
aI0
asI1712
(lp1671
I0
aI0
aI0
asI1713
(lp1672
I0
aI0
aI0
asI1714
(lp1673
I0
aI0
aI0
asI1715
(lp1674
I0
aI0
aI0
asI1716
(lp1675
I0
aI0
aI2
asI1717
(lp1676
I0
aI2
aI2
asI1718
(lp1677
I0
aI0
aI0
asI1719
(lp1678
I0
aI0
aI0
asI1720
(lp1679
I0
aI0
aI3
asI1721
(lp1680
I0
aI0
aI0
asI1722
(lp1681
I0
aI0
aI0
asI1723
(lp1682
I0
aI0
aI0
asI1724
(lp1683
I0
aI0
aI0
asI1725
(lp1684
I1
aI0
aI1
asI1726
(lp1685
I3
aI0
aI13
asI1727
(lp1686
I0
aI0
aI3
asI1728
(lp1687
I0
aI0
aI2
asI1729
(lp1688
I0
aI0
aI0
asI1730
(lp1689
I0
aI0
aI0
asI1731
(lp1690
I0
aI0
aI0
asI1732
(lp1691
I0
aI0
aI0
asI1733
(lp1692
I1
aI0
aI73
asI1734
(lp1693
I0
aI0
aI2
asI1735
(lp1694
I0
aI2
aI6
asI1736
(lp1695
I1
aI0
aI0
asI1737
(lp1696
I0
aI0
aI0
asI1738
(lp1697
I0
aI0
aI1
asI1739
(lp1698
I0
aI0
aI0
asI1740
(lp1699
I0
aI0
aI0
asI1741
(lp1700
I0
aI0
aI0
asI1742
(lp1701
I0
aI0
aI1
asI1744
(lp1702
I0
aI0
aI0
asI1745
(lp1703
I0
aI0
aI0
asI1746
(lp1704
I1
aI1
aI11
asI1747
(lp1705
I1
aI0
aI1
asI1748
(lp1706
I0
aI0
aI0
asI1749
(lp1707
I0
aI0
aI0
asI1750
(lp1708
I0
aI0
aI0
asI1751
(lp1709
I0
aI0
aI0
asI1752
(lp1710
I0
aI0
aI0
asI1753
(lp1711
I0
aI0
aI4
asI1754
(lp1712
I0
aI0
aI0
asI1755
(lp1713
I0
aI0
aI0
asI1756
(lp1714
I0
aI0
aI0
asI1757
(lp1715
I0
aI0
aI0
asI1758
(lp1716
I0
aI0
aI0
asI1759
(lp1717
I0
aI0
aI0
asI1760
(lp1718
I0
aI0
aI0
asI1761
(lp1719
I0
aI0
aI0
asI1762
(lp1720
I1
aI0
aI1
asI1763
(lp1721
I0
aI0
aI4
asI1764
(lp1722
I0
aI0
aI1
asI1765
(lp1723
I0
aI0
aI0
asI1766
(lp1724
I0
aI0
aI0
asI1767
(lp1725
I0
aI0
aI0
asI1768
(lp1726
I0
aI0
aI0
asI1769
(lp1727
I0
aI0
aI0
asI1770
(lp1728
I0
aI0
aI0
asI1771
(lp1729
I0
aI0
aI0
asI1772
(lp1730
I0
aI0
aI0
asI1773
(lp1731
I0
aI0
aI0
asI1774
(lp1732
I0
aI0
aI2
asI1775
(lp1733
I0
aI0
aI0
asI1776
(lp1734
I0
aI0
aI0
asI1777
(lp1735
I0
aI0
aI0
asI1778
(lp1736
I0
aI0
aI0
asI1779
(lp1737
I0
aI0
aI0
asI1780
(lp1738
I0
aI0
aI0
asI1781
(lp1739
I0
aI0
aI0
asI1782
(lp1740
I0
aI6
aI7
asI1783
(lp1741
I0
aI0
aI0
asI1784
(lp1742
I0
aI0
aI0
asI1785
(lp1743
I0
aI0
aI0
asI1786
(lp1744
I0
aI0
aI0
asI1787
(lp1745
I2
aI0
aI0
asI1788
(lp1746
I4
aI2
aI4
asI1789
(lp1747
I0
aI0
aI0
asI1790
(lp1748
I0
aI0
aI0
asI1791
(lp1749
I0
aI0
aI0
asI1792
(lp1750
I0
aI0
aI0
asI1793
(lp1751
I0
aI0
aI0
asI1794
(lp1752
I0
aI0
aI0
asI1795
(lp1753
I0
aI0
aI0
asI1796
(lp1754
I0
aI0
aI0
asI1797
(lp1755
I0
aI0
aI0
asI1798
(lp1756
I0
aI0
aI0
asI1799
(lp1757
I0
aI0
aI0
asI1800
(lp1758
I2
aI116
aI78
asI1801
(lp1759
I0
aI0
aI0
asI1802
(lp1760
I0
aI0
aI0
asI1803
(lp1761
I0
aI0
aI0
asI1804
(lp1762
I0
aI0
aI0
asI1805
(lp1763
I0
aI0
aI0
asI1806
(lp1764
I1
aI0
aI0
asI1807
(lp1765
I0
aI0
aI0
asI1808
(lp1766
I0
aI0
aI0
asI1809
(lp1767
I1
aI1
aI0
asI1810
(lp1768
I0
aI0
aI2
asI1811
(lp1769
I0
aI0
aI0
asI1812
(lp1770
I0
aI0
aI0
asI1813
(lp1771
I0
aI0
aI0
asI1814
(lp1772
I0
aI1
aI6
asI1815
(lp1773
I0
aI0
aI0
asI1817
(lp1774
I0
aI0
aI3
asI1818
(lp1775
I0
aI0
aI7
asI1819
(lp1776
I1
aI0
aI1
asI1820
(lp1777
I1
aI0
aI0
asI1821
(lp1778
I30
aI96
aI450
asI1822
(lp1779
I0
aI0
aI0
asI1823
(lp1780
I0
aI0
aI0
asI1824
(lp1781
I0
aI0
aI0
asI1825
(lp1782
I1
aI0
aI0
asI1826
(lp1783
I0
aI0
aI2
asI1827
(lp1784
I0
aI0
aI1
asI1828
(lp1785
I1
aI2
aI50
asI1829
(lp1786
I0
aI0
aI0
asI1830
(lp1787
I0
aI0
aI0
asI1831
(lp1788
I0
aI0
aI0
asI1832
(lp1789
I0
aI1
aI0
asI1833
(lp1790
I0
aI0
aI0
asI1834
(lp1791
I0
aI0
aI0
asI1835
(lp1792
I0
aI0
aI1
asI1836
(lp1793
I0
aI0
aI0
asI1837
(lp1794
I1
aI0
aI0
asI1838
(lp1795
I0
aI0
aI0
asI1839
(lp1796
I0
aI0
aI4
asI1840
(lp1797
I0
aI0
aI4
asI1841
(lp1798
I42
aI136
aI586
asI1842
(lp1799
I3
aI1
aI1
asI1843
(lp1800
I0
aI0
aI0
asI1844
(lp1801
I0
aI0
aI1
asI1846
(lp1802
I0
aI0
aI4
asI1847
(lp1803
I0
aI1
aI6
asI1848
(lp1804
I0
aI0
aI0
asI1849
(lp1805
I0
aI0
aI0
asI1850
(lp1806
I0
aI0
aI0
asI1851
(lp1807
I0
aI0
aI0
asI1852
(lp1808
I0
aI0
aI0
asI1853
(lp1809
I0
aI0
aI0
asI1854
(lp1810
I1
aI0
aI0
asI1855
(lp1811
I4
aI0
aI2
asI1856
(lp1812
I0
aI0
aI0
asI1857
(lp1813
I0
aI0
aI0
asI1858
(lp1814
I0
aI0
aI10
asI1859
(lp1815
I0
aI0
aI0
asI1860
(lp1816
I1
aI0
aI1
asI1861
(lp1817
I0
aI0
aI0
asI1862
(lp1818
I1
aI0
aI15
asI1863
(lp1819
I0
aI0
aI0
asI1864
(lp1820
I0
aI0
aI1
asI1865
(lp1821
I0
aI0
aI0
asI1866
(lp1822
I0
aI0
aI0
asI1868
(lp1823
I0
aI0
aI0
asI1869
(lp1824
I1
aI0
aI0
asI1870
(lp1825
I0
aI0
aI0
asI1871
(lp1826
I0
aI0
aI0
asI1872
(lp1827
I3
aI2
aI2
asI1873
(lp1828
I0
aI0
aI0
asI1874
(lp1829
I0
aI0
aI0
asI1876
(lp1830
I0
aI0
aI0
asI1877
(lp1831
I0
aI0
aI2
asI1878
(lp1832
I0
aI0
aI0
asI1879
(lp1833
I0
aI0
aI0
asI1880
(lp1834
I0
aI0
aI0
asI1881
(lp1835
I2
aI0
aI1
asI1882
(lp1836
I1
aI0
aI18
asI1883
(lp1837
I0
aI0
aI0
asI1884
(lp1838
I0
aI0
aI0
asI1885
(lp1839
I0
aI0
aI0
asI1886
(lp1840
I0
aI0
aI0
asI1887
(lp1841
I0
aI0
aI0
asI1888
(lp1842
I0
aI0
aI0
asI1889
(lp1843
I0
aI0
aI0
asI1890
(lp1844
I1
aI0
aI1
asI1891
(lp1845
I0
aI0
aI0
asI1892
(lp1846
I1
aI2
aI4
asI1893
(lp1847
I0
aI0
aI0
asI1894
(lp1848
I0
aI0
aI1
asI1895
(lp1849
I0
aI0
aI0
asI1896
(lp1850
I0
aI1
aI4
asI1897
(lp1851
I0
aI0
aI0
asI1898
(lp1852
I0
aI0
aI0
asI1899
(lp1853
I0
aI0
aI0
asI1900
(lp1854
I0
aI0
aI0
asI1901
(lp1855
I0
aI0
aI1
asI1902
(lp1856
I0
aI0
aI3
asI1903
(lp1857
I0
aI0
aI0
asI1904
(lp1858
I0
aI0
aI0
asI1905
(lp1859
I0
aI0
aI0
asI1906
(lp1860
I0
aI0
aI1
asI1907
(lp1861
I1
aI0
aI0
asI1908
(lp1862
I0
aI0
aI0
asI1909
(lp1863
I0
aI0
aI3
asI1910
(lp1864
I0
aI0
aI0
asI1911
(lp1865
I0
aI0
aI1
asI1912
(lp1866
I0
aI0
aI0
asI1913
(lp1867
I0
aI0
aI0
asI1914
(lp1868
I0
aI0
aI0
asI1915
(lp1869
I0
aI0
aI0
asI1916
(lp1870
I0
aI0
aI2
asI1917
(lp1871
I0
aI0
aI0
asI1918
(lp1872
I0
aI0
aI0
asI1919
(lp1873
I0
aI0
aI0
asI1920
(lp1874
I0
aI0
aI0
asI1921
(lp1875
I1
aI0
aI1
asI1922
(lp1876
I0
aI0
aI0
asI1923
(lp1877
I0
aI0
aI0
asI1924
(lp1878
I0
aI0
aI0
asI1925
(lp1879
I0
aI0
aI1
asI1926
(lp1880
I0
aI0
aI0
asI1927
(lp1881
I0
aI0
aI0
asI1928
(lp1882
I0
aI0
aI0
asI1929
(lp1883
I0
aI0
aI0
asI1930
(lp1884
I0
aI0
aI5
asI1931
(lp1885
I0
aI0
aI0
asI1932
(lp1886
I0
aI0
aI1
asI1933
(lp1887
I0
aI0
aI0
asI1934
(lp1888
I0
aI0
aI0
asI1935
(lp1889
I0
aI0
aI4
asI1936
(lp1890
I0
aI0
aI1
asI1937
(lp1891
I2
aI0
aI7
asI1938
(lp1892
I0
aI0
aI0
asI1939
(lp1893
I0
aI0
aI0
asI1940
(lp1894
I2
aI0
aI0
asI1941
(lp1895
I0
aI0
aI0
asI1942
(lp1896
I0
aI0
aI17
asI1943
(lp1897
I0
aI0
aI2
asI1944
(lp1898
I0
aI0
aI3
asI1945
(lp1899
I1
aI0
aI4
asI1946
(lp1900
I0
aI0
aI0
asI1947
(lp1901
I0
aI0
aI0
asI1949
(lp1902
I0
aI0
aI1
asI1950
(lp1903
I0
aI0
aI0
asI1951
(lp1904
I0
aI0
aI0
asI1952
(lp1905
I0
aI0
aI0
asI1953
(lp1906
I0
aI0
aI0
asI1954
(lp1907
I0
aI0
aI0
asI1955
(lp1908
I1
aI0
aI2
asI1956
(lp1909
I0
aI0
aI4
asI1957
(lp1910
I1
aI0
aI13
asI1958
(lp1911
I0
aI0
aI0
asI1959
(lp1912
I0
aI0
aI0
asI1960
(lp1913
I0
aI0
aI0
asI1961
(lp1914
I0
aI0
aI0
asI1962
(lp1915
I0
aI0
aI0
asI1963
(lp1916
I1
aI0
aI9
asI1964
(lp1917
I0
aI0
aI0
asI1965
(lp1918
I0
aI0
aI0
asI1966
(lp1919
I0
aI0
aI2
asI1967
(lp1920
I0
aI1
aI0
asI1968
(lp1921
I1
aI0
aI2
asI1969
(lp1922
I1
aI0
aI6
asI1970
(lp1923
I0
aI0
aI1
asI1971
(lp1924
I0
aI0
aI0
asI1972
(lp1925
I0
aI0
aI0
asI1973
(lp1926
I0
aI0
aI1
asI1974
(lp1927
I0
aI0
aI4
asI1975
(lp1928
I0
aI0
aI7
asI1976
(lp1929
I0
aI0
aI0
asI1977
(lp1930
I0
aI0
aI2
asI1978
(lp1931
I0
aI0
aI0
asI1979
(lp1932
I0
aI0
aI0
asI1980
(lp1933
I0
aI0
aI5
asI1981
(lp1934
I0
aI0
aI0
asI1982
(lp1935
I1
aI0
aI0
asI1983
(lp1936
I0
aI1
aI0
asI1984
(lp1937
I0
aI0
aI0
asI1985
(lp1938
I0
aI0
aI0
asI1986
(lp1939
I0
aI0
aI0
asI1987
(lp1940
I0
aI0
aI0
asI1988
(lp1941
I0
aI0
aI0
asI1989
(lp1942
I0
aI0
aI0
asI1990
(lp1943
I0
aI0
aI0
asI1991
(lp1944
I0
aI0
aI0
asI1992
(lp1945
I0
aI0
aI0
asI1993
(lp1946
I0
aI0
aI0
asI1994
(lp1947
I0
aI0
aI0
asI1995
(lp1948
I0
aI0
aI0
asI1996
(lp1949
I0
aI0
aI0
asI1997
(lp1950
I0
aI0
aI0
asI1998
(lp1951
I1
aI0
aI0
asI1999
(lp1952
I0
aI0
aI0
asI2000
(lp1953
I0
aI0
aI0
asI2001
(lp1954
I0
aI0
aI0
asI2002
(lp1955
I0
aI0
aI0
asI2003
(lp1956
I0
aI0
aI0
asI2004
(lp1957
I1
aI0
aI1
asI2005
(lp1958
I0
aI0
aI0
asI2006
(lp1959
I0
aI0
aI0
asI2007
(lp1960
I0
aI0
aI0
asI2008
(lp1961
I0
aI0
aI0
asI2009
(lp1962
I1
aI1
aI0
asI2010
(lp1963
I2
aI1
aI1
asI2011
(lp1964
I0
aI0
aI0
asI2012
(lp1965
I0
aI0
aI2
asI2013
(lp1966
I0
aI0
aI8
asI2014
(lp1967
I0
aI0
aI0
asI2015
(lp1968
I0
aI0
aI0
asI2016
(lp1969
I0
aI0
aI1
asI2017
(lp1970
I1
aI0
aI2
asI2018
(lp1971
I0
aI0
aI0
asI2019
(lp1972
I0
aI0
aI0
asI2020
(lp1973
I2
aI0
aI3
asI2021
(lp1974
I1
aI0
aI0
asI2022
(lp1975
I3
aI1
aI21
asI2023
(lp1976
I0
aI0
aI0
asI2024
(lp1977
I0
aI2
aI0
asI2025
(lp1978
I0
aI0
aI0
asI2026
(lp1979
I1
aI0
aI4
asI2027
(lp1980
I0
aI0
aI0
asI2028
(lp1981
I0
aI0
aI0
asI2029
(lp1982
I0
aI0
aI2
asI2030
(lp1983
I1
aI0
aI1
asI2032
(lp1984
I0
aI0
aI0
asI2033
(lp1985
I0
aI0
aI0
asI2034
(lp1986
I0
aI0
aI0
asI2035
(lp1987
I0
aI0
aI0
asI2036
(lp1988
I4
aI1
aI5
asI2037
(lp1989
I0
aI0
aI0
asI2038
(lp1990
I3
aI1
aI13
asI2039
(lp1991
I0
aI0
aI0
asI2040
(lp1992
I0
aI0
aI0
asI2041
(lp1993
I1
aI1
aI1
asI2042
(lp1994
I0
aI0
aI0
asI2043
(lp1995
I0
aI0
aI0
asI2044
(lp1996
I0
aI0
aI0
asI2045
(lp1997
I1
aI2
aI3
asI2046
(lp1998
I0
aI0
aI0
asI2047
(lp1999
I0
aI0
aI0
asI2048
(lp2000
I0
aI0
aI0
asI2050
(lp2001
I0
aI0
aI0
asI2051
(lp2002
I0
aI1
aI0
asI2052
(lp2003
I0
aI0
aI0
asI2053
(lp2004
I1
aI0
aI2
asI2054
(lp2005
I0
aI0
aI0
asI2055
(lp2006
I0
aI44
aI43
asI2056
(lp2007
I3
aI2
aI2
asI2057
(lp2008
I0
aI0
aI0
asI2058
(lp2009
I2
aI1
aI29
asI2059
(lp2010
I0
aI0
aI0
asI2060
(lp2011
I0
aI0
aI0
asI2061
(lp2012
I2
aI0
aI3
asI2062
(lp2013
I6
aI5
aI4
asI2063
(lp2014
I1
aI0
aI0
asI2064
(lp2015
I0
aI0
aI0
asI2065
(lp2016
I1
aI0
aI7
asI2066
(lp2017
I0
aI0
aI0
asI2067
(lp2018
I0
aI0
aI0
asI2068
(lp2019
I0
aI0
aI1
asI2069
(lp2020
I0
aI0
aI0
asI2070
(lp2021
I0
aI0
aI0
asI2071
(lp2022
I0
aI0
aI0
asI2072
(lp2023
I0
aI0
aI3
asI2073
(lp2024
I0
aI0
aI0
asI2074
(lp2025
I0
aI0
aI0
asI2075
(lp2026
I0
aI1
aI0
asI2076
(lp2027
I0
aI0
aI0
asI2077
(lp2028
I1
aI0
aI0
asI2078
(lp2029
I0
aI0
aI0
asI2079
(lp2030
I0
aI0
aI0
asI2080
(lp2031
I0
aI0
aI0
asI2081
(lp2032
I0
aI0
aI5
asI2082
(lp2033
I4
aI0
aI13
asI2083
(lp2034
I0
aI0
aI0
asI2084
(lp2035
I0
aI0
aI0
asI2085
(lp2036
I0
aI0
aI2
asI2086
(lp2037
I1
aI0
aI0
asI2087
(lp2038
I0
aI0
aI1
asI2088
(lp2039
I0
aI0
aI0
asI2089
(lp2040
I0
aI0
aI0
asI2090
(lp2041
I0
aI0
aI0
asI2091
(lp2042
I0
aI0
aI0
asI2092
(lp2043
I0
aI0
aI0
asI2093
(lp2044
I0
aI0
aI0
asI2094
(lp2045
I0
aI0
aI0
asI2095
(lp2046
I0
aI0
aI0
asI2096
(lp2047
I0
aI0
aI0
asI2098
(lp2048
I0
aI0
aI0
asI2099
(lp2049
I0
aI0
aI1
asI2100
(lp2050
I1
aI0
aI0
asI2101
(lp2051
I0
aI0
aI0
asI2102
(lp2052
I0
aI0
aI0
asI2103
(lp2053
I0
aI0
aI0
asI2104
(lp2054
I0
aI0
aI1
asI2105
(lp2055
I0
aI0
aI0
asI2106
(lp2056
I0
aI0
aI1
asI2107
(lp2057
I0
aI0
aI5
asI2108
(lp2058
I0
aI0
aI3
asI2109
(lp2059
I0
aI0
aI0
asI2110
(lp2060
I0
aI0
aI0
asI2111
(lp2061
I0
aI0
aI0
asI2112
(lp2062
I0
aI0
aI0
asI2113
(lp2063
I0
aI0
aI0
asI2114
(lp2064
I0
aI0
aI0
asI2115
(lp2065
I0
aI0
aI12
asI2116
(lp2066
I0
aI0
aI0
asI2117
(lp2067
I0
aI0
aI0
asI2118
(lp2068
I0
aI0
aI0
asI2119
(lp2069
I0
aI0
aI0
asI2120
(lp2070
I1
aI0
aI0
asI2121
(lp2071
I0
aI0
aI0
asI2122
(lp2072
I0
aI0
aI0
asI2123
(lp2073
I0
aI0
aI0
asI2124
(lp2074
I0
aI0
aI0
asI2125
(lp2075
I0
aI0
aI0
asI2126
(lp2076
I0
aI0
aI0
asI2127
(lp2077
I0
aI0
aI0
asI2128
(lp2078
I0
aI0
aI0
asI2129
(lp2079
I3
aI1
aI0
asI2130
(lp2080
I1
aI0
aI0
asI2131
(lp2081
I4
aI1
aI3
asI2132
(lp2082
I0
aI0
aI10
asI2133
(lp2083
I0
aI0
aI0
asI2134
(lp2084
I0
aI0
aI0
asI2135
(lp2085
I0
aI0
aI0
asI2136
(lp2086
I0
aI0
aI2
asI2137
(lp2087
I0
aI0
aI0
asI2138
(lp2088
I0
aI0
aI0
asI2139
(lp2089
I0
aI0
aI0
asI2140
(lp2090
I0
aI0
aI0
asI2141
(lp2091
I1
aI0
aI1
asI2142
(lp2092
I0
aI0
aI0
asI2143
(lp2093
I0
aI1
aI0
asI2144
(lp2094
I0
aI0
aI0
asI2145
(lp2095
I1
aI0
aI0
asI2146
(lp2096
I0
aI0
aI2
asI2147
(lp2097
I0
aI0
aI0
asI2148
(lp2098
I0
aI0
aI0
asI2149
(lp2099
I0
aI0
aI3
asI2150
(lp2100
I0
aI0
aI0
asI2151
(lp2101
I0
aI0
aI1
asI2152
(lp2102
I0
aI0
aI0
asI2153
(lp2103
I0
aI0
aI0
asI2154
(lp2104
I0
aI1
aI0
asI2155
(lp2105
I0
aI0
aI0
asI2156
(lp2106
I0
aI0
aI0
asI2157
(lp2107
I0
aI0
aI0
asI2158
(lp2108
I0
aI0
aI0
asI2159
(lp2109
I0
aI0
aI2
asI2160
(lp2110
I1
aI0
aI2
asI2161
(lp2111
I0
aI0
aI0
asI2162
(lp2112
I0
aI0
aI0
asI2163
(lp2113
I0
aI0
aI0
asI2164
(lp2114
I0
aI0
aI0
asI2165
(lp2115
I0
aI0
aI0
asI2166
(lp2116
I0
aI0
aI0
asI2167
(lp2117
I0
aI0
aI0
asI2168
(lp2118
I1
aI1
aI0
asI2169
(lp2119
I0
aI0
aI0
asI2170
(lp2120
I3
aI2
aI11
asI2171
(lp2121
I0
aI0
aI0
asI2172
(lp2122
I0
aI2
aI5
asI2173
(lp2123
I0
aI0
aI0
asI2174
(lp2124
I0
aI0
aI0
asI2175
(lp2125
I0
aI0
aI2
asI2176
(lp2126
I0
aI0
aI0
asI2177
(lp2127
I2
aI0
aI0
asI2178
(lp2128
I0
aI0
aI1
asI2179
(lp2129
I1
aI0
aI2
asI2180
(lp2130
I0
aI0
aI2
asI2181
(lp2131
I0
aI0
aI0
asI2182
(lp2132
I0
aI0
aI0
asI2183
(lp2133
I0
aI0
aI0
asI2184
(lp2134
I0
aI0
aI0
asI2185
(lp2135
I0
aI0
aI0
asI2186
(lp2136
I0
aI0
aI0
asI2187
(lp2137
I0
aI0
aI0
asI2188
(lp2138
I0
aI0
aI0
asI2189
(lp2139
I0
aI9
aI15
asI2190
(lp2140
I0
aI0
aI0
asI2191
(lp2141
I1
aI0
aI1
asI2192
(lp2142
I0
aI0
aI0
asI2193
(lp2143
I0
aI0
aI0
asI2194
(lp2144
I0
aI0
aI0
asI2195
(lp2145
I0
aI0
aI0
asI2196
(lp2146
I0
aI0
aI0
asI2197
(lp2147
I0
aI0
aI0
asI2198
(lp2148
I0
aI0
aI0
asI2199
(lp2149
I3
aI0
aI3
asI2200
(lp2150
I0
aI0
aI0
asI2201
(lp2151
I0
aI0
aI0
asI2202
(lp2152
I0
aI0
aI2
asI2203
(lp2153
I0
aI0
aI0
asI2204
(lp2154
I0
aI0
aI0
asI2205
(lp2155
I0
aI0
aI3
asI2206
(lp2156
I4
aI1
aI20
asI2207
(lp2157
I4
aI0
aI4
asI2208
(lp2158
I0
aI0
aI0
asI2209
(lp2159
I0
aI0
aI0
asI2210
(lp2160
I0
aI0
aI0
asI2211
(lp2161
I0
aI0
aI0
asI2212
(lp2162
I0
aI0
aI4
asI2213
(lp2163
I0
aI0
aI0
asI2214
(lp2164
I0
aI0
aI2
asI2215
(lp2165
I0
aI0
aI0
asI2216
(lp2166
I0
aI0
aI0
asI2217
(lp2167
I0
aI0
aI0
asI2218
(lp2168
I0
aI1
aI0
asI2219
(lp2169
I0
aI0
aI0
asI2220
(lp2170
I0
aI1
aI0
asI2221
(lp2171
I4
aI2
aI32
asI2222
(lp2172
I0
aI0
aI0
asI2223
(lp2173
I0
aI0
aI1
asI2224
(lp2174
I0
aI0
aI0
asI2225
(lp2175
I0
aI0
aI0
asI2226
(lp2176
I0
aI0
aI3
asI2227
(lp2177
I0
aI0
aI0
asI2228
(lp2178
I0
aI0
aI0
asI2230
(lp2179
I0
aI0
aI0
asI2231
(lp2180
I0
aI0
aI1
asI2232
(lp2181
I0
aI0
aI0
asI2233
(lp2182
I0
aI0
aI0
asI2234
(lp2183
I0
aI0
aI0
asI2235
(lp2184
I0
aI0
aI0
asI2236
(lp2185
I0
aI0
aI0
asI2237
(lp2186
I0
aI0
aI3
asI2238
(lp2187
I0
aI0
aI0
asI2239
(lp2188
I0
aI0
aI0
asI2240
(lp2189
I0
aI0
aI0
asI2241
(lp2190
I0
aI0
aI4
asI2242
(lp2191
I0
aI0
aI0
asI2243
(lp2192
I0
aI0
aI0
asI2244
(lp2193
I0
aI1
aI21
asI2245
(lp2194
I0
aI0
aI0
asI2246
(lp2195
I0
aI0
aI0
asI2247
(lp2196
I0
aI0
aI0
asI2248
(lp2197
I0
aI0
aI2
asI2249
(lp2198
I0
aI0
aI0
asI2250
(lp2199
I0
aI0
aI0
asI2251
(lp2200
I0
aI0
aI1
asI2252
(lp2201
I1
aI1
aI5
asI2253
(lp2202
I0
aI0
aI0
asI2254
(lp2203
I0
aI0
aI0
asI2255
(lp2204
I0
aI0
aI0
asI2256
(lp2205
I0
aI0
aI0
asI2257
(lp2206
I0
aI1
aI0
asI2258
(lp2207
I0
aI0
aI1
asI2259
(lp2208
I0
aI0
aI0
asI2260
(lp2209
I0
aI0
aI0
asI2261
(lp2210
I0
aI0
aI0
asI2262
(lp2211
I0
aI0
aI0
asI2263
(lp2212
I0
aI1
aI0
asI2264
(lp2213
I0
aI0
aI0
asI2265
(lp2214
I0
aI0
aI0
asI2267
(lp2215
I0
aI0
aI0
asI2268
(lp2216
I0
aI0
aI0
asI2269
(lp2217
I0
aI0
aI0
asI2270
(lp2218
I1
aI1
aI3
asI2271
(lp2219
I0
aI0
aI0
asI2272
(lp2220
I0
aI0
aI0
asI2273
(lp2221
I0
aI0
aI0
asI2274
(lp2222
I0
aI0
aI0
asI2275
(lp2223
I0
aI0
aI0
asI2276
(lp2224
I2
aI0
aI5
asI2277
(lp2225
I2
aI1
aI1
asI2278
(lp2226
I0
aI0
aI1
asI2279
(lp2227
I0
aI1
aI3
asI2280
(lp2228
I0
aI0
aI0
asI2281
(lp2229
I0
aI1
aI0
asI2282
(lp2230
I0
aI0
aI0
asI2283
(lp2231
I1
aI4
aI1
asI2284
(lp2232
I0
aI0
aI0
asI2285
(lp2233
I0
aI0
aI0
asI2286
(lp2234
I0
aI0
aI0
asI2287
(lp2235
I1
aI0
aI1
asI2288
(lp2236
I0
aI0
aI0
asI2289
(lp2237
I1
aI0
aI1
asI2290
(lp2238
I0
aI0
aI2
asI2291
(lp2239
I0
aI0
aI0
asI2292
(lp2240
I0
aI0
aI0
asI2293
(lp2241
I0
aI0
aI1
asI2294
(lp2242
I0
aI0
aI0
asI2295
(lp2243
I1
aI3
aI15
asI2296
(lp2244
I1
aI0
aI0
asI2297
(lp2245
I0
aI0
aI1
asI2298
(lp2246
I0
aI0
aI0
asI2299
(lp2247
I0
aI0
aI0
asI2300
(lp2248
I0
aI0
aI0
asI2301
(lp2249
I1
aI1
aI24
asI2302
(lp2250
I0
aI0
aI0
asI2303
(lp2251
I1
aI10
aI30
asI2304
(lp2252
I0
aI0
aI1
asI2305
(lp2253
I0
aI0
aI0
asI2306
(lp2254
I0
aI0
aI0
asI2307
(lp2255
I0
aI0
aI0
asI2308
(lp2256
I0
aI0
aI1
asI2309
(lp2257
I0
aI0
aI1
asI2310
(lp2258
I0
aI0
aI0
asI2311
(lp2259
I1
aI1
aI1
asI2312
(lp2260
I9
aI0
aI13
asI2313
(lp2261
I0
aI26
aI131
asI2314
(lp2262
I0
aI0
aI5
asI2315
(lp2263
I0
aI0
aI9
asI2316
(lp2264
I0
aI0
aI0
asI2317
(lp2265
I0
aI0
aI0
asI2318
(lp2266
I0
aI0
aI0
asI2319
(lp2267
I0
aI0
aI0
asI2320
(lp2268
I0
aI0
aI1
asI2321
(lp2269
I0
aI0
aI0
asI2322
(lp2270
I0
aI0
aI0
asI2323
(lp2271
I0
aI0
aI0
asI2324
(lp2272
I0
aI0
aI0
asI2326
(lp2273
I0
aI0
aI0
asI2327
(lp2274
I0
aI0
aI0
asI2328
(lp2275
I0
aI0
aI0
asI2329
(lp2276
I1
aI0
aI41
asI2330
(lp2277
I0
aI0
aI0
asI2331
(lp2278
I0
aI0
aI0
asI2332
(lp2279
I1
aI0
aI0
asI2333
(lp2280
I0
aI0
aI0
asI2334
(lp2281
I1
aI0
aI9
asI2335
(lp2282
I0
aI0
aI5
asI2336
(lp2283
I0
aI0
aI0
asI2337
(lp2284
I0
aI0
aI0
asI2338
(lp2285
I0
aI0
aI2
asI2339
(lp2286
I2
aI1
aI7
asI2340
(lp2287
I0
aI0
aI0
asI2341
(lp2288
I0
aI0
aI0
asI2342
(lp2289
I0
aI0
aI0
asI2343
(lp2290
I0
aI1
aI0
asI2344
(lp2291
I0
aI0
aI0
asI2345
(lp2292
I0
aI0
aI0
asI2346
(lp2293
I0
aI1
aI0
asI2347
(lp2294
I1
aI1
aI1
asI2348
(lp2295
I0
aI0
aI0
asI2349
(lp2296
I1
aI0
aI0
asI2350
(lp2297
I0
aI0
aI0
asI2351
(lp2298
I0
aI0
aI0
asI2353
(lp2299
I1
aI0
aI1
asI2354
(lp2300
I13
aI4
aI21
asI2355
(lp2301
I0
aI0
aI0
asI2356
(lp2302
I0
aI0
aI0
asI2357
(lp2303
I2
aI0
aI11
asI2358
(lp2304
I0
aI0
aI0
asI2359
(lp2305
I0
aI0
aI0
asI2360
(lp2306
I0
aI0
aI3
asI2361
(lp2307
I0
aI0
aI0
asI2362
(lp2308
I1
aI0
aI1
asI2363
(lp2309
I0
aI0
aI0
asI2364
(lp2310
I0
aI0
aI0
asI2365
(lp2311
I0
aI0
aI0
asI2367
(lp2312
I0
aI0
aI0
asI2368
(lp2313
I0
aI0
aI0
asI2369
(lp2314
I7
aI0
aI5
asI2370
(lp2315
I0
aI0
aI0
asI2371
(lp2316
I0
aI0
aI0
asI2372
(lp2317
I1
aI0
aI1
asI2373
(lp2318
I0
aI0
aI0
asI2374
(lp2319
I2
aI3
aI5
asI2375
(lp2320
I0
aI0
aI0
asI2376
(lp2321
I0
aI0
aI2
asI2377
(lp2322
I0
aI20
aI0
asI2378
(lp2323
I0
aI0
aI0
asI2379
(lp2324
I0
aI0
aI0
asI2380
(lp2325
I0
aI0
aI0
asI2381
(lp2326
I0
aI0
aI0
asI2382
(lp2327
I0
aI0
aI0
asI2383
(lp2328
I0
aI0
aI0
asI2384
(lp2329
I0
aI0
aI0
asI2385
(lp2330
I0
aI0
aI2
asI2386
(lp2331
I0
aI0
aI0
asI2387
(lp2332
I0
aI0
aI4
asI2388
(lp2333
I0
aI0
aI0
asI2389
(lp2334
I0
aI0
aI0
asI2390
(lp2335
I0
aI0
aI0
asI2391
(lp2336
I0
aI0
aI0
asI2392
(lp2337
I0
aI0
aI0
asI2394
(lp2338
I0
aI0
aI10
asI2395
(lp2339
I0
aI0
aI0
asI2396
(lp2340
I0
aI0
aI0
asI2397
(lp2341
I0
aI0
aI0
asI2398
(lp2342
I1
aI0
aI0
asI2399
(lp2343
I2
aI0
aI0
asI2400
(lp2344
I0
aI0
aI0
asI2401
(lp2345
I0
aI0
aI0
asI2402
(lp2346
I0
aI0
aI0
asI2403
(lp2347
I0
aI0
aI0
asI2404
(lp2348
I0
aI0
aI0
asI2405
(lp2349
I0
aI0
aI4
asI2406
(lp2350
I0
aI0
aI0
asI2407
(lp2351
I1
aI0
aI0
asI2408
(lp2352
I0
aI0
aI2
asI2409
(lp2353
I0
aI0
aI1
asI2410
(lp2354
I0
aI0
aI0
asI2411
(lp2355
I0
aI0
aI0
asI2412
(lp2356
I0
aI0
aI3
asI2413
(lp2357
I0
aI0
aI0
asI2414
(lp2358
I0
aI0
aI0
asI2415
(lp2359
I0
aI0
aI0
asI2416
(lp2360
I0
aI0
aI0
asI2417
(lp2361
I0
aI0
aI2
asI2418
(lp2362
I0
aI0
aI2
asI2419
(lp2363
I0
aI0
aI0
asI2420
(lp2364
I0
aI0
aI0
asI2421
(lp2365
I0
aI0
aI1
asI2422
(lp2366
I0
aI0
aI0
asI2423
(lp2367
I0
aI0
aI0
asI2424
(lp2368
I0
aI0
aI0
asI2425
(lp2369
I1
aI2
aI1
asI2426
(lp2370
I0
aI0
aI0
asI2427
(lp2371
I0
aI0
aI0
asI2428
(lp2372
I0
aI0
aI0
asI2429
(lp2373
I0
aI0
aI0
asI2430
(lp2374
I0
aI0
aI0
asI2431
(lp2375
I0
aI0
aI1
asI2432
(lp2376
I0
aI0
aI0
asI2433
(lp2377
I0
aI0
aI0
asI2434
(lp2378
I0
aI0
aI0
asI2435
(lp2379
I0
aI0
aI0
asI2436
(lp2380
I0
aI0
aI0
asI2437
(lp2381
I0
aI0
aI0
asI2438
(lp2382
I0
aI0
aI0
asI2439
(lp2383
I0
aI0
aI0
asI2440
(lp2384
I0
aI0
aI1
asI2441
(lp2385
I0
aI0
aI1
asI2442
(lp2386
I0
aI0
aI3
asI2443
(lp2387
I0
aI0
aI2
asI2444
(lp2388
I0
aI0
aI0
asI2445
(lp2389
I0
aI0
aI2
asI2446
(lp2390
I0
aI0
aI6
asI2447
(lp2391
I0
aI0
aI0
asI2448
(lp2392
I0
aI0
aI2
asI2449
(lp2393
I0
aI0
aI0
asI2450
(lp2394
I0
aI0
aI0
asI2451
(lp2395
I0
aI0
aI0
asI2452
(lp2396
I2
aI0
aI0
asI2453
(lp2397
I0
aI0
aI0
asI2455
(lp2398
I1
aI0
aI4
asI2456
(lp2399
I0
aI0
aI0
asI2457
(lp2400
I0
aI0
aI0
asI2458
(lp2401
I0
aI0
aI0
asI2459
(lp2402
I0
aI0
aI0
asI2460
(lp2403
I0
aI1
aI0
asI2461
(lp2404
I0
aI0
aI0
asI2462
(lp2405
I0
aI0
aI0
asI2463
(lp2406
I0
aI0
aI0
asI2464
(lp2407
I1
aI0
aI0
asI2465
(lp2408
I0
aI0
aI0
asI2466
(lp2409
I1
aI0
aI2
asI2467
(lp2410
I0
aI0
aI0
asI2468
(lp2411
I0
aI0
aI0
asI2469
(lp2412
I0
aI0
aI0
asI2470
(lp2413
I0
aI0
aI0
asI2471
(lp2414
I0
aI1
aI0
asI2472
(lp2415
I0
aI1
aI0
asI2473
(lp2416
I0
aI0
aI0
asI2474
(lp2417
I0
aI0
aI0
asI2475
(lp2418
I1
aI2
aI6
asI2476
(lp2419
I0
aI3
aI3
asI2477
(lp2420
I0
aI0
aI0
asI2478
(lp2421
I0
aI0
aI0
asI2479
(lp2422
I1
aI4
aI5
asI2480
(lp2423
I0
aI0
aI0
asI2481
(lp2424
I0
aI0
aI0
asI2482
(lp2425
I0
aI0
aI0
asI2483
(lp2426
I0
aI0
aI0
asI2484
(lp2427
I0
aI0
aI0
asI2485
(lp2428
I0
aI0
aI0
asI2486
(lp2429
I0
aI0
aI0
asI2487
(lp2430
I0
aI0
aI0
asI2488
(lp2431
I2
aI0
aI4
asI2489
(lp2432
I0
aI0
aI1
asI2490
(lp2433
I0
aI0
aI0
asI2491
(lp2434
I0
aI0
aI0
asI2492
(lp2435
I0
aI0
aI0
asI2493
(lp2436
I0
aI0
aI0
asI2494
(lp2437
I0
aI0
aI0
asI2495
(lp2438
I0
aI0
aI0
asI2496
(lp2439
I0
aI0
aI0
asI2497
(lp2440
I1
aI0
aI0
asI2498
(lp2441
I1
aI1
aI5
asI2499
(lp2442
I0
aI0
aI0
asI2500
(lp2443
I1
aI2
aI0
asI2501
(lp2444
I0
aI0
aI0
asI2502
(lp2445
I0
aI0
aI1
asI2503
(lp2446
I0
aI0
aI4
asI2504
(lp2447
I0
aI0
aI0
asI2505
(lp2448
I0
aI0
aI0
asI2506
(lp2449
I0
aI0
aI0
asI2507
(lp2450
I0
aI0
aI5
asI2508
(lp2451
I0
aI0
aI0
asI2510
(lp2452
I1
aI2
aI2
asI2511
(lp2453
I3
aI0
aI0
asI2512
(lp2454
I2
aI0
aI3
asI2513
(lp2455
I1
aI0
aI2
asI2514
(lp2456
I3
aI1
aI4
asI2515
(lp2457
I0
aI0
aI0
asI2516
(lp2458
I0
aI0
aI0
asI2517
(lp2459
I0
aI0
aI0
asI2518
(lp2460
I0
aI0
aI0
asI2519
(lp2461
I0
aI0
aI0
asI2520
(lp2462
I0
aI0
aI0
asI2521
(lp2463
I0
aI0
aI0
asI2522
(lp2464
I0
aI0
aI0
asI2523
(lp2465
I0
aI0
aI0
asI2524
(lp2466
I1
aI1
aI0
asI2525
(lp2467
I0
aI0
aI0
asI2526
(lp2468
I0
aI0
aI2
asI2527
(lp2469
I0
aI0
aI0
asI2528
(lp2470
I0
aI0
aI0
asI2529
(lp2471
I0
aI0
aI0
asI2530
(lp2472
I3
aI0
aI0
asI2531
(lp2473
I1
aI0
aI1
asI2532
(lp2474
I0
aI0
aI0
asI2533
(lp2475
I0
aI0
aI0
asI2534
(lp2476
I0
aI0
aI0
asI2535
(lp2477
I0
aI0
aI0
asI2536
(lp2478
I0
aI0
aI0
asI2537
(lp2479
I0
aI0
aI0
asI2538
(lp2480
I0
aI0
aI0
asI2539
(lp2481
I0
aI0
aI0
asI2540
(lp2482
I0
aI0
aI0
asI2541
(lp2483
I2
aI0
aI5
asI2543
(lp2484
I1
aI0
aI0
asI2544
(lp2485
I0
aI0
aI0
asI2545
(lp2486
I1
aI0
aI1
asI2546
(lp2487
I0
aI0
aI0
asI2547
(lp2488
I0
aI0
aI0
asI2548
(lp2489
I1
aI0
aI4
asI2549
(lp2490
I0
aI0
aI0
asI2550
(lp2491
I0
aI0
aI0
asI2551
(lp2492
I0
aI0
aI0
asI2552
(lp2493
I0
aI0
aI0
asI2553
(lp2494
I0
aI0
aI0
asI2554
(lp2495
I1
aI0
aI0
asI2555
(lp2496
I0
aI0
aI0
asI2556
(lp2497
I0
aI0
aI0
asI2557
(lp2498
I0
aI0
aI0
asI2558
(lp2499
I0
aI0
aI0
asI2559
(lp2500
I1
aI0
aI0
asI2560
(lp2501
I2
aI0
aI0
asI2561
(lp2502
I0
aI0
aI2
asI2562
(lp2503
I4
aI0
aI15
asI2563
(lp2504
I0
aI0
aI0
asI2564
(lp2505
I0
aI0
aI0
asI2565
(lp2506
I0
aI0
aI0
asI2566
(lp2507
I0
aI1
aI0
asI2567
(lp2508
I0
aI0
aI0
asI2568
(lp2509
I0
aI0
aI6
asI2569
(lp2510
I0
aI0
aI0
asI2570
(lp2511
I0
aI0
aI0
asI2571
(lp2512
I0
aI1
aI0
asI2572
(lp2513
I1
aI1
aI0
asI2573
(lp2514
I1
aI0
aI3
asI2575
(lp2515
I0
aI0
aI0
asI2577
(lp2516
I0
aI0
aI0
asI2578
(lp2517
I0
aI0
aI0
asI2579
(lp2518
I0
aI0
aI3
asI2580
(lp2519
I0
aI0
aI0
asI2581
(lp2520
I0
aI0
aI0
asI2582
(lp2521
I0
aI1
aI3
asI2583
(lp2522
I0
aI0
aI0
asI2584
(lp2523
I0
aI0
aI0
asI2585
(lp2524
I0
aI0
aI0
asI2586
(lp2525
I0
aI0
aI0
asI2587
(lp2526
I0
aI0
aI2
asI2588
(lp2527
I1
aI0
aI0
asI2589
(lp2528
I0
aI0
aI0
asI2590
(lp2529
I0
aI0
aI0
asI2591
(lp2530
I0
aI0
aI0
asI2592
(lp2531
I0
aI0
aI0
asI2593
(lp2532
I5
aI0
aI4
asI2594
(lp2533
I0
aI0
aI0
asI2595
(lp2534
I0
aI0
aI0
asI2596
(lp2535
I0
aI0
aI0
asI2597
(lp2536
I0
aI0
aI0
asI2598
(lp2537
I2
aI0
aI5
asI2599
(lp2538
I0
aI0
aI0
asI2600
(lp2539
I0
aI0
aI0
asI2601
(lp2540
I0
aI0
aI0
asI2602
(lp2541
I0
aI0
aI0
asI2603
(lp2542
I0
aI0
aI0
asI2604
(lp2543
I1
aI0
aI1
asI2605
(lp2544
I1
aI0
aI1
asI2606
(lp2545
I0
aI0
aI0
asI2607
(lp2546
I0
aI0
aI4
asI2608
(lp2547
I0
aI0
aI0
asI2609
(lp2548
I0
aI0
aI0
asI2610
(lp2549
I0
aI0
aI0
asI2611
(lp2550
I0
aI0
aI0
asI2612
(lp2551
I1
aI0
aI1
asI2613
(lp2552
I0
aI0
aI0
asI2614
(lp2553
I0
aI0
aI0
asI2615
(lp2554
I0
aI0
aI0
asI2616
(lp2555
I0
aI0
aI0
asI2617
(lp2556
I0
aI0
aI0
asI2618
(lp2557
I0
aI2
aI0
asI2619
(lp2558
I0
aI0
aI0
asI2620
(lp2559
I2
aI3
aI25
asI2621
(lp2560
I1
aI0
aI0
asI2622
(lp2561
I0
aI0
aI0
asI2623
(lp2562
I0
aI0
aI0
asI2624
(lp2563
I0
aI0
aI0
asI2625
(lp2564
I0
aI0
aI1
asI2626
(lp2565
I0
aI0
aI0
asI2627
(lp2566
I2
aI1
aI0
asI2628
(lp2567
I0
aI0
aI0
asI2629
(lp2568
I1
aI2
aI16
asI2630
(lp2569
I0
aI0
aI0
asI2631
(lp2570
I0
aI0
aI0
asI2632
(lp2571
I1
aI0
aI0
asI2633
(lp2572
I0
aI0
aI0
asI2634
(lp2573
I0
aI0
aI0
asI2635
(lp2574
I0
aI0
aI0
asI2636
(lp2575
I0
aI0
aI0
asI2637
(lp2576
I0
aI0
aI1
asI2638
(lp2577
I0
aI0
aI0
asI2639
(lp2578
I0
aI0
aI0
asI2640
(lp2579
I0
aI0
aI0
asI2641
(lp2580
I1
aI0
aI0
asI2642
(lp2581
I0
aI0
aI0
asI2643
(lp2582
I0
aI0
aI2
asI2644
(lp2583
I0
aI0
aI0
asI2645
(lp2584
I1
aI1
aI4
asI2646
(lp2585
I0
aI1
aI0
asI2647
(lp2586
I1
aI0
aI0
asI2648
(lp2587
I0
aI0
aI0
asI2649
(lp2588
I0
aI0
aI0
asI2650
(lp2589
I0
aI0
aI0
asI2651
(lp2590
I0
aI0
aI1
asI2653
(lp2591
I0
aI0
aI0
asI2654
(lp2592
I0
aI0
aI0
asI2655
(lp2593
I1
aI0
aI0
asI2657
(lp2594
I1
aI0
aI2
asI2658
(lp2595
I0
aI0
aI4
asI2659
(lp2596
I0
aI2
aI6
asI2660
(lp2597
I0
aI0
aI0
asI2661
(lp2598
I0
aI0
aI0
asI2662
(lp2599
I0
aI0
aI0
asI2664
(lp2600
I0
aI0
aI0
asI2665
(lp2601
I0
aI0
aI0
asI2666
(lp2602
I0
aI0
aI0
asI2667
(lp2603
I0
aI0
aI1
asI2668
(lp2604
I0
aI0
aI0
asI2669
(lp2605
I0
aI0
aI0
asI2670
(lp2606
I0
aI0
aI1
asI2671
(lp2607
I0
aI0
aI0
asI2672
(lp2608
I0
aI0
aI0
asI2674
(lp2609
I0
aI0
aI0
asI2675
(lp2610
I1
aI0
aI0
asI2676
(lp2611
I1
aI1
aI0
asI2677
(lp2612
I0
aI0
aI0
asI2678
(lp2613
I1
aI0
aI0
asI2679
(lp2614
I0
aI0
aI10
asI2680
(lp2615
I0
aI7
aI16
asI2681
(lp2616
I0
aI0
aI0
asI2682
(lp2617
I0
aI0
aI0
asI2683
(lp2618
I1
aI0
aI1
asI2684
(lp2619
I1
aI0
aI0
asI2685
(lp2620
I0
aI0
aI0
asI2686
(lp2621
I0
aI0
aI0
asI2687
(lp2622
I0
aI0
aI0
asI2688
(lp2623
I0
aI1
aI2
asI2689
(lp2624
I0
aI2
aI3
asI2690
(lp2625
I0
aI0
aI0
asI2691
(lp2626
I0
aI0
aI0
asI2692
(lp2627
I0
aI0
aI0
asI2693
(lp2628
I0
aI0
aI0
asI2694
(lp2629
I0
aI0
aI2
asI2695
(lp2630
I5
aI2
aI20
asI2696
(lp2631
I0
aI0
aI0
asI2697
(lp2632
I0
aI0
aI0
asI2698
(lp2633
I0
aI0
aI3
asI2699
(lp2634
I0
aI0
aI0
asI2700
(lp2635
I0
aI0
aI0
asI2701
(lp2636
I0
aI0
aI0
asI2702
(lp2637
I0
aI0
aI0
asI2703
(lp2638
I0
aI0
aI0
asI2704
(lp2639
I0
aI1
aI0
asI2705
(lp2640
I0
aI0
aI0
asI2706
(lp2641
I2
aI0
aI1
asI2707
(lp2642
I0
aI0
aI0
asI2708
(lp2643
I0
aI0
aI0
asI2709
(lp2644
I0
aI1
aI0
asI2710
(lp2645
I1
aI4
aI40
asI2711
(lp2646
I0
aI0
aI13
asI2712
(lp2647
I0
aI0
aI0
asI2713
(lp2648
I0
aI0
aI0
asI2714
(lp2649
I0
aI0
aI0
asI2715
(lp2650
I0
aI0
aI0
asI2716
(lp2651
I0
aI0
aI0
asI2717
(lp2652
I0
aI0
aI0
asI2718
(lp2653
I0
aI0
aI0
asI2719
(lp2654
I1
aI0
aI4
asI2720
(lp2655
I1
aI2
aI1
asI2721
(lp2656
I0
aI0
aI0
asI2722
(lp2657
I0
aI0
aI0
asI2723
(lp2658
I0
aI0
aI0
asI2724
(lp2659
I0
aI0
aI0
asI2725
(lp2660
I5
aI1
aI10
asI2726
(lp2661
I0
aI1
aI3
asI2727
(lp2662
I1
aI1
aI1
asI2728
(lp2663
I0
aI0
aI0
asI2729
(lp2664
I0
aI0
aI0
asI2730
(lp2665
I0
aI0
aI0
asI2731
(lp2666
I0
aI0
aI0
asI2732
(lp2667
I1
aI0
aI0
asI2733
(lp2668
I0
aI0
aI0
asI2734
(lp2669
I0
aI0
aI0
asI2735
(lp2670
I0
aI0
aI0
asI2736
(lp2671
I0
aI4
aI138
asI2737
(lp2672
I0
aI0
aI0
asI2738
(lp2673
I0
aI0
aI1
asI2739
(lp2674
I0
aI0
aI5
asI2740
(lp2675
I0
aI0
aI0
asI2741
(lp2676
I0
aI0
aI0
asI2742
(lp2677
I0
aI0
aI0
asI2743
(lp2678
I0
aI0
aI0
asI2744
(lp2679
I0
aI0
aI0
asI2745
(lp2680
I0
aI0
aI2
asI2746
(lp2681
I0
aI0
aI1
asI2747
(lp2682
I0
aI1
aI0
asI2748
(lp2683
I0
aI0
aI0
asI2749
(lp2684
I1
aI1
aI1
asI2750
(lp2685
I0
aI0
aI4
asI2751
(lp2686
I0
aI0
aI0
asI2752
(lp2687
I1
aI1
aI0
asI2753
(lp2688
I0
aI0
aI0
asI2754
(lp2689
I0
aI0
aI0
asI2756
(lp2690
I0
aI0
aI2
asI2757
(lp2691
I0
aI0
aI0
asI2758
(lp2692
I3
aI0
aI4
asI2759
(lp2693
I0
aI0
aI1
asI2760
(lp2694
I2
aI1
aI17
asI2761
(lp2695
I0
aI0
aI0
asI2762
(lp2696
I0
aI0
aI4
asI2763
(lp2697
I0
aI0
aI0
asI2764
(lp2698
I0
aI0
aI0
asI2765
(lp2699
I0
aI0
aI0
asI2766
(lp2700
I0
aI0
aI4
asI2767
(lp2701
I0
aI0
aI4
asI2768
(lp2702
I0
aI0
aI0
asI2769
(lp2703
I0
aI0
aI0
asI2770
(lp2704
I0
aI0
aI0
asI2771
(lp2705
I0
aI0
aI0
asI2772
(lp2706
I0
aI0
aI0
asI2773
(lp2707
I0
aI0
aI0
asI2774
(lp2708
I4
aI0
aI3
asI2775
(lp2709
I0
aI0
aI0
asI2776
(lp2710
I0
aI0
aI0
asI2777
(lp2711
I0
aI0
aI0
asI2778
(lp2712
I1
aI0
aI0
asI2779
(lp2713
I0
aI2
aI0
asI2780
(lp2714
I0
aI0
aI0
asI2781
(lp2715
I0
aI0
aI0
asI2782
(lp2716
I0
aI0
aI0
asI2783
(lp2717
I0
aI0
aI0
asI2784
(lp2718
I0
aI0
aI0
asI2785
(lp2719
I0
aI0
aI0
asI2786
(lp2720
I0
aI0
aI0
asI2787
(lp2721
I0
aI0
aI2
asI2788
(lp2722
I1
aI0
aI1
asI2789
(lp2723
I1
aI0
aI1
asI2790
(lp2724
I0
aI0
aI0
asI2791
(lp2725
I0
aI0
aI1
asI2792
(lp2726
I2
aI1
aI3
asI2793
(lp2727
I0
aI0
aI2
asI2794
(lp2728
I0
aI0
aI0
asI2795
(lp2729
I0
aI0
aI0
asI2796
(lp2730
I0
aI0
aI0
asI2797
(lp2731
I0
aI0
aI0
asI2798
(lp2732
I3
aI1
aI14
asI2799
(lp2733
I0
aI0
aI0
asI2800
(lp2734
I0
aI0
aI0
asI2801
(lp2735
I0
aI0
aI0
asI2802
(lp2736
I0
aI0
aI1
asI2803
(lp2737
I0
aI0
aI0
asI2804
(lp2738
I2
aI0
aI3
asI2805
(lp2739
I0
aI0
aI0
asI2806
(lp2740
I0
aI0
aI0
asI2807
(lp2741
I1
aI0
aI0
asI2808
(lp2742
I0
aI0
aI0
asI2809
(lp2743
I0
aI0
aI0
asI2810
(lp2744
I0
aI0
aI0
asI2811
(lp2745
I0
aI0
aI0
asI2812
(lp2746
I0
aI0
aI0
asI2813
(lp2747
I0
aI0
aI0
asI2814
(lp2748
I0
aI0
aI0
asI2815
(lp2749
I0
aI0
aI0
asI2816
(lp2750
I0
aI0
aI0
asI2817
(lp2751
I1
aI0
aI2
asI2818
(lp2752
I0
aI0
aI0
asI2819
(lp2753
I1
aI0
aI0
asI2820
(lp2754
I0
aI0
aI0
asI2821
(lp2755
I0
aI0
aI0
asI2822
(lp2756
I0
aI0
aI3
asI2823
(lp2757
I0
aI0
aI0
asI2824
(lp2758
I0
aI0
aI0
asI2825
(lp2759
I0
aI0
aI0
asI2826
(lp2760
I0
aI0
aI0
asI2827
(lp2761
I0
aI0
aI0
asI2828
(lp2762
I0
aI0
aI0
asI2829
(lp2763
I0
aI0
aI0
asI2830
(lp2764
I0
aI0
aI4
asI2831
(lp2765
I0
aI1
aI0
asI2832
(lp2766
I0
aI0
aI2
asI2833
(lp2767
I0
aI0
aI0
asI2834
(lp2768
I0
aI0
aI0
asI2835
(lp2769
I0
aI0
aI0
asI2836
(lp2770
I0
aI0
aI0
asI2837
(lp2771
I0
aI0
aI1
asI2838
(lp2772
I0
aI0
aI0
asI2839
(lp2773
I0
aI0
aI0
asI2840
(lp2774
I0
aI0
aI0
asI2841
(lp2775
I0
aI0
aI0
asI2842
(lp2776
I0
aI0
aI0
asI2843
(lp2777
I0
aI1
aI2
asI2844
(lp2778
I0
aI0
aI0
asI2845
(lp2779
I0
aI0
aI0
asI2846
(lp2780
I1
aI0
aI1
asI2847
(lp2781
I0
aI0
aI0
asI2848
(lp2782
I1
aI0
aI1
asI2849
(lp2783
I0
aI0
aI2
asI2850
(lp2784
I0
aI0
aI4
asI2851
(lp2785
I0
aI0
aI0
asI2852
(lp2786
I0
aI1
aI0
asI2853
(lp2787
I0
aI0
aI0
asI2854
(lp2788
I0
aI0
aI0
asI2855
(lp2789
I0
aI0
aI0
asI2856
(lp2790
I0
aI0
aI0
asI2857
(lp2791
I0
aI0
aI0
asI2858
(lp2792
I0
aI0
aI0
asI2859
(lp2793
I0
aI0
aI0
asI2860
(lp2794
I0
aI0
aI0
asI2861
(lp2795
I0
aI0
aI0
asI2862
(lp2796
I0
aI0
aI0
asI2863
(lp2797
I0
aI0
aI0
asI2864
(lp2798
I0
aI0
aI0
asI2865
(lp2799
I11
aI1
aI6
asI2866
(lp2800
I0
aI0
aI0
asI2867
(lp2801
I0
aI0
aI0
asI2868
(lp2802
I0
aI0
aI0
asI2869
(lp2803
I0
aI0
aI0
asI2870
(lp2804
I0
aI0
aI0
asI2871
(lp2805
I0
aI0
aI0
asI2872
(lp2806
I0
aI0
aI0
asI2873
(lp2807
I0
aI0
aI0
asI2874
(lp2808
I0
aI1
aI1
asI2875
(lp2809
I0
aI0
aI0
asI2876
(lp2810
I0
aI0
aI0
asI2877
(lp2811
I0
aI0
aI0
asI2878
(lp2812
I0
aI0
aI0
asI2879
(lp2813
I0
aI0
aI0
asI2880
(lp2814
I0
aI0
aI0
asI2881
(lp2815
I0
aI0
aI4
asI2882
(lp2816
I2
aI0
aI1
asI2883
(lp2817
I0
aI0
aI0
asI2884
(lp2818
I0
aI1
aI0
asI2885
(lp2819
I0
aI0
aI4
asI2886
(lp2820
I0
aI0
aI0
asI2887
(lp2821
I0
aI0
aI0
asI2888
(lp2822
I1
aI0
aI1
asI2889
(lp2823
I1
aI0
aI1
asI2890
(lp2824
I0
aI0
aI0
asI2891
(lp2825
I0
aI0
aI2
asI2892
(lp2826
I0
aI0
aI0
asI2893
(lp2827
I0
aI0
aI0
asI2894
(lp2828
I1
aI0
aI1
asI2895
(lp2829
I0
aI0
aI0
asI2896
(lp2830
I0
aI0
aI0
asI2897
(lp2831
I3
aI0
aI6
asI2898
(lp2832
I0
aI0
aI0
asI2899
(lp2833
I0
aI0
aI2
asI2900
(lp2834
I0
aI0
aI0
asI2901
(lp2835
I0
aI0
aI0
asI2902
(lp2836
I0
aI0
aI0
asI2903
(lp2837
I0
aI0
aI0
asI2904
(lp2838
I0
aI0
aI0
asI2905
(lp2839
I0
aI1
aI0
asI2906
(lp2840
I0
aI0
aI1
asI2907
(lp2841
I0
aI0
aI0
asI2908
(lp2842
I0
aI0
aI0
asI2909
(lp2843
I0
aI0
aI0
asI2910
(lp2844
I0
aI0
aI0
asI2911
(lp2845
I0
aI0
aI0
asI2912
(lp2846
I0
aI0
aI0
asI2913
(lp2847
I1
aI0
aI2
asI2914
(lp2848
I0
aI0
aI0
asI2915
(lp2849
I0
aI0
aI1
asI2916
(lp2850
I0
aI0
aI0
asI2917
(lp2851
I0
aI0
aI0
asI2918
(lp2852
I2
aI0
aI1
asI2919
(lp2853
I0
aI2
aI0
asI2920
(lp2854
I11
aI15
aI35
asI2921
(lp2855
I0
aI0
aI1
asI2922
(lp2856
I0
aI0
aI0
asI2923
(lp2857
I10
aI0
aI10
asI2924
(lp2858
I0
aI0
aI0
asI2925
(lp2859
I0
aI0
aI1
asI2926
(lp2860
I0
aI0
aI0
asI2927
(lp2861
I0
aI0
aI0
asI2928
(lp2862
I0
aI0
aI0
asI2929
(lp2863
I0
aI0
aI2
asI2930
(lp2864
I0
aI0
aI0
asI2931
(lp2865
I0
aI0
aI0
asI2932
(lp2866
I3
aI0
aI44
asI2933
(lp2867
I0
aI1
aI0
asI2934
(lp2868
I0
aI0
aI0
asI2935
(lp2869
I0
aI0
aI0
asI2936
(lp2870
I0
aI0
aI0
asI2937
(lp2871
I0
aI0
aI0
asI2938
(lp2872
I1
aI0
aI2
asI2939
(lp2873
I0
aI0
aI0
asI2940
(lp2874
I0
aI0
aI0
asI2941
(lp2875
I0
aI0
aI0
asI2942
(lp2876
I0
aI4
aI6
asI2943
(lp2877
I0
aI0
aI1
asI2944
(lp2878
I0
aI0
aI0
asI2945
(lp2879
I0
aI0
aI1
asI2946
(lp2880
I0
aI0
aI0
asI2947
(lp2881
I0
aI0
aI0
asI2948
(lp2882
I0
aI0
aI0
asI2949
(lp2883
I0
aI0
aI0
asI2950
(lp2884
I0
aI0
aI0
asI2951
(lp2885
I2
aI0
aI5
asI2952
(lp2886
I0
aI0
aI2
asI2953
(lp2887
I0
aI0
aI2
asI2954
(lp2888
I0
aI0
aI0
asI2955
(lp2889
I0
aI0
aI0
asI2956
(lp2890
I0
aI0
aI0
asI2957
(lp2891
I0
aI0
aI2
asI2958
(lp2892
I0
aI0
aI0
asI2959
(lp2893
I0
aI0
aI0
asI2960
(lp2894
I0
aI0
aI0
asI2961
(lp2895
I0
aI10
aI37
asI2962
(lp2896
I0
aI0
aI0
asI2963
(lp2897
I0
aI0
aI0
asI2964
(lp2898
I0
aI0
aI0
asI2965
(lp2899
I2
aI0
aI6
asI2966
(lp2900
I0
aI0
aI0
asI2967
(lp2901
I0
aI0
aI0
asI2968
(lp2902
I0
aI0
aI0
asI2969
(lp2903
I0
aI0
aI0
asI2970
(lp2904
I0
aI0
aI1
asI2971
(lp2905
I0
aI0
aI0
asI2972
(lp2906
I1
aI0
aI0
asI2973
(lp2907
I0
aI0
aI0
asI2974
(lp2908
I0
aI0
aI0
asI2975
(lp2909
I0
aI0
aI1
asI2976
(lp2910
I1
aI0
aI1
asI2977
(lp2911
I2
aI0
aI6
asI2978
(lp2912
I7
aI1
aI19
asI2979
(lp2913
I0
aI0
aI0
asI2980
(lp2914
I0
aI0
aI0
asI2981
(lp2915
I0
aI0
aI1
asI2982
(lp2916
I1
aI0
aI3
asI2983
(lp2917
I0
aI0
aI1
asI2984
(lp2918
I0
aI0
aI3
asI2985
(lp2919
I2
aI0
aI0
asI2987
(lp2920
I0
aI0
aI1
asI2988
(lp2921
I1
aI0
aI3
asI2989
(lp2922
I0
aI0
aI0
asI2990
(lp2923
I0
aI0
aI3
asI2991
(lp2924
I0
aI0
aI0
asI2992
(lp2925
I1
aI0
aI0
asI2993
(lp2926
I1
aI1
aI0
asI2994
(lp2927
I0
aI0
aI0
asI2995
(lp2928
I0
aI0
aI0
asI2996
(lp2929
I0
aI0
aI0
asI2997
(lp2930
I1
aI0
aI1
asI2998
(lp2931
I0
aI0
aI0
asI3000
(lp2932
I0
aI0
aI0
asI3001
(lp2933
I0
aI0
aI0
asI3002
(lp2934
I0
aI14
aI55
asI3003
(lp2935
I3
aI4
aI2
asI3004
(lp2936
I0
aI0
aI0
asI3005
(lp2937
I1
aI0
aI0
asI3006
(lp2938
I2
aI2
aI1
asI3007
(lp2939
I0
aI2
aI3
asI3008
(lp2940
I0
aI0
aI0
asI3009
(lp2941
I0
aI0
aI3
asI3010
(lp2942
I0
aI0
aI0
asI3011
(lp2943
I0
aI0
aI0
asI3012
(lp2944
I0
aI0
aI0
asI3013
(lp2945
I0
aI0
aI2
asI3014
(lp2946
I0
aI0
aI1
asI3015
(lp2947
I0
aI0
aI1
asI3016
(lp2948
I1
aI1
aI0
asI3017
(lp2949
I0
aI0
aI0
asI3018
(lp2950
I0
aI0
aI0
asI3019
(lp2951
I0
aI0
aI0
asI3020
(lp2952
I0
aI0
aI0
asI3021
(lp2953
I0
aI0
aI0
asI3022
(lp2954
I1
aI0
aI0
asI3023
(lp2955
I4
aI2
aI6
asI3024
(lp2956
I0
aI0
aI0
asI3025
(lp2957
I0
aI0
aI0
asI3027
(lp2958
I0
aI0
aI0
asI3028
(lp2959
I0
aI0
aI0
asI3029
(lp2960
I0
aI0
aI0
asI3030
(lp2961
I1
aI0
aI1
asI3031
(lp2962
I0
aI0
aI6
asI3032
(lp2963
I7
aI2
aI10
asI3033
(lp2964
I0
aI0
aI0
asI3034
(lp2965
I1
aI1
aI2
asI3035
(lp2966
I0
aI0
aI0
asI3036
(lp2967
I0
aI0
aI0
asI3037
(lp2968
I0
aI0
aI0
asI3038
(lp2969
I0
aI0
aI0
asI3039
(lp2970
I0
aI0
aI0
asI3040
(lp2971
I0
aI0
aI0
asI3041
(lp2972
I0
aI0
aI1
asI3042
(lp2973
I0
aI0
aI0
asI3043
(lp2974
I0
aI0
aI3
asI3044
(lp2975
I0
aI0
aI0
asI3045
(lp2976
I0
aI0
aI0
asI3046
(lp2977
I0
aI1
aI2
asI3047
(lp2978
I0
aI0
aI0
asI3048
(lp2979
I0
aI0
aI0
asI3049
(lp2980
I0
aI1
aI0
asI3050
(lp2981
I12
aI2
aI14
asI3051
(lp2982
I0
aI0
aI3
asI3052
(lp2983
I0
aI0
aI0
asI3053
(lp2984
I0
aI0
aI1
asI3054
(lp2985
I0
aI0
aI0
asI3055
(lp2986
I0
aI0
aI0
asI3056
(lp2987
I0
aI0
aI0
asI3057
(lp2988
I0
aI0
aI0
asI3058
(lp2989
I0
aI0
aI0
asI3059
(lp2990
I0
aI0
aI0
asI3060
(lp2991
I0
aI0
aI0
asI3061
(lp2992
I0
aI0
aI2
asI3062
(lp2993
I0
aI0
aI0
asI3063
(lp2994
I0
aI0
aI4
asI3064
(lp2995
I1
aI0
aI0
asI3065
(lp2996
I0
aI0
aI0
asI3066
(lp2997
I0
aI0
aI0
asI3067
(lp2998
I0
aI0
aI0
asI3068
(lp2999
I0
aI0
aI0
asI3069
(lp3000
I0
aI0
aI0
asI3070
(lp3001
I1
aI0
aI0
asI3071
(lp3002
I1
aI1
aI0
asI3072
(lp3003
I0
aI0
aI0
asI3073
(lp3004
I0
aI0
aI0
asI3074
(lp3005
I0
aI0
aI0
asI3076
(lp3006
I0
aI0
aI0
asI3077
(lp3007
I0
aI0
aI0
asI3079
(lp3008
I6
aI3
aI44
asI3080
(lp3009
I0
aI0
aI0
asI3081
(lp3010
I0
aI0
aI0
asI3082
(lp3011
I0
aI0
aI0
asI3083
(lp3012
I0
aI0
aI0
asI3084
(lp3013
I0
aI0
aI0
asI3085
(lp3014
I3
aI0
aI1
asI3086
(lp3015
I0
aI0
aI0
asI3087
(lp3016
I0
aI0
aI0
asI3088
(lp3017
I0
aI0
aI0
asI3089
(lp3018
I0
aI0
aI0
asI3090
(lp3019
I0
aI0
aI0
asI3091
(lp3020
I0
aI0
aI0
asI3092
(lp3021
I0
aI0
aI0
asI3093
(lp3022
I0
aI0
aI0
asI3094
(lp3023
I0
aI0
aI2
asI3095
(lp3024
I1
aI1
aI0
asI3096
(lp3025
I0
aI0
aI0
asI3097
(lp3026
I0
aI0
aI0
asI3098
(lp3027
I1
aI0
aI0
asI3099
(lp3028
I0
aI0
aI0
asI3100
(lp3029
I0
aI0
aI0
asI3101
(lp3030
I1
aI0
aI2
asI3102
(lp3031
I1
aI4
aI4
asI3103
(lp3032
I0
aI0
aI1
asI3104
(lp3033
I0
aI0
aI0
asI3105
(lp3034
I0
aI1
aI0
asI3106
(lp3035
I0
aI0
aI0
asI3107
(lp3036
I0
aI0
aI0
asI3108
(lp3037
I0
aI0
aI2
asI3109
(lp3038
I0
aI0
aI5
asI3110
(lp3039
I0
aI0
aI0
asI3111
(lp3040
I0
aI0
aI0
asI3112
(lp3041
I0
aI0
aI0
asI3113
(lp3042
I0
aI0
aI0
asI3114
(lp3043
I1
aI0
aI1
asI3115
(lp3044
I0
aI0
aI0
asI3116
(lp3045
I0
aI0
aI0
asI3117
(lp3046
I0
aI0
aI2
asI3118
(lp3047
I0
aI0
aI4
asI3119
(lp3048
I0
aI0
aI0
asI3120
(lp3049
I0
aI0
aI0
asI3121
(lp3050
I0
aI0
aI0
asI3122
(lp3051
I0
aI0
aI0
asI3123
(lp3052
I0
aI0
aI0
asI3124
(lp3053
I0
aI0
aI0
asI3125
(lp3054
I0
aI0
aI0
asI3126
(lp3055
I0
aI0
aI0
asI3127
(lp3056
I0
aI0
aI0
asI3128
(lp3057
I2
aI0
aI2
asI3129
(lp3058
I0
aI0
aI0
asI3130
(lp3059
I0
aI0
aI4
asI3131
(lp3060
I1
aI0
aI0
asI3132
(lp3061
I0
aI1
aI0
asI3133
(lp3062
I0
aI0
aI2
asI3134
(lp3063
I0
aI0
aI0
asI3135
(lp3064
I0
aI0
aI0
asI3137
(lp3065
I0
aI0
aI0
asI3138
(lp3066
I0
aI1
aI0
asI3139
(lp3067
I0
aI0
aI0
asI3140
(lp3068
I1
aI0
aI0
asI3141
(lp3069
I0
aI0
aI0
asI3142
(lp3070
I0
aI0
aI0
asI3143
(lp3071
I0
aI0
aI2
asI3144
(lp3072
I0
aI0
aI2
asI3145
(lp3073
I0
aI0
aI0
asI3146
(lp3074
I0
aI0
aI0
asI3147
(lp3075
I0
aI0
aI0
asI3148
(lp3076
I0
aI0
aI0
asI3149
(lp3077
I0
aI0
aI0
asI3150
(lp3078
I0
aI0
aI0
asI3151
(lp3079
I0
aI0
aI0
asI3152
(lp3080
I0
aI0
aI0
asI3153
(lp3081
I0
aI0
aI4
asI3154
(lp3082
I0
aI0
aI0
asI3155
(lp3083
I1
aI0
aI2
asI3156
(lp3084
I0
aI0
aI0
asI3157
(lp3085
I0
aI0
aI2
asI3158
(lp3086
I0
aI0
aI0
asI3159
(lp3087
I0
aI0
aI2
asI3160
(lp3088
I1
aI0
aI0
asI3161
(lp3089
I0
aI0
aI0
asI3162
(lp3090
I0
aI0
aI0
asI3163
(lp3091
I0
aI0
aI1
asI3164
(lp3092
I2
aI2
aI6
asI3165
(lp3093
I0
aI0
aI0
asI3166
(lp3094
I0
aI0
aI0
asI3167
(lp3095
I0
aI0
aI1
asI3168
(lp3096
I0
aI0
aI10
asI3169
(lp3097
I0
aI0
aI1
asI3170
(lp3098
I0
aI0
aI0
asI3171
(lp3099
I0
aI0
aI0
asI3172
(lp3100
I0
aI0
aI0
asI3173
(lp3101
I0
aI0
aI2
asI3174
(lp3102
I0
aI0
aI0
asI3175
(lp3103
I0
aI0
aI0
asI3176
(lp3104
I0
aI0
aI0
asI3177
(lp3105
I0
aI0
aI2
asI3178
(lp3106
I0
aI0
aI0
asI3179
(lp3107
I1
aI0
aI0
asI3180
(lp3108
I0
aI0
aI0
asI3181
(lp3109
I1
aI0
aI0
asI3182
(lp3110
I0
aI0
aI0
asI3183
(lp3111
I0
aI0
aI0
asI3184
(lp3112
I0
aI0
aI0
asI3185
(lp3113
I0
aI0
aI0
asI3186
(lp3114
I0
aI0
aI0
asI3187
(lp3115
I0
aI0
aI0
asI3188
(lp3116
I0
aI2
aI27
asI3189
(lp3117
I0
aI0
aI0
asI3190
(lp3118
I0
aI0
aI0
asI3191
(lp3119
I0
aI0
aI0
asI3192
(lp3120
I2
aI0
aI0
asI3193
(lp3121
I0
aI0
aI0
asI3194
(lp3122
I0
aI0
aI3
asI3195
(lp3123
I0
aI0
aI0
asI3196
(lp3124
I0
aI0
aI0
asI3197
(lp3125
I0
aI0
aI0
asI3198
(lp3126
I0
aI0
aI0
asI3199
(lp3127
I0
aI0
aI0
asI3200
(lp3128
I1
aI0
aI0
asI3201
(lp3129
I1
aI0
aI0
asI3202
(lp3130
I0
aI0
aI0
asI3203
(lp3131
I0
aI1
aI0
asI3204
(lp3132
I0
aI0
aI0
asI3205
(lp3133
I0
aI2
aI4
asI3206
(lp3134
I0
aI0
aI0
asI3207
(lp3135
I0
aI0
aI0
asI3208
(lp3136
I0
aI0
aI0
asI3209
(lp3137
I1
aI1
aI3
asI3210
(lp3138
I1
aI0
aI0
asI3212
(lp3139
I1
aI0
aI0
asI3213
(lp3140
I1
aI0
aI0
asI3214
(lp3141
I0
aI0
aI2
asI3215
(lp3142
I0
aI1
aI0
asI3216
(lp3143
I1
aI0
aI3
asI3217
(lp3144
I1
aI1
aI1
asI3218
(lp3145
I0
aI0
aI0
asI3220
(lp3146
I0
aI0
aI0
asI3221
(lp3147
I0
aI0
aI7
asI3222
(lp3148
I1
aI0
aI2
asI3223
(lp3149
I0
aI0
aI0
asI3224
(lp3150
I0
aI0
aI2
asI3225
(lp3151
I0
aI0
aI0
asI3226
(lp3152
I0
aI0
aI0
asI3227
(lp3153
I0
aI0
aI0
asI3228
(lp3154
I0
aI0
aI0
asI3229
(lp3155
I1
aI0
aI1
asI3230
(lp3156
I3
aI1
aI23
asI3231
(lp3157
I0
aI0
aI1
asI3232
(lp3158
I1
aI0
aI1
asI3233
(lp3159
I0
aI0
aI0
asI3234
(lp3160
I0
aI0
aI0
asI3235
(lp3161
I0
aI0
aI0
asI3236
(lp3162
I0
aI0
aI0
asI3237
(lp3163
I0
aI0
aI1
asI3238
(lp3164
I0
aI0
aI0
asI3239
(lp3165
I0
aI0
aI0
asI3240
(lp3166
I0
aI1
aI2
asI3241
(lp3167
I2
aI1
aI2
asI3242
(lp3168
I1
aI0
aI0
asI3243
(lp3169
I0
aI0
aI0
asI3244
(lp3170
I0
aI0
aI1
asI3245
(lp3171
I0
aI0
aI0
asI3246
(lp3172
I0
aI0
aI0
asI3247
(lp3173
I0
aI0
aI0
asI3248
(lp3174
I0
aI0
aI0
asI3249
(lp3175
I0
aI0
aI0
asI3250
(lp3176
I0
aI0
aI1
asI3251
(lp3177
I0
aI0
aI0
asI3252
(lp3178
I0
aI0
aI7
asI3253
(lp3179
I0
aI0
aI0
asI3254
(lp3180
I3
aI0
aI10
asI3255
(lp3181
I0
aI0
aI4
asI3256
(lp3182
I0
aI0
aI0
asI3257
(lp3183
I0
aI0
aI0
asI3258
(lp3184
I0
aI0
aI2
asI3259
(lp3185
I0
aI0
aI0
asI3260
(lp3186
I0
aI0
aI0
asI3261
(lp3187
I0
aI0
aI1
asI3262
(lp3188
I1
aI0
aI2
asI3263
(lp3189
I0
aI0
aI1
asI3264
(lp3190
I5
aI0
aI16
asI3265
(lp3191
I0
aI0
aI0
asI3266
(lp3192
I0
aI0
aI2
asI3267
(lp3193
I0
aI0
aI0
asI3268
(lp3194
I0
aI0
aI0
asI3269
(lp3195
I0
aI0
aI0
asI3270
(lp3196
I0
aI0
aI0
asI3271
(lp3197
I1
aI0
aI1
asI3272
(lp3198
I0
aI0
aI40
asI3273
(lp3199
I0
aI0
aI1
asI3274
(lp3200
I0
aI0
aI0
asI3275
(lp3201
I0
aI0
aI0
asI3276
(lp3202
I0
aI1
aI0
asI3277
(lp3203
I0
aI0
aI0
asI3278
(lp3204
I0
aI0
aI1
asI3279
(lp3205
I0
aI0
aI0
asI3280
(lp3206
I0
aI1
aI31
asI3281
(lp3207
I0
aI0
aI0
asI3282
(lp3208
I15
aI15
aI80
asI3283
(lp3209
I0
aI0
aI0
asI3284
(lp3210
I0
aI0
aI0
asI3285
(lp3211
I1
aI0
aI0
asI3286
(lp3212
I0
aI0
aI0
asI3287
(lp3213
I0
aI0
aI0
asI3288
(lp3214
I0
aI0
aI0
asI3289
(lp3215
I0
aI0
aI0
asI3290
(lp3216
I2
aI0
aI1
asI3291
(lp3217
I1
aI0
aI0
asI3292
(lp3218
I1
aI0
aI0
asI3293
(lp3219
I1
aI0
aI0
asI3294
(lp3220
I0
aI0
aI0
asI3295
(lp3221
I0
aI0
aI2
asI3296
(lp3222
I0
aI0
aI0
asI3297
(lp3223
I0
aI0
aI0
asI3298
(lp3224
I0
aI0
aI0
asI3299
(lp3225
I0
aI0
aI0
asI3300
(lp3226
I0
aI0
aI0
asI3301
(lp3227
I0
aI0
aI0
asI3302
(lp3228
I6
aI0
aI21
asI3303
(lp3229
I2
aI0
aI1
asI3304
(lp3230
I0
aI0
aI0
asI3305
(lp3231
I0
aI0
aI0
asI3306
(lp3232
I0
aI0
aI0
asI3307
(lp3233
I0
aI0
aI0
asI3308
(lp3234
I0
aI0
aI0
asI3309
(lp3235
I0
aI0
aI0
asI3310
(lp3236
I0
aI0
aI1
asI3311
(lp3237
I0
aI0
aI0
asI3312
(lp3238
I0
aI1
aI4
asI3313
(lp3239
I0
aI0
aI0
asI3314
(lp3240
I0
aI0
aI0
asI3315
(lp3241
I0
aI0
aI0
asI3316
(lp3242
I6
aI1
aI108
asI3317
(lp3243
I0
aI0
aI0
asI3318
(lp3244
I0
aI0
aI0
asI3319
(lp3245
I0
aI0
aI0
asI3320
(lp3246
I1
aI0
aI0
asI3321
(lp3247
I0
aI0
aI0
asI3322
(lp3248
I2
aI0
aI0
asI3323
(lp3249
I1
aI0
aI2
asI3324
(lp3250
I0
aI0
aI0
asI3325
(lp3251
I1
aI0
aI19
asI3326
(lp3252
I0
aI0
aI2
asI3327
(lp3253
I1
aI1
aI0
asI3328
(lp3254
I0
aI0
aI0
asI3329
(lp3255
I0
aI1
aI0
asI3330
(lp3256
I0
aI0
aI0
asI3331
(lp3257
I1
aI0
aI1
asI3332
(lp3258
I1
aI0
aI3
asI3333
(lp3259
I0
aI0
aI0
asI3334
(lp3260
I1
aI0
aI1
asI3335
(lp3261
I0
aI0
aI1
asI3336
(lp3262
I0
aI0
aI0
asI3337
(lp3263
I0
aI0
aI2
asI3338
(lp3264
I0
aI0
aI2
asI3339
(lp3265
I0
aI0
aI0
asI3340
(lp3266
I0
aI0
aI1
asI3341
(lp3267
I0
aI0
aI0
asI3342
(lp3268
I0
aI0
aI1
asI3343
(lp3269
I0
aI9
aI15
asI3344
(lp3270
I1
aI0
aI1
asI3345
(lp3271
I0
aI0
aI0
asI3346
(lp3272
I0
aI0
aI1
asI3347
(lp3273
I0
aI0
aI0
asI3348
(lp3274
I0
aI0
aI0
asI3349
(lp3275
I1
aI1
aI3
asI3350
(lp3276
I0
aI0
aI0
asI3351
(lp3277
I0
aI0
aI1
asI3352
(lp3278
I0
aI0
aI0
asI3353
(lp3279
I0
aI0
aI2
asI3354
(lp3280
I2
aI0
aI0
asI3355
(lp3281
I0
aI0
aI0
asI3356
(lp3282
I0
aI0
aI0
asI3357
(lp3283
I7
aI2
aI10
asI3358
(lp3284
I0
aI0
aI0
asI3359
(lp3285
I0
aI0
aI2
asI3360
(lp3286
I0
aI1
aI0
asI3361
(lp3287
I0
aI0
aI8
asI3362
(lp3288
I0
aI0
aI0
asI3363
(lp3289
I0
aI0
aI0
asI3364
(lp3290
I0
aI0
aI0
asI3365
(lp3291
I0
aI0
aI0
asI3366
(lp3292
I0
aI0
aI2
asI3367
(lp3293
I0
aI0
aI0
asI3368
(lp3294
I0
aI0
aI5
asI3369
(lp3295
I1
aI0
aI0
asI3370
(lp3296
I0
aI0
aI0
asI3371
(lp3297
I0
aI0
aI0
asI3372
(lp3298
I0
aI0
aI0
asI3373
(lp3299
I1
aI0
aI0
asI3374
(lp3300
I0
aI0
aI0
asI3375
(lp3301
I0
aI0
aI0
asI3376
(lp3302
I0
aI0
aI0
asI3377
(lp3303
I0
aI0
aI0
asI3378
(lp3304
I0
aI0
aI0
asI3379
(lp3305
I0
aI0
aI3
asI3380
(lp3306
I0
aI0
aI0
asI3382
(lp3307
I0
aI0
aI0
asI3383
(lp3308
I0
aI0
aI0
asI3384
(lp3309
I0
aI0
aI0
asI3385
(lp3310
I1
aI0
aI0
asI3386
(lp3311
I0
aI0
aI0
asI3387
(lp3312
I0
aI0
aI1
asI3388
(lp3313
I0
aI0
aI2
asI3389
(lp3314
I0
aI0
aI0
asI3390
(lp3315
I0
aI0
aI0
asI3391
(lp3316
I0
aI0
aI0
asI3392
(lp3317
I0
aI0
aI0
asI3393
(lp3318
I0
aI0
aI0
asI3394
(lp3319
I0
aI0
aI2
asI3395
(lp3320
I0
aI0
aI4
asI3396
(lp3321
I0
aI1
aI0
asI3397
(lp3322
I0
aI0
aI2
asI3398
(lp3323
I0
aI0
aI2
asI3399
(lp3324
I0
aI0
aI0
asI3400
(lp3325
I0
aI0
aI0
asI3401
(lp3326
I0
aI0
aI0
asI3402
(lp3327
I0
aI0
aI0
asI3403
(lp3328
I0
aI0
aI0
asI3404
(lp3329
I0
aI0
aI0
asI3405
(lp3330
I2
aI0
aI3
asI3406
(lp3331
I0
aI0
aI0
asI3407
(lp3332
I0
aI0
aI0
asI3408
(lp3333
I0
aI1
aI0
asI3409
(lp3334
I0
aI0
aI2
asI4409
(lp3335
I0
aI0
aI0
asI4410
(lp3336
I0
aI0
aI0
asI4411
(lp3337
I0
aI0
aI0
asI4412
(lp3338
I0
aI0
aI2
asI4413
(lp3339
I2
aI5
aI5
asI4414
(lp3340
I0
aI0
aI1
asI4415
(lp3341
I0
aI0
aI0
asI4416
(lp3342
I0
aI0
aI0
asI4417
(lp3343
I0
aI0
aI0
asI4418
(lp3344
I0
aI0
aI1
asI4419
(lp3345
I0
aI0
aI0
asI4420
(lp3346
I0
aI0
aI0
asI4421
(lp3347
I0
aI0
aI0
asI4422
(lp3348
I0
aI0
aI0
asI4423
(lp3349
I0
aI0
aI0
asI4424
(lp3350
I0
aI0
aI0
asI4425
(lp3351
I0
aI0
aI1
asI4426
(lp3352
I0
aI0
aI0
asI4427
(lp3353
I0
aI0
aI0
asI4428
(lp3354
I0
aI0
aI0
asI4429
(lp3355
I0
aI0
aI0
asI4430
(lp3356
I0
aI0
aI0
asI4431
(lp3357
I0
aI0
aI0
asI4432
(lp3358
I2
aI0
aI2
asI4433
(lp3359
I0
aI0
aI0
asI4434
(lp3360
I1
aI4
aI13
asI4435
(lp3361
I1
aI0
aI0
asI4436
(lp3362
I0
aI0
aI0
asI4437
(lp3363
I0
aI1
aI2
asI4438
(lp3364
I0
aI0
aI0
asI4439
(lp3365
I0
aI0
aI0
asI4440
(lp3366
I0
aI0
aI5
asI4441
(lp3367
I0
aI0
aI0
asI4442
(lp3368
I1
aI0
aI0
asI4443
(lp3369
I0
aI0
aI0
asI4444
(lp3370
I0
aI0
aI0
asI4445
(lp3371
I0
aI0
aI0
asI4446
(lp3372
I2
aI0
aI2
asI4447
(lp3373
I0
aI0
aI0
asI4448
(lp3374
I0
aI0
aI1
asI4449
(lp3375
I0
aI0
aI0
asI4450
(lp3376
I0
aI0
aI4
asI4451
(lp3377
I0
aI0
aI0
asI4452
(lp3378
I0
aI0
aI0
asI4453
(lp3379
I0
aI0
aI1
asI4454
(lp3380
I0
aI0
aI0
asI4455
(lp3381
I0
aI0
aI0
asI4456
(lp3382
I0
aI0
aI0
asI4457
(lp3383
I0
aI0
aI0
asI4458
(lp3384
I1
aI0
aI2
asI4459
(lp3385
I0
aI0
aI0
asI4460
(lp3386
I0
aI0
aI0
asI4461
(lp3387
I0
aI0
aI0
asI4462
(lp3388
I0
aI1
aI0
asI4463
(lp3389
I0
aI0
aI0
asI4464
(lp3390
I0
aI0
aI0
asI4465
(lp3391
I0
aI0
aI2
asI4466
(lp3392
I0
aI0
aI0
asI4467
(lp3393
I0
aI0
aI1
asI4468
(lp3394
I0
aI0
aI0
asI4469
(lp3395
I0
aI0
aI1
asI4470
(lp3396
I0
aI0
aI0
asI4471
(lp3397
I0
aI0
aI0
asI4472
(lp3398
I0
aI0
aI19
asI4473
(lp3399
I0
aI0
aI2
asI4474
(lp3400
I0
aI0
aI0
asI4475
(lp3401
I0
aI0
aI1
asI4476
(lp3402
I0
aI0
aI0
asI4477
(lp3403
I0
aI0
aI1
asI4478
(lp3404
I0
aI0
aI0
asI4479
(lp3405
I0
aI0
aI0
asI4480
(lp3406
I0
aI0
aI0
asI4481
(lp3407
I0
aI0
aI0
asI4482
(lp3408
I0
aI0
aI0
asI4483
(lp3409
I0
aI0
aI0
asI4484
(lp3410
I0
aI0
aI2
asI4485
(lp3411
I0
aI0
aI0
asI4486
(lp3412
I0
aI0
aI0
asI4487
(lp3413
I0
aI0
aI0
asI4488
(lp3414
I0
aI0
aI0
asI4489
(lp3415
I0
aI0
aI0
asI4490
(lp3416
I0
aI0
aI0
asI4491
(lp3417
I1
aI0
aI0
asI4492
(lp3418
I1
aI0
aI0
asI4493
(lp3419
I0
aI0
aI0
asI4494
(lp3420
I0
aI0
aI0
asI4495
(lp3421
I0
aI0
aI1
asI4496
(lp3422
I0
aI0
aI8
asI4497
(lp3423
I0
aI0
aI1
asI4498
(lp3424
I3
aI0
aI4
asI4499
(lp3425
I0
aI0
aI2
asI4500
(lp3426
I1
aI0
aI0
asI4501
(lp3427
I0
aI0
aI0
asI4502
(lp3428
I0
aI2
aI0
asI4503
(lp3429
I0
aI0
aI0
asI4504
(lp3430
I1
aI0
aI0
asI4505
(lp3431
I59
aI0
aI55
asI4506
(lp3432
I0
aI0
aI0
asI4507
(lp3433
I1
aI0
aI0
asI4508
(lp3434
I0
aI0
aI0
asI4509
(lp3435
I0
aI0
aI0
asI4510
(lp3436
I0
aI0
aI0
asI4511
(lp3437
I0
aI0
aI0
asI4512
(lp3438
I0
aI0
aI0
asI4513
(lp3439
I1
aI0
aI3
asI4514
(lp3440
I0
aI0
aI0
asI4515
(lp3441
I0
aI0
aI1
asI4516
(lp3442
I0
aI0
aI0
asI4517
(lp3443
I0
aI0
aI0
asI4518
(lp3444
I0
aI1
aI0
asI4519
(lp3445
I0
aI0
aI0
asI4520
(lp3446
I0
aI0
aI0
asI4521
(lp3447
I0
aI0
aI0
asI4522
(lp3448
I0
aI0
aI0
asI4524
(lp3449
I0
aI0
aI0
asI4525
(lp3450
I1
aI0
aI0
asI4526
(lp3451
I1
aI0
aI0
asI4527
(lp3452
I0
aI0
aI0
asI4528
(lp3453
I0
aI0
aI1
asI4529
(lp3454
I0
aI0
aI0
asI4530
(lp3455
I0
aI0
aI0
asI4531
(lp3456
I0
aI0
aI0
asI4532
(lp3457
I0
aI0
aI0
asI4533
(lp3458
I0
aI0
aI0
asI4534
(lp3459
I0
aI0
aI0
asI4535
(lp3460
I0
aI0
aI0
asI4536
(lp3461
I0
aI0
aI56
asI4537
(lp3462
I0
aI0
aI0
asI4538
(lp3463
I0
aI0
aI0
asI4539
(lp3464
I0
aI0
aI0
asI4540
(lp3465
I0
aI0
aI1
asI4541
(lp3466
I0
aI0
aI0
asI4542
(lp3467
I0
aI0
aI0
asI4543
(lp3468
I1
aI0
aI9
asI4544
(lp3469
I0
aI0
aI0
asI4545
(lp3470
I0
aI0
aI0
asI4546
(lp3471
I0
aI0
aI0
asI4547
(lp3472
I1
aI0
aI3
asI4548
(lp3473
I0
aI0
aI2
asI4549
(lp3474
I0
aI0
aI0
asI4550
(lp3475
I0
aI0
aI0
asI4551
(lp3476
I0
aI0
aI0
asI4552
(lp3477
I0
aI0
aI0
asI4553
(lp3478
I0
aI0
aI0
asI4554
(lp3479
I0
aI0
aI0
asI4555
(lp3480
I0
aI0
aI0
asI4556
(lp3481
I0
aI0
aI0
asI4557
(lp3482
I0
aI0
aI0
asI4558
(lp3483
I0
aI0
aI0
asI4559
(lp3484
I0
aI0
aI0
asI4560
(lp3485
I0
aI0
aI0
asI4561
(lp3486
I0
aI0
aI6
asI4562
(lp3487
I3
aI0
aI8
asI4563
(lp3488
I0
aI0
aI0
asI4564
(lp3489
I0
aI0
aI0
asI4565
(lp3490
I0
aI0
aI1
asI4566
(lp3491
I0
aI0
aI0
asI4567
(lp3492
I0
aI0
aI0
asI4568
(lp3493
I0
aI0
aI0
asI4569
(lp3494
I0
aI0
aI0
asI4570
(lp3495
I0
aI0
aI0
asI4571
(lp3496
I0
aI0
aI0
asI4572
(lp3497
I0
aI0
aI1
asI4573
(lp3498
I0
aI1
aI0
asI4574
(lp3499
I0
aI0
aI0
asI4575
(lp3500
I0
aI0
aI0
asI4576
(lp3501
I0
aI0
aI5
asI4577
(lp3502
I0
aI0
aI0
asI4578
(lp3503
I0
aI0
aI2
asI4579
(lp3504
I0
aI0
aI0
asI4580
(lp3505
I0
aI0
aI1
asI4581
(lp3506
I0
aI1
aI0
asI4582
(lp3507
I3
aI0
aI2
asI4583
(lp3508
I0
aI0
aI0
asI4584
(lp3509
I0
aI0
aI1
asI4585
(lp3510
I0
aI0
aI0
asI4586
(lp3511
I0
aI0
aI3
asI4587
(lp3512
I0
aI0
aI0
asI4588
(lp3513
I0
aI0
aI0
asI4589
(lp3514
I1
aI0
aI0
asI4590
(lp3515
I0
aI0
aI0
asI4591
(lp3516
I0
aI0
aI0
asI4592
(lp3517
I0
aI0
aI0
asI4593
(lp3518
I0
aI0
aI0
asI4594
(lp3519
I3
aI0
aI2
asI4595
(lp3520
I0
aI0
aI0
asI4596
(lp3521
I0
aI0
aI0
asI4597
(lp3522
I0
aI0
aI0
asI4598
(lp3523
I0
aI0
aI0
asI4599
(lp3524
I1
aI0
aI1
asI4600
(lp3525
I0
aI0
aI0
asI4601
(lp3526
I0
aI0
aI0
asI4602
(lp3527
I0
aI0
aI0
asI4603
(lp3528
I28
aI14
aI44
asI4604
(lp3529
I0
aI0
aI0
asI4605
(lp3530
I0
aI0
aI0
asI4606
(lp3531
I0
aI0
aI0
asI4607
(lp3532
I0
aI0
aI0
asI4608
(lp3533
I0
aI0
aI0
asI4609
(lp3534
I0
aI0
aI0
asI4610
(lp3535
I0
aI0
aI0
asI4611
(lp3536
I0
aI0
aI0
asI4612
(lp3537
I0
aI0
aI0
asI4613
(lp3538
I0
aI0
aI0
asI4614
(lp3539
I0
aI0
aI1
asI4615
(lp3540
I0
aI0
aI0
asI4616
(lp3541
I0
aI0
aI0
asI4617
(lp3542
I2
aI1
aI0
asI4618
(lp3543
I0
aI0
aI2
asI4619
(lp3544
I0
aI0
aI0
asI4620
(lp3545
I0
aI5
aI112
asI4621
(lp3546
I0
aI0
aI0
asI4622
(lp3547
I0
aI1
aI0
asI4623
(lp3548
I0
aI0
aI1
asI4624
(lp3549
I0
aI1
aI0
asI4625
(lp3550
I0
aI0
aI0
asI4626
(lp3551
I0
aI0
aI1
asI4627
(lp3552
I0
aI0
aI0
asI4628
(lp3553
I0
aI0
aI0
asI4629
(lp3554
I0
aI0
aI1
asI4630
(lp3555
I0
aI0
aI0
asI4631
(lp3556
I0
aI0
aI0
asI4632
(lp3557
I1
aI0
aI0
asI4633
(lp3558
I0
aI0
aI7
asI4634
(lp3559
I1
aI0
aI0
asI4635
(lp3560
I0
aI0
aI1
asI4636
(lp3561
I0
aI0
aI0
asI4637
(lp3562
I0
aI0
aI0
asI4638
(lp3563
I0
aI0
aI0
asI4639
(lp3564
I0
aI0
aI0
asI4640
(lp3565
I0
aI0
aI0
asI4641
(lp3566
I0
aI0
aI0
asI4642
(lp3567
I0
aI0
aI0
asI4643
(lp3568
I0
aI0
aI2
asI4644
(lp3569
I0
aI0
aI0
asI4645
(lp3570
I0
aI0
aI0
asI4646
(lp3571
I0
aI0
aI1
asI4647
(lp3572
I0
aI0
aI0
asI4648
(lp3573
I1
aI0
aI0
asI4649
(lp3574
I0
aI0
aI2
asI4650
(lp3575
I0
aI0
aI0
asI4651
(lp3576
I0
aI0
aI0
asI4652
(lp3577
I0
aI0
aI10
asI4653
(lp3578
I0
aI0
aI0
asI4654
(lp3579
I0
aI0
aI0
asI4655
(lp3580
I0
aI4
aI4
asI4656
(lp3581
I1
aI0
aI0
asI4657
(lp3582
I0
aI0
aI1
asI4658
(lp3583
I0
aI0
aI0
asI4659
(lp3584
I0
aI0
aI0
asI4660
(lp3585
I0
aI0
aI0
asI4661
(lp3586
I0
aI0
aI0
asI4662
(lp3587
I0
aI0
aI0
asI4663
(lp3588
I1
aI0
aI0
asI4664
(lp3589
I0
aI0
aI0
asI4665
(lp3590
I0
aI0
aI4
asI4666
(lp3591
I0
aI0
aI0
asI4667
(lp3592
I6
aI0
aI6
asI4668
(lp3593
I1
aI0
aI1
asI4669
(lp3594
I0
aI0
aI0
asI4670
(lp3595
I1
aI0
aI1
asI4671
(lp3596
I0
aI0
aI0
asI4672
(lp3597
I0
aI0
aI0
asI4673
(lp3598
I0
aI0
aI0
asI4674
(lp3599
I3
aI0
aI13
asI4675
(lp3600
I1
aI0
aI4
asI4676
(lp3601
I26
aI23
aI220
asI4677
(lp3602
I0
aI0
aI0
asI4678
(lp3603
I0
aI0
aI0
asI4679
(lp3604
I0
aI0
aI0
asI4680
(lp3605
I0
aI0
aI0
asI4681
(lp3606
I0
aI0
aI0
asI4682
(lp3607
I0
aI0
aI2
asI4683
(lp3608
I0
aI0
aI0
asI4684
(lp3609
I0
aI0
aI0
asI4685
(lp3610
I0
aI0
aI0
asI4686
(lp3611
I1
aI0
aI9
asI4687
(lp3612
I0
aI0
aI0
asI4688
(lp3613
I0
aI1
aI0
asI4689
(lp3614
I0
aI0
aI0
asI4690
(lp3615
I0
aI0
aI0
asI4691
(lp3616
I0
aI0
aI0
asI4692
(lp3617
I2
aI1
aI0
asI4693
(lp3618
I0
aI0
aI0
asI4694
(lp3619
I0
aI0
aI0
asI4695
(lp3620
I0
aI0
aI0
asI4696
(lp3621
I0
aI1
aI0
asI4697
(lp3622
I0
aI0
aI0
asI4698
(lp3623
I0
aI0
aI2
asI4699
(lp3624
I0
aI0
aI0
asI4700
(lp3625
I1
aI0
aI0
asI4701
(lp3626
I0
aI0
aI2
asI4702
(lp3627
I0
aI0
aI1
asI4703
(lp3628
I0
aI0
aI0
asI4704
(lp3629
I0
aI0
aI0
asI4705
(lp3630
I0
aI0
aI0
asI4706
(lp3631
I0
aI0
aI0
asI4707
(lp3632
I0
aI0
aI9
asI4708
(lp3633
I1
aI0
aI0
asI4709
(lp3634
I1
aI0
aI0
asI4710
(lp3635
I0
aI0
aI0
asI4711
(lp3636
I0
aI0
aI0
asI4712
(lp3637
I0
aI0
aI0
asI4713
(lp3638
I0
aI0
aI0
asI4714
(lp3639
I0
aI0
aI0
asI4715
(lp3640
I0
aI0
aI1
asI4716
(lp3641
I0
aI0
aI1
asI4717
(lp3642
I1
aI0
aI0
asI4718
(lp3643
I1
aI0
aI1
asI4719
(lp3644
I0
aI0
aI0
asI4720
(lp3645
I0
aI0
aI1
asI4722
(lp3646
I1
aI1
aI1
asI4723
(lp3647
I0
aI0
aI1
asI4724
(lp3648
I0
aI0
aI1
asI4725
(lp3649
I0
aI0
aI0
asI4726
(lp3650
I0
aI0
aI0
asI4727
(lp3651
I0
aI0
aI0
asI4728
(lp3652
I0
aI0
aI0
asI4729
(lp3653
I0
aI4
aI9
asI4730
(lp3654
I1
aI0
aI0
asI4731
(lp3655
I0
aI0
aI2
asI4732
(lp3656
I0
aI0
aI0
asI4733
(lp3657
I0
aI0
aI0
asI4734
(lp3658
I0
aI0
aI0
asI4735
(lp3659
I0
aI0
aI1
asI4736
(lp3660
I0
aI0
aI0
asI4737
(lp3661
I0
aI0
aI0
asI4738
(lp3662
I0
aI0
aI0
asI4739
(lp3663
I0
aI0
aI0
asI4740
(lp3664
I0
aI0
aI2
asI4741
(lp3665
I0
aI0
aI0
asI4742
(lp3666
I0
aI0
aI1
asI4743
(lp3667
I0
aI0
aI6
asI4744
(lp3668
I0
aI0
aI0
asI4745
(lp3669
I0
aI0
aI0
asI4746
(lp3670
I0
aI0
aI0
asI4747
(lp3671
I0
aI0
aI0
asI4748
(lp3672
I6
aI0
aI4
asI4749
(lp3673
I0
aI0
aI0
asI4750
(lp3674
I0
aI0
aI0
asI4751
(lp3675
I1
aI0
aI1
asI4752
(lp3676
I0
aI0
aI0
asI4753
(lp3677
I1
aI0
aI0
asI4754
(lp3678
I7
aI0
aI6
asI4755
(lp3679
I0
aI0
aI1
asI4756
(lp3680
I0
aI0
aI0
asI4757
(lp3681
I0
aI0
aI0
asI4758
(lp3682
I0
aI0
aI0
asI4759
(lp3683
I0
aI0
aI0
asI4760
(lp3684
I0
aI0
aI0
asI4761
(lp3685
I2
aI1
aI5
asI4762
(lp3686
I0
aI0
aI0
asI4763
(lp3687
I0
aI0
aI0
asI4764
(lp3688
I0
aI0
aI2
asI4765
(lp3689
I0
aI0
aI0
asI4766
(lp3690
I0
aI0
aI0
asI4767
(lp3691
I0
aI0
aI0
asI4768
(lp3692
I0
aI0
aI0
asI4769
(lp3693
I0
aI0
aI0
asI4770
(lp3694
I0
aI0
aI0
asI4771
(lp3695
I1
aI0
aI1
asI4772
(lp3696
I0
aI0
aI0
asI4773
(lp3697
I1
aI0
aI0
asI4775
(lp3698
I0
aI0
aI0
asI4776
(lp3699
I0
aI0
aI0
asI4777
(lp3700
I0
aI0
aI0
asI4778
(lp3701
I0
aI0
aI0
asI4779
(lp3702
I0
aI0
aI3
asI4780
(lp3703
I0
aI0
aI0
asI4781
(lp3704
I0
aI0
aI0
asI4782
(lp3705
I0
aI0
aI0
asI4783
(lp3706
I0
aI0
aI0
asI4784
(lp3707
I0
aI0
aI0
asI4785
(lp3708
I0
aI0
aI0
asI4786
(lp3709
I0
aI0
aI0
asI4787
(lp3710
I0
aI0
aI0
asI4788
(lp3711
I0
aI0
aI0
asI4789
(lp3712
I0
aI0
aI0
asI4790
(lp3713
I0
aI0
aI0
asI4791
(lp3714
I0
aI0
aI0
asI4792
(lp3715
I0
aI0
aI0
asI4793
(lp3716
I0
aI0
aI2
asI4794
(lp3717
I0
aI0
aI0
asI4796
(lp3718
I0
aI0
aI1
asI4797
(lp3719
I0
aI0
aI0
asI4798
(lp3720
I0
aI1
aI0
asI4799
(lp3721
I0
aI0
aI0
asI4800
(lp3722
I0
aI0
aI2
asI4801
(lp3723
I0
aI0
aI0
asI4802
(lp3724
I0
aI0
aI0
asI4803
(lp3725
I1
aI0
aI0
asI4804
(lp3726
I0
aI0
aI0
asI4805
(lp3727
I0
aI0
aI0
asI4806
(lp3728
I0
aI0
aI63
asI4807
(lp3729
I1
aI0
aI1
asI4808
(lp3730
I1
aI0
aI0
asI4809
(lp3731
I0
aI0
aI0
asI4810
(lp3732
I0
aI0
aI1
asI4811
(lp3733
I0
aI0
aI0
asI4812
(lp3734
I0
aI1
aI0
asI4813
(lp3735
I0
aI1
aI0
asI4814
(lp3736
I0
aI0
aI2
asI4815
(lp3737
I0
aI0
aI0
asI4816
(lp3738
I0
aI0
aI0
asI4817
(lp3739
I0
aI0
aI0
asI4818
(lp3740
I0
aI0
aI0
asI4819
(lp3741
I2
aI1
aI1
asI4820
(lp3742
I0
aI0
aI3
asI4821
(lp3743
I0
aI0
aI0
asI4822
(lp3744
I0
aI0
aI0
asI4823
(lp3745
I0
aI1
aI0
asI4824
(lp3746
I0
aI0
aI0
asI4825
(lp3747
I0
aI0
aI0
asI4826
(lp3748
I0
aI0
aI0
asI4827
(lp3749
I0
aI0
aI2
asI4828
(lp3750
I0
aI0
aI0
asI4829
(lp3751
I0
aI0
aI1
asI4830
(lp3752
I0
aI0
aI4
asI4831
(lp3753
I0
aI0
aI3
asI4832
(lp3754
I0
aI0
aI0
asI4833
(lp3755
I4
aI0
aI3
asI4834
(lp3756
I0
aI0
aI1
asI4835
(lp3757
I2
aI0
aI0
asI4836
(lp3758
I0
aI0
aI0
asI4837
(lp3759
I0
aI0
aI1
asI4838
(lp3760
I0
aI0
aI0
asI4839
(lp3761
I0
aI0
aI0
asI4840
(lp3762
I1
aI0
aI11
asI4841
(lp3763
I0
aI0
aI6
asI4842
(lp3764
I0
aI0
aI0
asI4843
(lp3765
I0
aI0
aI0
asI4845
(lp3766
I0
aI1
aI1
asI4846
(lp3767
I0
aI0
aI0
asI4847
(lp3768
I0
aI0
aI0
asI4848
(lp3769
I0
aI0
aI0
asI4849
(lp3770
I0
aI0
aI0
asI4850
(lp3771
I0
aI0
aI5
asI4851
(lp3772
I0
aI0
aI0
asI4852
(lp3773
I0
aI0
aI0
asI4853
(lp3774
I0
aI0
aI0
asI4854
(lp3775
I1
aI0
aI0
asI4855
(lp3776
I0
aI0
aI0
asI4856
(lp3777
I0
aI0
aI0
asI4857
(lp3778
I0
aI0
aI0
asI4858
(lp3779
I0
aI0
aI0
asI4859
(lp3780
I0
aI0
aI0
asI4860
(lp3781
I0
aI0
aI0
asI4861
(lp3782
I0
aI0
aI0
asI4862
(lp3783
I0
aI0
aI0
asI4863
(lp3784
I0
aI0
aI0
asI4864
(lp3785
I0
aI0
aI3
asI4865
(lp3786
I0
aI0
aI0
asI4866
(lp3787
I0
aI0
aI0
asI4867
(lp3788
I0
aI0
aI0
asI4868
(lp3789
I0
aI0
aI0
asI4869
(lp3790
I0
aI0
aI0
asI4870
(lp3791
I1
aI0
aI1
asI4871
(lp3792
I0
aI0
aI0
asI4872
(lp3793
I0
aI0
aI0
asI4873
(lp3794
I0
aI0
aI0
asI4874
(lp3795
I0
aI0
aI0
asI4875
(lp3796
I0
aI0
aI0
asI4877
(lp3797
I0
aI0
aI0
asI4878
(lp3798
I0
aI0
aI0
asI4879
(lp3799
I0
aI0
aI0
asI4880
(lp3800
I0
aI0
aI0
asI4881
(lp3801
I0
aI0
aI0
asI4882
(lp3802
I1
aI0
aI0
asI4883
(lp3803
I0
aI0
aI0
asI4884
(lp3804
I0
aI0
aI0
asI4885
(lp3805
I0
aI0
aI0
asI4886
(lp3806
I0
aI0
aI0
asI4887
(lp3807
I0
aI0
aI0
asI4888
(lp3808
I0
aI0
aI0
asI4889
(lp3809
I0
aI0
aI0
asI4890
(lp3810
I1
aI0
aI0
asI4891
(lp3811
I0
aI0
aI0
asI4892
(lp3812
I0
aI0
aI0
asI4893
(lp3813
I0
aI0
aI0
asI4894
(lp3814
I0
aI0
aI0
asI4895
(lp3815
I0
aI0
aI2
asI4896
(lp3816
I0
aI0
aI0
asI4897
(lp3817
I1
aI0
aI0
asI4898
(lp3818
I1
aI0
aI0
asI4899
(lp3819
I0
aI1
aI0
asI4900
(lp3820
I0
aI0
aI0
asI4901
(lp3821
I0
aI0
aI0
asI4902
(lp3822
I1
aI0
aI1
asI4903
(lp3823
I0
aI2
aI0
asI4904
(lp3824
I0
aI0
aI0
asI4905
(lp3825
I0
aI0
aI0
asI4906
(lp3826
I0
aI0
aI0
asI4907
(lp3827
I0
aI0
aI0
asI4908
(lp3828
I0
aI0
aI0
asI4909
(lp3829
I0
aI1
aI0
asI4910
(lp3830
I0
aI0
aI2
asI4911
(lp3831
I0
aI0
aI0
asI4912
(lp3832
I0
aI0
aI0
asI4913
(lp3833
I7
aI4
aI14
asI4914
(lp3834
I0
aI0
aI0
asI4915
(lp3835
I0
aI0
aI0
asI4916
(lp3836
I0
aI0
aI0
asI4917
(lp3837
I0
aI0
aI0
asI4918
(lp3838
I0
aI0
aI0
asI4919
(lp3839
I0
aI0
aI1
asI4920
(lp3840
I0
aI0
aI0
asI4922
(lp3841
I0
aI2
aI32
asI4923
(lp3842
I0
aI0
aI0
asI4924
(lp3843
I0
aI0
aI0
asI4925
(lp3844
I0
aI0
aI0
asI4926
(lp3845
I1
aI0
aI3
asI4927
(lp3846
I0
aI0
aI0
asI4928
(lp3847
I0
aI0
aI0
asI4929
(lp3848
I0
aI0
aI0
asI4930
(lp3849
I0
aI1
aI1
asI4931
(lp3850
I0
aI0
aI2
asI4932
(lp3851
I0
aI16
aI24
asI4933
(lp3852
I0
aI0
aI0
asI4934
(lp3853
I0
aI0
aI0
asI4935
(lp3854
I0
aI0
aI0
asI4936
(lp3855
I0
aI0
aI0
asI4937
(lp3856
I0
aI0
aI0
asI4938
(lp3857
I0
aI0
aI0
asI4939
(lp3858
I25
aI69
aI1583
asI4940
(lp3859
I0
aI0
aI0
asI4941
(lp3860
I0
aI0
aI0
asI4942
(lp3861
I0
aI0
aI2
asI4943
(lp3862
I0
aI0
aI0
asI4944
(lp3863
I0
aI0
aI0
asI4945
(lp3864
I0
aI0
aI0
asI4946
(lp3865
I0
aI0
aI0
asI4947
(lp3866
I4
aI2
aI3
asI4948
(lp3867
I0
aI0
aI0
asI4949
(lp3868
I0
aI0
aI0
asI4950
(lp3869
I0
aI0
aI0
asI4951
(lp3870
I1
aI0
aI0
asI4952
(lp3871
I0
aI0
aI0
asI4953
(lp3872
I0
aI0
aI0
asI4954
(lp3873
I0
aI0
aI0
asI4955
(lp3874
I1
aI1
aI0
asI4956
(lp3875
I0
aI0
aI0
asI4957
(lp3876
I0
aI0
aI0
asI4958
(lp3877
I0
aI0
aI0
asI4959
(lp3878
I0
aI0
aI2
asI4960
(lp3879
I1
aI0
aI2
asI4961
(lp3880
I0
aI0
aI1
asI4962
(lp3881
I0
aI0
aI0
asI4963
(lp3882
I3
aI1
aI2
asI4964
(lp3883
I0
aI0
aI0
asI4965
(lp3884
I0
aI0
aI0
asI4966
(lp3885
I0
aI0
aI0
asI4967
(lp3886
I0
aI0
aI0
asI4968
(lp3887
I0
aI0
aI0
asI4970
(lp3888
I0
aI0
aI0
asI4971
(lp3889
I0
aI0
aI0
asI4972
(lp3890
I1
aI0
aI0
asI4973
(lp3891
I0
aI0
aI0
asI4974
(lp3892
I0
aI0
aI0
asI4975
(lp3893
I0
aI0
aI4
asI4976
(lp3894
I0
aI0
aI5
asI4977
(lp3895
I0
aI0
aI0
asI4978
(lp3896
I0
aI0
aI2
asI4979
(lp3897
I0
aI0
aI0
asI4980
(lp3898
I0
aI0
aI0
asI4981
(lp3899
I0
aI0
aI2
asI4982
(lp3900
I0
aI0
aI0
asI4983
(lp3901
I0
aI0
aI0
asI4984
(lp3902
I0
aI0
aI0
asI4985
(lp3903
I3
aI1
aI67
asI4986
(lp3904
I0
aI0
aI0
asI4987
(lp3905
I0
aI0
aI0
asI4988
(lp3906
I0
aI0
aI0
asI4989
(lp3907
I0
aI0
aI0
asI4990
(lp3908
I0
aI0
aI0
asI4991
(lp3909
I0
aI0
aI0
asI4992
(lp3910
I0
aI0
aI0
asI4993
(lp3911
I0
aI1
aI5
asI4994
(lp3912
I0
aI0
aI0
asI4995
(lp3913
I0
aI0
aI0
asI4996
(lp3914
I0
aI1
aI0
asI4997
(lp3915
I0
aI0
aI0
asI4998
(lp3916
I0
aI0
aI0
asI4999
(lp3917
I1
aI0
aI0
asI5000
(lp3918
I0
aI0
aI0
asI5001
(lp3919
I0
aI0
aI0
asI5002
(lp3920
I0
aI0
aI0
asI5003
(lp3921
I1
aI0
aI0
asI5004
(lp3922
I0
aI0
aI0
asI5005
(lp3923
I1
aI0
aI3
asI5006
(lp3924
I0
aI0
aI0
asI5007
(lp3925
I1
aI0
aI1
asI5008
(lp3926
I0
aI0
aI0
asI5009
(lp3927
I0
aI0
aI2
asI5010
(lp3928
I8
aI1
aI15
asI5011
(lp3929
I4
aI0
aI9
asI5012
(lp3930
I0
aI0
aI1
asI5013
(lp3931
I0
aI0
aI0
asI5014
(lp3932
I0
aI0
aI0
asI5015
(lp3933
I0
aI0
aI4
asI5016
(lp3934
I0
aI4
aI0
asI5017
(lp3935
I0
aI0
aI0
asI5018
(lp3936
I0
aI0
aI0
asI5019
(lp3937
I2
aI0
aI2
asI5020
(lp3938
I0
aI0
aI1
asI5021
(lp3939
I0
aI0
aI0
asI5022
(lp3940
I2
aI0
aI0
asI5023
(lp3941
I0
aI0
aI3
asI5024
(lp3942
I0
aI0
aI0
asI5025
(lp3943
I0
aI0
aI1
asI5026
(lp3944
I0
aI2
aI0
asI5027
(lp3945
I0
aI0
aI0
asI5028
(lp3946
I0
aI0
aI0
asI5029
(lp3947
I0
aI0
aI0
asI5030
(lp3948
I0
aI0
aI0
asI5031
(lp3949
I0
aI0
aI0
asI5032
(lp3950
I0
aI0
aI0
asI5033
(lp3951
I0
aI0
aI0
asI5034
(lp3952
I0
aI0
aI0
asI5035
(lp3953
I0
aI0
aI0
asI5036
(lp3954
I1
aI0
aI3
asI5037
(lp3955
I0
aI0
aI0
asI5038
(lp3956
I2
aI0
aI0
asI5039
(lp3957
I0
aI1
aI0
asI5040
(lp3958
I0
aI0
aI0
asI5042
(lp3959
I0
aI0
aI0
asI5043
(lp3960
I7
aI4
aI5
asI5044
(lp3961
I0
aI0
aI0
asI5045
(lp3962
I1
aI0
aI1
asI5046
(lp3963
I1
aI0
aI0
asI5047
(lp3964
I0
aI0
aI1
asI5048
(lp3965
I0
aI0
aI0
asI5049
(lp3966
I3
aI1
aI0
asI5050
(lp3967
I0
aI0
aI0
asI5051
(lp3968
I0
aI0
aI0
asI5052
(lp3969
I0
aI0
aI1
asI5053
(lp3970
I0
aI0
aI0
asI5054
(lp3971
I0
aI0
aI0
asI5055
(lp3972
I0
aI0
aI0
asI5056
(lp3973
I0
aI0
aI2
asI5057
(lp3974
I1
aI0
aI1
asI5058
(lp3975
I0
aI0
aI0
asI5059
(lp3976
I0
aI0
aI0
asI5060
(lp3977
I0
aI0
aI0
asI5061
(lp3978
I0
aI0
aI0
asI5062
(lp3979
I0
aI1
aI0
asI5063
(lp3980
I0
aI0
aI0
asI5064
(lp3981
I0
aI0
aI0
asI5065
(lp3982
I0
aI0
aI2
asI5066
(lp3983
I1
aI0
aI0
asI5067
(lp3984
I0
aI0
aI0
asI5068
(lp3985
I0
aI0
aI0
asI5069
(lp3986
I0
aI0
aI0
asI5070
(lp3987
I0
aI3
aI3
asI5071
(lp3988
I0
aI0
aI0
asI5072
(lp3989
I0
aI0
aI12
asI5073
(lp3990
I0
aI0
aI0
asI5074
(lp3991
I0
aI0
aI0
asI5075
(lp3992
I0
aI0
aI0
asI5076
(lp3993
I0
aI1
aI0
asI5077
(lp3994
I0
aI0
aI0
asI5078
(lp3995
I0
aI0
aI0
asI5079
(lp3996
I0
aI0
aI2
asI5080
(lp3997
I0
aI0
aI0
asI5081
(lp3998
I5
aI1
aI6
asI5082
(lp3999
I0
aI0
aI0
asI5083
(lp4000
I0
aI0
aI0
asI5084
(lp4001
I0
aI0
aI0
asI5085
(lp4002
I0
aI0
aI0
asI5086
(lp4003
I0
aI0
aI1
asI5087
(lp4004
I1
aI0
aI2
asI5088
(lp4005
I0
aI0
aI0
asI5089
(lp4006
I2
aI0
aI0
asI5090
(lp4007
I0
aI0
aI0
asI5091
(lp4008
I0
aI0
aI0
asI5092
(lp4009
I0
aI0
aI0
asI5093
(lp4010
I0
aI0
aI0
asI5094
(lp4011
I0
aI0
aI0
asI5095
(lp4012
I0
aI0
aI0
asI5096
(lp4013
I0
aI0
aI0
asI5097
(lp4014
I0
aI0
aI0
asI5098
(lp4015
I0
aI0
aI0
asI5099
(lp4016
I0
aI0
aI0
asI5100
(lp4017
I0
aI0
aI0
asI5101
(lp4018
I0
aI0
aI0
asI5102
(lp4019
I0
aI0
aI0
asI5103
(lp4020
I0
aI0
aI3
asI5104
(lp4021
I0
aI0
aI2
asI5105
(lp4022
I0
aI0
aI0
asI5106
(lp4023
I0
aI0
aI2
asI5107
(lp4024
I0
aI0
aI0
asI5108
(lp4025
I0
aI1
aI0
asI5109
(lp4026
I0
aI0
aI0
asI5110
(lp4027
I0
aI0
aI0
asI5111
(lp4028
I0
aI0
aI1
asI5112
(lp4029
I0
aI0
aI0
asI5113
(lp4030
I0
aI0
aI3
asI5114
(lp4031
I0
aI0
aI0
asI5115
(lp4032
I0
aI0
aI0
asI5116
(lp4033
I0
aI0
aI0
asI5117
(lp4034
I0
aI0
aI2
asI5118
(lp4035
I0
aI0
aI0
asI5119
(lp4036
I0
aI0
aI0
asI5120
(lp4037
I0
aI0
aI0
asI5121
(lp4038
I0
aI0
aI0
asI5122
(lp4039
I0
aI0
aI2
asI5123
(lp4040
I1
aI0
aI0
asI5124
(lp4041
I0
aI0
aI0
asI5125
(lp4042
I0
aI0
aI0
asI5126
(lp4043
I0
aI0
aI0
asI5127
(lp4044
I0
aI0
aI0
asI5128
(lp4045
I0
aI0
aI0
asI5129
(lp4046
I0
aI1
aI0
asI5130
(lp4047
I0
aI0
aI0
asI5131
(lp4048
I0
aI0
aI0
asI5132
(lp4049
I0
aI0
aI0
asI5133
(lp4050
I0
aI0
aI0
asI5134
(lp4051
I0
aI0
aI0
asI5135
(lp4052
I0
aI0
aI2
asI5136
(lp4053
I0
aI0
aI0
asI5137
(lp4054
I0
aI0
aI0
asI5138
(lp4055
I0
aI0
aI0
asI5139
(lp4056
I0
aI5
aI3
asI5140
(lp4057
I0
aI0
aI1
asI5141
(lp4058
I1
aI0
aI5
asI5142
(lp4059
I0
aI0
aI2
asI5143
(lp4060
I0
aI0
aI0
asI5144
(lp4061
I1
aI0
aI0
asI5145
(lp4062
I0
aI0
aI0
asI5146
(lp4063
I0
aI0
aI0
asI5147
(lp4064
I0
aI0
aI0
asI5148
(lp4065
I0
aI1
aI0
asI5150
(lp4066
I0
aI0
aI1
asI5151
(lp4067
I0
aI0
aI0
asI5152
(lp4068
I0
aI0
aI0
asI5153
(lp4069
I0
aI0
aI0
asI5154
(lp4070
I1
aI0
aI3
asI5155
(lp4071
I0
aI0
aI0
asI5156
(lp4072
I0
aI0
aI4
asI5157
(lp4073
I0
aI0
aI1
asI5158
(lp4074
I0
aI1
aI0
asI5159
(lp4075
I0
aI0
aI0
asI5160
(lp4076
I0
aI0
aI0
asI5161
(lp4077
I0
aI0
aI0
asI5162
(lp4078
I1
aI0
aI0
asI5163
(lp4079
I0
aI0
aI0
asI5164
(lp4080
I1
aI0
aI0
asI5165
(lp4081
I2
aI0
aI1
asI5166
(lp4082
I0
aI0
aI0
asI5167
(lp4083
I1
aI0
aI0
asI5168
(lp4084
I1
aI0
aI0
asI5169
(lp4085
I0
aI0
aI0
asI5170
(lp4086
I0
aI0
aI1
asI5172
(lp4087
I0
aI1
aI0
asI5173
(lp4088
I0
aI0
aI0
asI5174
(lp4089
I0
aI0
aI0
asI5175
(lp4090
I0
aI0
aI0
asI5176
(lp4091
I0
aI0
aI0
asI5177
(lp4092
I0
aI0
aI0
asI5178
(lp4093
I0
aI0
aI0
asI5179
(lp4094
I1
aI0
aI0
asI5180
(lp4095
I0
aI0
aI0
asI5181
(lp4096
I6
aI0
aI2
asI5182
(lp4097
I1
aI0
aI4
asI5183
(lp4098
I0
aI0
aI0
asI5184
(lp4099
I0
aI0
aI0
asI5185
(lp4100
I0
aI0
aI0
asI5186
(lp4101
I0
aI0
aI4
asI5187
(lp4102
I0
aI0
aI0
asI5188
(lp4103
I0
aI0
aI0
asI5189
(lp4104
I0
aI0
aI0
asI5190
(lp4105
I0
aI1
aI3
asI5191
(lp4106
I0
aI0
aI0
asI5192
(lp4107
I0
aI0
aI0
asI5193
(lp4108
I0
aI0
aI0
asI5194
(lp4109
I0
aI0
aI0
asI5195
(lp4110
I0
aI0
aI0
asI5196
(lp4111
I0
aI0
aI0
asI5197
(lp4112
I0
aI0
aI0
asI5198
(lp4113
I0
aI0
aI1
asI5199
(lp4114
I1
aI0
aI0
asI5200
(lp4115
I0
aI0
aI0
asI5201
(lp4116
I1
aI0
aI1
asI5202
(lp4117
I0
aI0
aI0
asI5203
(lp4118
I0
aI0
aI1
asI5204
(lp4119
I0
aI0
aI0
asI5205
(lp4120
I0
aI0
aI0
asI5206
(lp4121
I0
aI0
aI0
asI5207
(lp4122
I0
aI0
aI2
asI5208
(lp4123
I0
aI0
aI0
asI5209
(lp4124
I0
aI0
aI0
asI5210
(lp4125
I1
aI0
aI1
asI5211
(lp4126
I0
aI0
aI0
asI5212
(lp4127
I0
aI0
aI0
asI5213
(lp4128
I0
aI0
aI0
asI5214
(lp4129
I1
aI1
aI1
asI5215
(lp4130
I0
aI0
aI0
asI5216
(lp4131
I0
aI0
aI0
asI5217
(lp4132
I0
aI0
aI2
asI5218
(lp4133
I0
aI0
aI0
asI5219
(lp4134
I0
aI0
aI0
asI5220
(lp4135
I0
aI0
aI0
asI5221
(lp4136
I0
aI0
aI0
asI5222
(lp4137
I1
aI0
aI0
asI5223
(lp4138
I0
aI1
aI6
asI5224
(lp4139
I0
aI0
aI0
asI5225
(lp4140
I0
aI0
aI0
asI5226
(lp4141
I0
aI0
aI0
asI5227
(lp4142
I0
aI0
aI0
asI5228
(lp4143
I0
aI0
aI2
asI5229
(lp4144
I0
aI24
aI25
asI5230
(lp4145
I0
aI1
aI0
asI5231
(lp4146
I0
aI0
aI0
asI5232
(lp4147
I0
aI1
aI0
asI5233
(lp4148
I0
aI0
aI0
asI5234
(lp4149
I0
aI0
aI0
asI5236
(lp4150
I0
aI0
aI0
asI5237
(lp4151
I0
aI0
aI2
asI5238
(lp4152
I0
aI0
aI0
asI5239
(lp4153
I0
aI0
aI1
asI5240
(lp4154
I0
aI0
aI0
asI5241
(lp4155
I0
aI0
aI0
asI5242
(lp4156
I0
aI0
aI0
asI5243
(lp4157
I2
aI0
aI2
asI5244
(lp4158
I0
aI0
aI0
asI5245
(lp4159
I0
aI0
aI0
asI5246
(lp4160
I0
aI0
aI0
asI5247
(lp4161
I0
aI0
aI0
asI5248
(lp4162
I0
aI0
aI0
asI5249
(lp4163
I0
aI0
aI0
asI5250
(lp4164
I0
aI0
aI0
asI5251
(lp4165
I1
aI0
aI0
asI5252
(lp4166
I0
aI0
aI0
asI5253
(lp4167
I0
aI0
aI0
asI5254
(lp4168
I0
aI0
aI0
asI5255
(lp4169
I1
aI0
aI0
asI5256
(lp4170
I0
aI0
aI0
asI5257
(lp4171
I0
aI0
aI0
asI5258
(lp4172
I1
aI0
aI1
asI5259
(lp4173
I0
aI0
aI0
asI5260
(lp4174
I0
aI0
aI1
asI5261
(lp4175
I0
aI0
aI0
asI5262
(lp4176
I0
aI0
aI0
asI5263
(lp4177
I0
aI0
aI0
asI5264
(lp4178
I0
aI0
aI0
asI5265
(lp4179
I0
aI0
aI0
asI5266
(lp4180
I0
aI0
aI0
asI5267
(lp4181
I0
aI0
aI0
asI5268
(lp4182
I0
aI0
aI2
asI5269
(lp4183
I0
aI0
aI0
asI5270
(lp4184
I0
aI0
aI5
asI5271
(lp4185
I0
aI0
aI0
asI5272
(lp4186
I0
aI0
aI0
asI5273
(lp4187
I0
aI0
aI0
asI5274
(lp4188
I0
aI0
aI0
asI5275
(lp4189
I1
aI1
aI0
asI5276
(lp4190
I0
aI0
aI0
asI5277
(lp4191
I0
aI0
aI0
asI5278
(lp4192
I0
aI0
aI0
asI5279
(lp4193
I0
aI0
aI0
asI5280
(lp4194
I2
aI0
aI127
asI5281
(lp4195
I0
aI0
aI0
asI5282
(lp4196
I0
aI0
aI0
asI5283
(lp4197
I0
aI0
aI3
asI5284
(lp4198
I0
aI0
aI1
asI5285
(lp4199
I1
aI0
aI2
asI5286
(lp4200
I0
aI0
aI0
asI5287
(lp4201
I0
aI0
aI0
asI5288
(lp4202
I0
aI0
aI0
asI5289
(lp4203
I0
aI0
aI0
asI5290
(lp4204
I0
aI0
aI2
asI5291
(lp4205
I0
aI0
aI0
asI5292
(lp4206
I0
aI0
aI0
asI5293
(lp4207
I0
aI0
aI0
asI5294
(lp4208
I0
aI0
aI0
asI5295
(lp4209
I0
aI0
aI2
asI5296
(lp4210
I0
aI0
aI0
asI5297
(lp4211
I0
aI0
aI0
asI5298
(lp4212
I0
aI1
aI0
asI5299
(lp4213
I0
aI0
aI0
asI5300
(lp4214
I0
aI0
aI0
asI5301
(lp4215
I0
aI0
aI1
asI5302
(lp4216
I0
aI0
aI0
asI5303
(lp4217
I0
aI0
aI0
asI5304
(lp4218
I0
aI0
aI0
asI5305
(lp4219
I0
aI0
aI0
asI5306
(lp4220
I0
aI1
aI0
asI5307
(lp4221
I1
aI0
aI0
asI5308
(lp4222
I0
aI0
aI0
asI5309
(lp4223
I0
aI0
aI0
asI5310
(lp4224
I0
aI0
aI0
asI5311
(lp4225
I0
aI0
aI0
asI5312
(lp4226
I0
aI0
aI0
asI5313
(lp4227
I0
aI0
aI0
asI5314
(lp4228
I0
aI0
aI0
asI5315
(lp4229
I1
aI0
aI0
asI5316
(lp4230
I1
aI0
aI2
asI5317
(lp4231
I0
aI0
aI0
asI5318
(lp4232
I0
aI0
aI0
asI5319
(lp4233
I1
aI0
aI0
asI5320
(lp4234
I1
aI0
aI0
asI5321
(lp4235
I3
aI0
aI4
asI5322
(lp4236
I0
aI0
aI1
asI5323
(lp4237
I0
aI0
aI0
asI5324
(lp4238
I0
aI0
aI0
asI5325
(lp4239
I0
aI0
aI0
asI5326
(lp4240
I0
aI0
aI0
asI5327
(lp4241
I0
aI0
aI0
asI5328
(lp4242
I10
aI4
aI0
asI5329
(lp4243
I1
aI0
aI0
asI5330
(lp4244
I0
aI0
aI0
asI5331
(lp4245
I0
aI4
aI0
asI5332
(lp4246
I0
aI0
aI0
asI5333
(lp4247
I0
aI0
aI0
asI5334
(lp4248
I0
aI0
aI5
asI5335
(lp4249
I1
aI0
aI0
asI5336
(lp4250
I0
aI0
aI0
asI5337
(lp4251
I0
aI1
aI0
asI5338
(lp4252
I0
aI0
aI0
asI5339
(lp4253
I2
aI0
aI2
asI5340
(lp4254
I0
aI0
aI0
asI5341
(lp4255
I1
aI0
aI2
asI5342
(lp4256
I1
aI0
aI5
asI5343
(lp4257
I0
aI0
aI0
asI5344
(lp4258
I0
aI0
aI0
asI5345
(lp4259
I0
aI0
aI0
asI5346
(lp4260
I1
aI0
aI0
asI5347
(lp4261
I0
aI0
aI0
asI5348
(lp4262
I0
aI0
aI0
asI5349
(lp4263
I0
aI0
aI0
asI5350
(lp4264
I0
aI0
aI0
asI5351
(lp4265
I0
aI0
aI0
asI5352
(lp4266
I0
aI0
aI0
asI5353
(lp4267
I0
aI0
aI0
asI5354
(lp4268
I0
aI0
aI0
asI5355
(lp4269
I0
aI0
aI0
asI5356
(lp4270
I0
aI0
aI0
asI5357
(lp4271
I0
aI0
aI0
asI5358
(lp4272
I0
aI0
aI0
asI5359
(lp4273
I0
aI1
aI3
asI5360
(lp4274
I0
aI0
aI0
asI5361
(lp4275
I0
aI0
aI0
asI5362
(lp4276
I0
aI0
aI0
asI5363
(lp4277
I0
aI0
aI0
asI5364
(lp4278
I0
aI0
aI0
asI5365
(lp4279
I5
aI0
aI3
asI5366
(lp4280
I0
aI0
aI0
asI5367
(lp4281
I0
aI0
aI2
asI5368
(lp4282
I0
aI0
aI0
asI5369
(lp4283
I0
aI0
aI0
asI5370
(lp4284
I3
aI0
aI5
asI5371
(lp4285
I0
aI0
aI0
asI5372
(lp4286
I1
aI0
aI0
asI5373
(lp4287
I4
aI0
aI14
asI5374
(lp4288
I1
aI0
aI0
asI5375
(lp4289
I0
aI0
aI0
asI5376
(lp4290
I0
aI0
aI0
asI5377
(lp4291
I0
aI0
aI0
asI5378
(lp4292
I0
aI0
aI0
asI5379
(lp4293
I0
aI0
aI1
asI5381
(lp4294
I0
aI0
aI0
asI5382
(lp4295
I0
aI0
aI0
asI5383
(lp4296
I0
aI0
aI0
asI5384
(lp4297
I0
aI0
aI0
asI5385
(lp4298
I0
aI0
aI0
asI5386
(lp4299
I0
aI0
aI0
asI5387
(lp4300
I0
aI0
aI0
asI5388
(lp4301
I0
aI0
aI0
asI5389
(lp4302
I0
aI0
aI0
asI5390
(lp4303
I0
aI0
aI0
asI5391
(lp4304
I0
aI0
aI0
asI5392
(lp4305
I0
aI0
aI0
asI5393
(lp4306
I0
aI0
aI0
asI5394
(lp4307
I0
aI0
aI0
asI5395
(lp4308
I0
aI0
aI0
asI5396
(lp4309
I0
aI0
aI0
asI5397
(lp4310
I1
aI0
aI2
asI5398
(lp4311
I0
aI0
aI1
asI5399
(lp4312
I1
aI0
aI19
asI5400
(lp4313
I0
aI0
aI0
asI5401
(lp4314
I0
aI0
aI0
asI5402
(lp4315
I0
aI0
aI0
asI5403
(lp4316
I1
aI0
aI0
asI5404
(lp4317
I0
aI0
aI2
asI5405
(lp4318
I0
aI0
aI0
asI5406
(lp4319
I0
aI0
aI0
asI5407
(lp4320
I0
aI0
aI0
asI5408
(lp4321
I0
aI0
aI0
asI5409
(lp4322
I0
aI0
aI1
asI5410
(lp4323
I0
aI0
aI0
asI5411
(lp4324
I0
aI0
aI0
asI5412
(lp4325
I0
aI0
aI0
asI5414
(lp4326
I0
aI0
aI0
asI5415
(lp4327
I0
aI0
aI0
asI5416
(lp4328
I0
aI0
aI4
asI5417
(lp4329
I0
aI0
aI0
asI5418
(lp4330
I0
aI0
aI0
asI5419
(lp4331
I0
aI0
aI1
asI5420
(lp4332
I0
aI0
aI0
asI5421
(lp4333
I0
aI0
aI0
asI5422
(lp4334
I0
aI0
aI4
asI5423
(lp4335
I1
aI1
aI2
asI5425
(lp4336
I1
aI0
aI1
asI5426
(lp4337
I0
aI0
aI0
asI5427
(lp4338
I0
aI0
aI0
asI5428
(lp4339
I0
aI0
aI0
asI5429
(lp4340
I0
aI0
aI0
asI5430
(lp4341
I0
aI0
aI0
asI5431
(lp4342
I0
aI0
aI0
asI5432
(lp4343
I0
aI0
aI0
asI5433
(lp4344
I0
aI0
aI1
asI5434
(lp4345
I0
aI0
aI0
asI5435
(lp4346
I0
aI0
aI0
asI5436
(lp4347
I0
aI0
aI2
asI5437
(lp4348
I0
aI0
aI1
asI5438
(lp4349
I0
aI0
aI0
asI5439
(lp4350
I1
aI0
aI1
asI5440
(lp4351
I0
aI0
aI0
asI5441
(lp4352
I0
aI0
aI0
asI5442
(lp4353
I0
aI0
aI0
asI5443
(lp4354
I0
aI0
aI0
asI5444
(lp4355
I0
aI0
aI2
asI5445
(lp4356
I0
aI0
aI3
asI5446
(lp4357
I0
aI0
aI0
asI5447
(lp4358
I0
aI0
aI0
asI5448
(lp4359
I0
aI0
aI0
asI5449
(lp4360
I12
aI3
aI13
asI5450
(lp4361
I0
aI0
aI0
asI5451
(lp4362
I0
aI0
aI0
asI5452
(lp4363
I0
aI0
aI0
asI5453
(lp4364
I0
aI0
aI0
asI5454
(lp4365
I4
aI0
aI0
asI5456
(lp4366
I0
aI0
aI0
asI5457
(lp4367
I0
aI0
aI0
asI5458
(lp4368
I0
aI0
aI1
asI5459
(lp4369
I1
aI0
aI1
asI5460
(lp4370
I0
aI0
aI0
asI5461
(lp4371
I0
aI0
aI0
asI5462
(lp4372
I1
aI0
aI1
asI5463
(lp4373
I0
aI0
aI0
asI5464
(lp4374
I2
aI0
aI0
asI5465
(lp4375
I1
aI0
aI7
asI5466
(lp4376
I0
aI2
aI9
asI5467
(lp4377
I0
aI0
aI0
asI5469
(lp4378
I2
aI0
aI0
asI5470
(lp4379
I0
aI0
aI0
asI5471
(lp4380
I0
aI0
aI2
asI5472
(lp4381
I0
aI0
aI0
asI5473
(lp4382
I0
aI0
aI0
asI5474
(lp4383
I0
aI0
aI0
asI5475
(lp4384
I0
aI0
aI0
asI5476
(lp4385
I0
aI0
aI0
asI5477
(lp4386
I0
aI0
aI0
asI5478
(lp4387
I0
aI0
aI0
asI5479
(lp4388
I1
aI0
aI0
asI5480
(lp4389
I0
aI0
aI0
asI5481
(lp4390
I2
aI0
aI5
asI5482
(lp4391
I0
aI0
aI0
asI5483
(lp4392
I0
aI0
aI0
asI5484
(lp4393
I1
aI0
aI6
asI5485
(lp4394
I0
aI0
aI0
asI5486
(lp4395
I1
aI0
aI0
asI5487
(lp4396
I1
aI0
aI1
asI5488
(lp4397
I0
aI0
aI0
asI5489
(lp4398
I0
aI0
aI0
asI5490
(lp4399
I0
aI0
aI0
asI5491
(lp4400
I0
aI0
aI0
asI5492
(lp4401
I1
aI0
aI79
asI5493
(lp4402
I0
aI0
aI0
asI5494
(lp4403
I0
aI0
aI0
asI5495
(lp4404
I0
aI0
aI0
asI5497
(lp4405
I0
aI0
aI0
asI5498
(lp4406
I1
aI0
aI0
asI5499
(lp4407
I0
aI0
aI1
asI5500
(lp4408
I0
aI0
aI5
asI5501
(lp4409
I0
aI0
aI0
asI5502
(lp4410
I1
aI0
aI0
asI5503
(lp4411
I0
aI0
aI0
asI5504
(lp4412
I0
aI0
aI0
asI5505
(lp4413
I0
aI0
aI0
asI5506
(lp4414
I3
aI0
aI3
asI5507
(lp4415
I0
aI0
aI0
asI5508
(lp4416
I0
aI0
aI0
asI5509
(lp4417
I0
aI0
aI0
asI5510
(lp4418
I5
aI3
aI9
asI5511
(lp4419
I0
aI0
aI0
asI5512
(lp4420
I1
aI0
aI1
asI5513
(lp4421
I1
aI1
aI0
asI5514
(lp4422
I0
aI0
aI0
asI5515
(lp4423
I0
aI0
aI0
asI5516
(lp4424
I1
aI0
aI3
asI5517
(lp4425
I0
aI0
aI0
asI5518
(lp4426
I0
aI0
aI0
asI5519
(lp4427
I0
aI0
aI0
asI5520
(lp4428
I0
aI0
aI0
asI5521
(lp4429
I0
aI0
aI0
asI5522
(lp4430
I0
aI0
aI0
asI5523
(lp4431
I0
aI0
aI0
asI5524
(lp4432
I0
aI0
aI0
asI5525
(lp4433
I0
aI0
aI0
asI5526
(lp4434
I0
aI2
aI0
asI5527
(lp4435
I0
aI0
aI0
asI5528
(lp4436
I1
aI0
aI0
asI5529
(lp4437
I0
aI0
aI1
asI5530
(lp4438
I0
aI0
aI5
asI5531
(lp4439
I0
aI0
aI1
asI5532
(lp4440
I0
aI0
aI0
asI5533
(lp4441
I0
aI0
aI0
asI5534
(lp4442
I0
aI0
aI0
asI5535
(lp4443
I0
aI0
aI0
asI5536
(lp4444
I0
aI0
aI2
asI5537
(lp4445
I0
aI0
aI0
asI5538
(lp4446
I0
aI0
aI0
asI5539
(lp4447
I0
aI0
aI0
asI5540
(lp4448
I0
aI0
aI0
asI5541
(lp4449
I0
aI0
aI0
asI5542
(lp4450
I0
aI0
aI0
asI5543
(lp4451
I0
aI0
aI0
asI5544
(lp4452
I0
aI0
aI0
asI5545
(lp4453
I0
aI0
aI0
asI5546
(lp4454
I1
aI1
aI0
asI5547
(lp4455
I0
aI0
aI0
asI5548
(lp4456
I0
aI0
aI0
asI5549
(lp4457
I0
aI0
aI0
asI5550
(lp4458
I0
aI0
aI0
asI5551
(lp4459
I0
aI0
aI1
asI5552
(lp4460
I1
aI0
aI1
asI5553
(lp4461
I0
aI0
aI0
asI5554
(lp4462
I1
aI0
aI0
asI5555
(lp4463
I0
aI0
aI0
asI5556
(lp4464
I0
aI0
aI0
asI5557
(lp4465
I0
aI0
aI0
asI5558
(lp4466
I0
aI0
aI0
asI5559
(lp4467
I0
aI0
aI0
asI5560
(lp4468
I0
aI0
aI0
asI5561
(lp4469
I0
aI0
aI0
asI5562
(lp4470
I0
aI0
aI0
asI5563
(lp4471
I0
aI0
aI0
asI5564
(lp4472
I0
aI0
aI0
asI5565
(lp4473
I0
aI0
aI0
asI5566
(lp4474
I0
aI0
aI0
asI5567
(lp4475
I0
aI0
aI0
asI5568
(lp4476
I0
aI1
aI0
asI5569
(lp4477
I0
aI0
aI0
asI5570
(lp4478
I0
aI0
aI0
asI5571
(lp4479
I0
aI0
aI0
asI5572
(lp4480
I1
aI0
aI0
asI5573
(lp4481
I0
aI0
aI0
asI5574
(lp4482
I1
aI0
aI8
asI5575
(lp4483
I1
aI0
aI17
asI5576
(lp4484
I0
aI0
aI0
asI5577
(lp4485
I0
aI0
aI0
asI5578
(lp4486
I0
aI0
aI2
asI5579
(lp4487
I0
aI0
aI0
asI5580
(lp4488
I0
aI0
aI0
asI5581
(lp4489
I0
aI0
aI0
asI5582
(lp4490
I0
aI0
aI0
asI5583
(lp4491
I0
aI0
aI0
asI5584
(lp4492
I0
aI0
aI0
asI5585
(lp4493
I0
aI0
aI0
asI5586
(lp4494
I0
aI0
aI0
asI5587
(lp4495
I0
aI0
aI0
asI5588
(lp4496
I0
aI0
aI0
asI5589
(lp4497
I0
aI0
aI4
asI5590
(lp4498
I0
aI0
aI0
asI5591
(lp4499
I0
aI0
aI0
asI5592
(lp4500
I0
aI0
aI0
asI5593
(lp4501
I0
aI0
aI1
asI5594
(lp4502
I0
aI0
aI0
asI5595
(lp4503
I0
aI0
aI0
asI5596
(lp4504
I0
aI0
aI0
asI5597
(lp4505
I1
aI0
aI7
asI5598
(lp4506
I1
aI0
aI2
asI5599
(lp4507
I0
aI0
aI0
asI5600
(lp4508
I0
aI0
aI0
asI5601
(lp4509
I1
aI0
aI1
asI5602
(lp4510
I0
aI0
aI0
asI5603
(lp4511
I0
aI0
aI0
asI5604
(lp4512
I0
aI0
aI1
asI5605
(lp4513
I0
aI0
aI0
asI5606
(lp4514
I0
aI0
aI0
asI5607
(lp4515
I0
aI0
aI0
asI5608
(lp4516
I1
aI0
aI0
asI5609
(lp4517
I0
aI0
aI0
asI5610
(lp4518
I0
aI0
aI0
asI5611
(lp4519
I0
aI0
aI0
asI5612
(lp4520
I0
aI0
aI0
asI5613
(lp4521
I0
aI0
aI2
asI5614
(lp4522
I0
aI0
aI0
asI5615
(lp4523
I0
aI0
aI0
asI5616
(lp4524
I0
aI0
aI0
asI5617
(lp4525
I0
aI0
aI0
asI5618
(lp4526
I0
aI0
aI0
asI5619
(lp4527
I0
aI0
aI0
asI5620
(lp4528
I0
aI0
aI0
asI5621
(lp4529
I0
aI0
aI0
asI5622
(lp4530
I0
aI0
aI0
asI5623
(lp4531
I0
aI0
aI0
asI5624
(lp4532
I0
aI0
aI0
asI5625
(lp4533
I0
aI0
aI0
asI5626
(lp4534
I1
aI0
aI0
asI5627
(lp4535
I0
aI0
aI0
asI5628
(lp4536
I0
aI0
aI0
asI5629
(lp4537
I0
aI0
aI0
asI5630
(lp4538
I0
aI0
aI0
asI5631
(lp4539
I1
aI0
aI0
asI5632
(lp4540
I0
aI0
aI0
asI5633
(lp4541
I0
aI0
aI0
asI5634
(lp4542
I0
aI0
aI0
asI5635
(lp4543
I0
aI0
aI0
asI5636
(lp4544
I1
aI0
aI0
asI5637
(lp4545
I0
aI0
aI0
asI5638
(lp4546
I0
aI0
aI2
asI5639
(lp4547
I0
aI0
aI0
asI5640
(lp4548
I0
aI0
aI0
asI5641
(lp4549
I0
aI0
aI0
asI5642
(lp4550
I0
aI0
aI0
asI5643
(lp4551
I0
aI1
aI3
asI5644
(lp4552
I0
aI0
aI0
asI5645
(lp4553
I0
aI0
aI0
asI5646
(lp4554
I0
aI0
aI0
asI5647
(lp4555
I0
aI0
aI0
asI5648
(lp4556
I0
aI0
aI0
asI5649
(lp4557
I0
aI0
aI0
asI5650
(lp4558
I1
aI0
aI7
asI5651
(lp4559
I0
aI0
aI0
asI5652
(lp4560
I1
aI0
aI0
asI5653
(lp4561
I0
aI1
aI1
asI5654
(lp4562
I0
aI0
aI0
asI5655
(lp4563
I0
aI0
aI0
asI5656
(lp4564
I0
aI0
aI0
asI5657
(lp4565
I0
aI0
aI1
asI5658
(lp4566
I0
aI0
aI0
asI5659
(lp4567
I1
aI0
aI0
asI5660
(lp4568
I0
aI0
aI0
asI5661
(lp4569
I0
aI0
aI0
asI5662
(lp4570
I0
aI0
aI1
asI5663
(lp4571
I1
aI0
aI1
asI5664
(lp4572
I0
aI0
aI0
asI5665
(lp4573
I0
aI0
aI0
asI5666
(lp4574
I0
aI0
aI0
asI5667
(lp4575
I0
aI0
aI0
asI5668
(lp4576
I0
aI0
aI0
asI5669
(lp4577
I0
aI0
aI0
asI5670
(lp4578
I0
aI0
aI0
asI5671
(lp4579
I0
aI0
aI0
asI5672
(lp4580
I0
aI0
aI0
asI5673
(lp4581
I0
aI0
aI0
asI5674
(lp4582
I1
aI0
aI0
asI5675
(lp4583
I0
aI0
aI3
asI5676
(lp4584
I0
aI0
aI0
asI5677
(lp4585
I0
aI0
aI0
asI5678
(lp4586
I0
aI0
aI3
asI5679
(lp4587
I0
aI0
aI1
asI5680
(lp4588
I0
aI0
aI0
asI5681
(lp4589
I0
aI0
aI0
asI5682
(lp4590
I1
aI0
aI2
asI5683
(lp4591
I0
aI0
aI0
asI5684
(lp4592
I0
aI0
aI0
asI5685
(lp4593
I0
aI0
aI0
asI5686
(lp4594
I0
aI0
aI0
asI5687
(lp4595
I0
aI0
aI0
asI5690
(lp4596
I0
aI0
aI0
asI5691
(lp4597
I0
aI0
aI0
asI5692
(lp4598
I0
aI0
aI0
asI5693
(lp4599
I1
aI1
aI0
asI5694
(lp4600
I1
aI0
aI0
asI5695
(lp4601
I0
aI1
aI0
asI5696
(lp4602
I0
aI0
aI0
asI5697
(lp4603
I0
aI0
aI0
asI5698
(lp4604
I0
aI1
aI4
asI5699
(lp4605
I0
aI0
aI1
asI5700
(lp4606
I0
aI0
aI2
asI5701
(lp4607
I0
aI0
aI0
asI5702
(lp4608
I0
aI0
aI0
asI5703
(lp4609
I0
aI0
aI0
asI5704
(lp4610
I0
aI0
aI0
asI5705
(lp4611
I0
aI1
aI0
asI5706
(lp4612
I0
aI0
aI0
asI5707
(lp4613
I1
aI0
aI9
asI5708
(lp4614
I0
aI0
aI0
asI5709
(lp4615
I0
aI0
aI0
asI5710
(lp4616
I0
aI0
aI0
asI5711
(lp4617
I0
aI0
aI0
asI5712
(lp4618
I0
aI0
aI0
asI5713
(lp4619
I1
aI1
aI3
asI5714
(lp4620
I0
aI0
aI0
asI5715
(lp4621
I0
aI0
aI0
asI5716
(lp4622
I1
aI0
aI0
asI5717
(lp4623
I0
aI0
aI0
asI5718
(lp4624
I0
aI0
aI0
asI5719
(lp4625
I0
aI1
aI0
asI5720
(lp4626
I1
aI0
aI0
asI5721
(lp4627
I0
aI0
aI0
asI5722
(lp4628
I0
aI0
aI0
asI5723
(lp4629
I0
aI0
aI0
asI5724
(lp4630
I0
aI0
aI0
asI5725
(lp4631
I0
aI0
aI0
asI5726
(lp4632
I1
aI0
aI0
asI5727
(lp4633
I0
aI0
aI0
asI5728
(lp4634
I0
aI0
aI0
asI5729
(lp4635
I0
aI1
aI0
asI5730
(lp4636
I0
aI0
aI0
asI5731
(lp4637
I0
aI0
aI0
asI5732
(lp4638
I1
aI0
aI0
asI5733
(lp4639
I0
aI0
aI4
asI5734
(lp4640
I0
aI0
aI0
asI5735
(lp4641
I0
aI0
aI0
asI5736
(lp4642
I0
aI0
aI0
asI5737
(lp4643
I0
aI0
aI0
asI5738
(lp4644
I0
aI0
aI0
asI5740
(lp4645
I0
aI0
aI0
asI5741
(lp4646
I0
aI0
aI0
asI5742
(lp4647
I0
aI0
aI0
asI5743
(lp4648
I0
aI0
aI0
asI5744
(lp4649
I0
aI0
aI0
asI5745
(lp4650
I0
aI0
aI0
asI5746
(lp4651
I1
aI0
aI2
asI5747
(lp4652
I0
aI0
aI0
asI5748
(lp4653
I0
aI0
aI0
asI5749
(lp4654
I0
aI0
aI0
asI5750
(lp4655
I0
aI0
aI0
asI5751
(lp4656
I0
aI0
aI0
asI5752
(lp4657
I1
aI0
aI0
asI5753
(lp4658
I1
aI0
aI18
asI5754
(lp4659
I0
aI0
aI0
asI5755
(lp4660
I0
aI0
aI0
asI5756
(lp4661
I0
aI0
aI0
asI5757
(lp4662
I0
aI0
aI0
asI5758
(lp4663
I1
aI1
aI0
asI5759
(lp4664
I0
aI0
aI0
asI5760
(lp4665
I0
aI0
aI0
asI5761
(lp4666
I0
aI0
aI0
asI5762
(lp4667
I0
aI0
aI0
asI5763
(lp4668
I0
aI2
aI4
asI5764
(lp4669
I0
aI0
aI0
asI5765
(lp4670
I0
aI0
aI0
asI5766
(lp4671
I0
aI0
aI0
asI5767
(lp4672
I0
aI0
aI0
asI5768
(lp4673
I1
aI0
aI0
asI5769
(lp4674
I0
aI0
aI0
asI5770
(lp4675
I0
aI0
aI0
asI5771
(lp4676
I0
aI0
aI0
asI5772
(lp4677
I2
aI0
aI1
asI5773
(lp4678
I0
aI0
aI0
asI5774
(lp4679
I0
aI0
aI0
asI5775
(lp4680
I0
aI0
aI0
asI5776
(lp4681
I0
aI0
aI0
asI5777
(lp4682
I0
aI0
aI6
asI5778
(lp4683
I3
aI0
aI1
asI5779
(lp4684
I0
aI0
aI0
asI5780
(lp4685
I1
aI0
aI0
asI5781
(lp4686
I0
aI0
aI0
asI5782
(lp4687
I1
aI0
aI0
asI5783
(lp4688
I0
aI0
aI3
asI5784
(lp4689
I0
aI0
aI0
asI5785
(lp4690
I0
aI0
aI0
asI5786
(lp4691
I0
aI0
aI0
asI5787
(lp4692
I0
aI0
aI0
asI5788
(lp4693
I0
aI0
aI0
asI5789
(lp4694
I0
aI0
aI0
asI5790
(lp4695
I0
aI0
aI0
asI5791
(lp4696
I0
aI0
aI464
asI5792
(lp4697
I0
aI0
aI0
asI5793
(lp4698
I0
aI0
aI0
asI5794
(lp4699
I0
aI0
aI0
asI5795
(lp4700
I1
aI0
aI9
asI5796
(lp4701
I0
aI0
aI0
asI5797
(lp4702
I0
aI0
aI0
asI5798
(lp4703
I0
aI0
aI0
asI5799
(lp4704
I0
aI0
aI0
asI5800
(lp4705
I0
aI0
aI0
asI5801
(lp4706
I0
aI0
aI0
asI5802
(lp4707
I0
aI0
aI0
asI5803
(lp4708
I0
aI0
aI3
asI5804
(lp4709
I0
aI0
aI0
asI5805
(lp4710
I0
aI0
aI0
asI5806
(lp4711
I0
aI0
aI0
asI5807
(lp4712
I0
aI0
aI0
asI5808
(lp4713
I0
aI0
aI0
asI5809
(lp4714
I0
aI0
aI2
asI5810
(lp4715
I0
aI0
aI1
asI5811
(lp4716
I0
aI0
aI3
asI5812
(lp4717
I0
aI0
aI0
asI5813
(lp4718
I0
aI0
aI0
asI5814
(lp4719
I0
aI0
aI0
asI5815
(lp4720
I0
aI0
aI1
asI5816
(lp4721
I0
aI0
aI0
asI5817
(lp4722
I0
aI0
aI0
asI5818
(lp4723
I0
aI0
aI0
asI5819
(lp4724
I0
aI1
aI0
asI5820
(lp4725
I0
aI0
aI0
asI5821
(lp4726
I0
aI0
aI2
asI5822
(lp4727
I0
aI0
aI0
asI5823
(lp4728
I0
aI1
aI0
asI5824
(lp4729
I0
aI0
aI0
asI5825
(lp4730
I0
aI0
aI0
asI5826
(lp4731
I0
aI0
aI0
asI5827
(lp4732
I0
aI0
aI1
asI5828
(lp4733
I0
aI1
aI0
asI5829
(lp4734
I0
aI0
aI0
asI5830
(lp4735
I0
aI0
aI0
asI5831
(lp4736
I0
aI1
aI1
asI5832
(lp4737
I0
aI0
aI0
asI5833
(lp4738
I1
aI0
aI0
asI5834
(lp4739
I0
aI0
aI0
asI5835
(lp4740
I0
aI0
aI0
asI5836
(lp4741
I0
aI0
aI0
asI5837
(lp4742
I0
aI0
aI2
asI5838
(lp4743
I0
aI0
aI0
asI5839
(lp4744
I0
aI0
aI0
asI5840
(lp4745
I0
aI0
aI0
asI5841
(lp4746
I1
aI0
aI0
asI5842
(lp4747
I1
aI0
aI0
asI5843
(lp4748
I0
aI0
aI0
asI5844
(lp4749
I0
aI0
aI0
asI5845
(lp4750
I0
aI0
aI0
asI5846
(lp4751
I0
aI0
aI0
asI5847
(lp4752
I0
aI0
aI0
asI5848
(lp4753
I0
aI0
aI2
asI5849
(lp4754
I1
aI0
aI2
asI5850
(lp4755
I0
aI0
aI0
asI5851
(lp4756
I0
aI0
aI0
asI5852
(lp4757
I0
aI0
aI0
asI5853
(lp4758
I0
aI0
aI0
asI5854
(lp4759
I0
aI0
aI0
asI5855
(lp4760
I0
aI0
aI0
asI5856
(lp4761
I0
aI0
aI0
asI5857
(lp4762
I0
aI0
aI0
asI5858
(lp4763
I0
aI0
aI2
asI5859
(lp4764
I0
aI0
aI1
asI5860
(lp4765
I0
aI0
aI0
asI5861
(lp4766
I0
aI0
aI0
asI5862
(lp4767
I0
aI0
aI0
asI5863
(lp4768
I0
aI0
aI0
asI5864
(lp4769
I0
aI0
aI1
asI5865
(lp4770
I0
aI0
aI0
asI5866
(lp4771
I0
aI0
aI0
asI5867
(lp4772
I0
aI0
aI0
asI5868
(lp4773
I0
aI1
aI0
asI5869
(lp4774
I0
aI0
aI0
asI5870
(lp4775
I0
aI0
aI0
asI5871
(lp4776
I0
aI1
aI0
asI5872
(lp4777
I0
aI0
aI0
asI5874
(lp4778
I0
aI0
aI0
asI5875
(lp4779
I0
aI0
aI0
asI5876
(lp4780
I0
aI0
aI0
asI5877
(lp4781
I0
aI0
aI0
asI5878
(lp4782
I0
aI0
aI0
asI5879
(lp4783
I0
aI0
aI0
asI5880
(lp4784
I0
aI0
aI0
asI5881
(lp4785
I0
aI0
aI0
asI5882
(lp4786
I0
aI0
aI0
asI5883
(lp4787
I0
aI0
aI0
asI5884
(lp4788
I0
aI0
aI0
asI5885
(lp4789
I0
aI0
aI2
asI5886
(lp4790
I0
aI0
aI0
asI5887
(lp4791
I0
aI0
aI0
asI5888
(lp4792
I0
aI0
aI4
asI5889
(lp4793
I0
aI0
aI0
asI5890
(lp4794
I4
aI0
aI5
asI5891
(lp4795
I0
aI0
aI0
asI5892
(lp4796
I0
aI0
aI0
asI5893
(lp4797
I0
aI0
aI0
asI5894
(lp4798
I0
aI0
aI0
asI5895
(lp4799
I0
aI0
aI0
asI5896
(lp4800
I0
aI0
aI9
asI5897
(lp4801
I0
aI0
aI0
asI5898
(lp4802
I0
aI0
aI0
asI5899
(lp4803
I1
aI0
aI1
asI5900
(lp4804
I0
aI0
aI0
asI5901
(lp4805
I0
aI0
aI0
asI5902
(lp4806
I0
aI0
aI0
asI5903
(lp4807
I0
aI0
aI0
asI5904
(lp4808
I0
aI0
aI0
asI5905
(lp4809
I0
aI0
aI0
asI5906
(lp4810
I0
aI0
aI0
asI5907
(lp4811
I0
aI0
aI0
asI5908
(lp4812
I0
aI0
aI0
asI5909
(lp4813
I0
aI0
aI0
asI5910
(lp4814
I0
aI0
aI0
asI5911
(lp4815
I0
aI0
aI2
asI5912
(lp4816
I5
aI2
aI37
asI5913
(lp4817
I0
aI0
aI1
asI5914
(lp4818
I0
aI0
aI0
asI5915
(lp4819
I0
aI0
aI1
asI5916
(lp4820
I0
aI0
aI0
asI5917
(lp4821
I0
aI0
aI0
asI5918
(lp4822
I0
aI0
aI0
asI5919
(lp4823
I16
aI0
aI45
asI5920
(lp4824
I0
aI0
aI0
asI5922
(lp4825
I0
aI0
aI0
asI5923
(lp4826
I1
aI1
aI14
asI5924
(lp4827
I0
aI0
aI0
asI5925
(lp4828
I0
aI0
aI0
asI5926
(lp4829
I0
aI0
aI2
asI5927
(lp4830
I0
aI0
aI0
asI5928
(lp4831
I0
aI0
aI1
asI5929
(lp4832
I0
aI0
aI0
asI5930
(lp4833
I0
aI0
aI0
asI5931
(lp4834
I0
aI0
aI0
asI5932
(lp4835
I1
aI0
aI0
asI5933
(lp4836
I0
aI0
aI3
asI5934
(lp4837
I0
aI0
aI0
asI5935
(lp4838
I0
aI0
aI0
asI5936
(lp4839
I0
aI0
aI0
asI5937
(lp4840
I0
aI0
aI0
asI5938
(lp4841
I0
aI0
aI0
asI5939
(lp4842
I0
aI0
aI0
asI5940
(lp4843
I0
aI0
aI0
asI5941
(lp4844
I0
aI0
aI0
asI5942
(lp4845
I0
aI0
aI0
asI5943
(lp4846
I0
aI0
aI0
asI5944
(lp4847
I2
aI1
aI0
asI5945
(lp4848
I0
aI0
aI0
asI5946
(lp4849
I0
aI0
aI0
asI5947
(lp4850
I0
aI0
aI0
asI5948
(lp4851
I0
aI0
aI0
asI5949
(lp4852
I0
aI0
aI0
asI5950
(lp4853
I0
aI0
aI22
asI5951
(lp4854
I0
aI0
aI0
asI5952
(lp4855
I1
aI0
aI0
asI5953
(lp4856
I0
aI0
aI0
asI5954
(lp4857
I0
aI0
aI0
asI5955
(lp4858
I0
aI1
aI0
asI5956
(lp4859
I0
aI0
aI0
asI5957
(lp4860
I0
aI0
aI0
asI5958
(lp4861
I0
aI0
aI0
asI5959
(lp4862
I0
aI0
aI0
asI5960
(lp4863
I0
aI0
aI0
asI5961
(lp4864
I0
aI0
aI5
asI5962
(lp4865
I0
aI0
aI0
asI5963
(lp4866
I0
aI0
aI0
asI5964
(lp4867
I1
aI0
aI2
asI5965
(lp4868
I3
aI1
aI0
asI5966
(lp4869
I0
aI0
aI0
asI5967
(lp4870
I0
aI0
aI0
asI5968
(lp4871
I0
aI0
aI0
asI5969
(lp4872
I0
aI0
aI2
asI5970
(lp4873
I0
aI0
aI0
asI5973
(lp4874
I1
aI0
aI1
asI5974
(lp4875
I0
aI0
aI0
asI5975
(lp4876
I0
aI0
aI0
asI5976
(lp4877
I0
aI0
aI0
asI5977
(lp4878
I0
aI0
aI0
asI5978
(lp4879
I0
aI0
aI0
asI5979
(lp4880
I0
aI0
aI0
asI5980
(lp4881
I0
aI0
aI0
asI5981
(lp4882
I1
aI0
aI0
asI5983
(lp4883
I0
aI0
aI0
asI5984
(lp4884
I0
aI0
aI0
asI5985
(lp4885
I0
aI0
aI0
asI5986
(lp4886
I0
aI0
aI0
asI5987
(lp4887
I0
aI0
aI0
asI5988
(lp4888
I0
aI0
aI0
asI5989
(lp4889
I0
aI0
aI0
asI5990
(lp4890
I0
aI0
aI0
asI5991
(lp4891
I1
aI0
aI0
asI5992
(lp4892
I0
aI0
aI2
asI5993
(lp4893
I0
aI0
aI0
asI5994
(lp4894
I0
aI0
aI0
asI5995
(lp4895
I0
aI0
aI0
asI5996
(lp4896
I0
aI0
aI0
asI5997
(lp4897
I0
aI0
aI0
asI5998
(lp4898
I0
aI0
aI0
asI5999
(lp4899
I0
aI2
aI0
asI6000
(lp4900
I1
aI0
aI0
asI6001
(lp4901
I0
aI0
aI0
asI6002
(lp4902
I0
aI0
aI0
asI6003
(lp4903
I0
aI0
aI0
asI6004
(lp4904
I0
aI0
aI0
asI6005
(lp4905
I0
aI0
aI0
asI6006
(lp4906
I1
aI0
aI3
asI6007
(lp4907
I0
aI0
aI1
asI6008
(lp4908
I0
aI0
aI0
asI6009
(lp4909
I0
aI0
aI0
asI6010
(lp4910
I0
aI0
aI1
asI6011
(lp4911
I0
aI0
aI0
asI6012
(lp4912
I0
aI0
aI0
asI6013
(lp4913
I0
aI8
aI9
asI6014
(lp4914
I0
aI0
aI0
asI6015
(lp4915
I0
aI0
aI0
asI6016
(lp4916
I0
aI0
aI0
asI6017
(lp4917
I0
aI0
aI0
asI6018
(lp4918
I1
aI0
aI1
asI6019
(lp4919
I0
aI0
aI0
asI6020
(lp4920
I1
aI0
aI1
asI6021
(lp4921
I0
aI0
aI0
asI6022
(lp4922
I0
aI0
aI0
asI6023
(lp4923
I0
aI0
aI0
asI6024
(lp4924
I0
aI0
aI0
asI6025
(lp4925
I0
aI0
aI0
asI6026
(lp4926
I0
aI0
aI0
asI6027
(lp4927
I0
aI0
aI0
asI6028
(lp4928
I0
aI0
aI2
asI6029
(lp4929
I0
aI0
aI3
asI6030
(lp4930
I0
aI0
aI0
asI6031
(lp4931
I0
aI0
aI0
asI6032
(lp4932
I0
aI0
aI0
asI6033
(lp4933
I0
aI0
aI0
asI6034
(lp4934
I0
aI0
aI0
asI6035
(lp4935
I0
aI0
aI0
asI6036
(lp4936
I1
aI0
aI0
asI6037
(lp4937
I0
aI0
aI0
asI6038
(lp4938
I0
aI0
aI1
asI6039
(lp4939
I1
aI0
aI0
asI6040
(lp4940
I0
aI0
aI0
asI6041
(lp4941
I0
aI0
aI0
asI6042
(lp4942
I0
aI0
aI0
asI6043
(lp4943
I3
aI0
aI26
asI6044
(lp4944
I0
aI0
aI0
asI6045
(lp4945
I0
aI0
aI0
asI6046
(lp4946
I0
aI0
aI0
asI6047
(lp4947
I0
aI0
aI0
asI6048
(lp4948
I0
aI0
aI0
asI6049
(lp4949
I0
aI0
aI0
asI6050
(lp4950
I0
aI0
aI0
asI6051
(lp4951
I0
aI0
aI0
asI6052
(lp4952
I0
aI0
aI0
asI6053
(lp4953
I3
aI0
aI0
asI6054
(lp4954
I0
aI0
aI0
asI6055
(lp4955
I0
aI0
aI0
asI6056
(lp4956
I0
aI0
aI0
asI6057
(lp4957
I0
aI0
aI2
asI6058
(lp4958
I0
aI0
aI0
asI6059
(lp4959
I0
aI1
aI0
asI6060
(lp4960
I0
aI0
aI0
asI6061
(lp4961
I0
aI0
aI0
asI6062
(lp4962
I0
aI0
aI0
asI6063
(lp4963
I0
aI0
aI0
asI6064
(lp4964
I0
aI0
aI0
asI6065
(lp4965
I0
aI0
aI0
asI6066
(lp4966
I1
aI0
aI2
asI6067
(lp4967
I1
aI1
aI1
asI6068
(lp4968
I1
aI0
aI0
asI6069
(lp4969
I0
aI0
aI2
asI6070
(lp4970
I0
aI0
aI0
asI6071
(lp4971
I1
aI0
aI0
asI6072
(lp4972
I1
aI0
aI0
asI6073
(lp4973
I0
aI0
aI0
asI6074
(lp4974
I1
aI0
aI4
asI6075
(lp4975
I1
aI0
aI0
asI6076
(lp4976
I0
aI0
aI0
asI6077
(lp4977
I0
aI0
aI0
asI6078
(lp4978
I8
aI2
aI0
asI6079
(lp4979
I0
aI0
aI2
asI6080
(lp4980
I0
aI0
aI0
asI6081
(lp4981
I0
aI0
aI0
asI6082
(lp4982
I0
aI0
aI0
asI6083
(lp4983
I0
aI0
aI0
asI6084
(lp4984
I0
aI0
aI0
asI6085
(lp4985
I0
aI0
aI2
asI6086
(lp4986
I1
aI0
aI0
asI6087
(lp4987
I0
aI0
aI10
asI6088
(lp4988
I0
aI0
aI0
asI6089
(lp4989
I0
aI0
aI3
asI6090
(lp4990
I0
aI0
aI0
asI6091
(lp4991
I0
aI0
aI0
asI6092
(lp4992
I0
aI0
aI0
asI6093
(lp4993
I0
aI0
aI0
asI6094
(lp4994
I0
aI0
aI0
asI6095
(lp4995
I0
aI0
aI0
asI6096
(lp4996
I0
aI0
aI0
asI6097
(lp4997
I0
aI0
aI0
asI6098
(lp4998
I1
aI0
aI0
asI6099
(lp4999
I0
aI0
aI0
asI6100
(lp5000
I0
aI0
aI0
asI6101
(lp5001
I0
aI0
aI0
asI6102
(lp5002
I0
aI0
aI0
asI6103
(lp5003
I1
aI0
aI2
asI6104
(lp5004
I0
aI0
aI1
asI6105
(lp5005
I0
aI0
aI0
asI6106
(lp5006
I0
aI0
aI0
asI6107
(lp5007
I1
aI1
aI0
asI6108
(lp5008
I0
aI0
aI0
asI6109
(lp5009
I0
aI0
aI1
asI6110
(lp5010
I0
aI0
aI1
asI6111
(lp5011
I0
aI0
aI0
asI6112
(lp5012
I0
aI0
aI0
asI6113
(lp5013
I0
aI0
aI0
asI6114
(lp5014
I0
aI0
aI0
asI6115
(lp5015
I0
aI0
aI2
asI6116
(lp5016
I0
aI0
aI1
asI6117
(lp5017
I0
aI0
aI0
asI6118
(lp5018
I0
aI0
aI0
asI6119
(lp5019
I0
aI0
aI0
asI6120
(lp5020
I0
aI0
aI0
asI6121
(lp5021
I1
aI0
aI0
asI6122
(lp5022
I0
aI0
aI0
asI6123
(lp5023
I0
aI0
aI1
asI6124
(lp5024
I0
aI0
aI0
asI6125
(lp5025
I0
aI0
aI0
asI6126
(lp5026
I0
aI0
aI0
asI6127
(lp5027
I0
aI0
aI0
asI6128
(lp5028
I0
aI0
aI0
asI6129
(lp5029
I0
aI0
aI0
asI6130
(lp5030
I0
aI0
aI2
asI6131
(lp5031
I0
aI0
aI0
asI6132
(lp5032
I0
aI0
aI0
asI6133
(lp5033
I0
aI0
aI0
asI6134
(lp5034
I1
aI0
aI0
asI6135
(lp5035
I0
aI0
aI0
asI6136
(lp5036
I0
aI0
aI0
asI6137
(lp5037
I0
aI0
aI1
asI6138
(lp5038
I0
aI0
aI0
asI6139
(lp5039
I0
aI0
aI0
asI6140
(lp5040
I0
aI0
aI0
asI6141
(lp5041
I0
aI0
aI0
asI6142
(lp5042
I0
aI0
aI0
asI6143
(lp5043
I0
aI0
aI0
asI6144
(lp5044
I0
aI0
aI0
asI6145
(lp5045
I0
aI0
aI0
asI6146
(lp5046
I0
aI1
aI2
asI6147
(lp5047
I0
aI0
aI0
asI6148
(lp5048
I0
aI0
aI0
asI6149
(lp5049
I1
aI0
aI0
asI6150
(lp5050
I0
aI0
aI0
asI6151
(lp5051
I0
aI0
aI0
asI6152
(lp5052
I0
aI0
aI0
asI6153
(lp5053
I0
aI0
aI0
asI6154
(lp5054
I2
aI0
aI23
asI6155
(lp5055
I0
aI0
aI0
asI6156
(lp5056
I0
aI0
aI0
asI6157
(lp5057
I0
aI0
aI1
asI6158
(lp5058
I0
aI0
aI0
asI6159
(lp5059
I0
aI0
aI0
asI6160
(lp5060
I0
aI0
aI0
asI6161
(lp5061
I0
aI0
aI0
asI6162
(lp5062
I0
aI0
aI0
asI6163
(lp5063
I0
aI0
aI0
asI6164
(lp5064
I1
aI0
aI0
asI6165
(lp5065
I0
aI0
aI0
asI6166
(lp5066
I0
aI0
aI0
asI6167
(lp5067
I0
aI0
aI0
asI6168
(lp5068
I0
aI0
aI0
asI6169
(lp5069
I0
aI0
aI0
asI6170
(lp5070
I0
aI0
aI1
asI6171
(lp5071
I0
aI0
aI0
asI6172
(lp5072
I0
aI0
aI0
asI6173
(lp5073
I0
aI0
aI0
asI6174
(lp5074
I1
aI0
aI1
asI6175
(lp5075
I0
aI0
aI0
asI6176
(lp5076
I0
aI0
aI2
asI6177
(lp5077
I0
aI0
aI0
asI6178
(lp5078
I0
aI0
aI1
asI6179
(lp5079
I0
aI0
aI0
asI6180
(lp5080
I0
aI0
aI0
asI6181
(lp5081
I0
aI0
aI0
asI6182
(lp5082
I0
aI1
aI0
asI6183
(lp5083
I0
aI0
aI0
asI6184
(lp5084
I0
aI0
aI0
asI6185
(lp5085
I0
aI0
aI0
asI6186
(lp5086
I0
aI0
aI0
asI6187
(lp5087
I0
aI0
aI0
asI6188
(lp5088
I0
aI0
aI1
asI6189
(lp5089
I2
aI0
aI0
asI6190
(lp5090
I0
aI0
aI0
asI6191
(lp5091
I0
aI0
aI3
asI6192
(lp5092
I0
aI0
aI0
asI6193
(lp5093
I0
aI0
aI0
asI6194
(lp5094
I0
aI0
aI0
asI6195
(lp5095
I3
aI0
aI12
asI6196
(lp5096
I0
aI0
aI4
asI6197
(lp5097
I0
aI0
aI0
asI6198
(lp5098
I0
aI0
aI0
asI6199
(lp5099
I0
aI0
aI0
asI6200
(lp5100
I0
aI0
aI1
asI6201
(lp5101
I0
aI0
aI0
asI6202
(lp5102
I0
aI0
aI2
asI6203
(lp5103
I0
aI0
aI0
asI6204
(lp5104
I0
aI0
aI0
asI6205
(lp5105
I0
aI0
aI0
asI6206
(lp5106
I0
aI10
aI0
asI6207
(lp5107
I1
aI0
aI0
asI6208
(lp5108
I0
aI0
aI0
asI6209
(lp5109
I0
aI0
aI0
asI6210
(lp5110
I0
aI0
aI0
asI6211
(lp5111
I0
aI0
aI0
asI6212
(lp5112
I0
aI0
aI0
asI6213
(lp5113
I0
aI0
aI0
asI6214
(lp5114
I0
aI0
aI0
asI6215
(lp5115
I0
aI0
aI0
asI6216
(lp5116
I1
aI0
aI1
asI6217
(lp5117
I0
aI0
aI0
asI6218
(lp5118
I0
aI0
aI0
asI6219
(lp5119
I1
aI0
aI0
asI6220
(lp5120
I0
aI0
aI0
asI6221
(lp5121
I0
aI0
aI0
asI6222
(lp5122
I0
aI0
aI0
asI6223
(lp5123
I0
aI0
aI0
asI6224
(lp5124
I0
aI0
aI0
asI6225
(lp5125
I1
aI1
aI1
asI6226
(lp5126
I0
aI0
aI1
asI6227
(lp5127
I1
aI0
aI3
asI6228
(lp5128
I0
aI0
aI0
asI6229
(lp5129
I1
aI1
aI0
asI6230
(lp5130
I0
aI0
aI0
asI6231
(lp5131
I0
aI0
aI0
asI6232
(lp5132
I0
aI0
aI0
asI6233
(lp5133
I0
aI0
aI0
asI6234
(lp5134
I0
aI0
aI0
asI6235
(lp5135
I0
aI0
aI0
asI6236
(lp5136
I0
aI0
aI2
asI6237
(lp5137
I0
aI0
aI0
asI6238
(lp5138
I0
aI0
aI0
asI6239
(lp5139
I0
aI0
aI0
asI6240
(lp5140
I0
aI0
aI0
asI6241
(lp5141
I0
aI0
aI0
asI6242
(lp5142
I0
aI1
aI0
asI6243
(lp5143
I0
aI0
aI0
asI6244
(lp5144
I0
aI0
aI0
asI6245
(lp5145
I0
aI0
aI0
asI6246
(lp5146
I1
aI0
aI1
asI6247
(lp5147
I1
aI1
aI3
asI6248
(lp5148
I0
aI1
aI0
asI6249
(lp5149
I0
aI0
aI0
asI6250
(lp5150
I0
aI0
aI0
asI6251
(lp5151
I0
aI0
aI0
asI6252
(lp5152
I0
aI0
aI2
asI6253
(lp5153
I0
aI0
aI0
asI6254
(lp5154
I1
aI0
aI0
asI6255
(lp5155
I0
aI0
aI0
asI6256
(lp5156
I0
aI0
aI0
asI6257
(lp5157
I0
aI0
aI0
asI6258
(lp5158
I0
aI0
aI0
asI6259
(lp5159
I0
aI0
aI2
asI6260
(lp5160
I0
aI0
aI0
asI6261
(lp5161
I1
aI0
aI0
asI6262
(lp5162
I0
aI0
aI0
asI6263
(lp5163
I0
aI0
aI0
asI6264
(lp5164
I0
aI0
aI0
asI6265
(lp5165
I0
aI0
aI0
asI6266
(lp5166
I0
aI0
aI0
asI6267
(lp5167
I1
aI1
aI0
asI6268
(lp5168
I0
aI0
aI1
asI6269
(lp5169
I0
aI0
aI0
asI6270
(lp5170
I0
aI0
aI0
asI6271
(lp5171
I0
aI0
aI2
asI6272
(lp5172
I1
aI0
aI4
asI6273
(lp5173
I0
aI0
aI0
asI6274
(lp5174
I0
aI0
aI0
asI6275
(lp5175
I0
aI0
aI1
asI6276
(lp5176
I0
aI0
aI0
asI6277
(lp5177
I0
aI0
aI0
asI6278
(lp5178
I0
aI1
aI0
asI6279
(lp5179
I0
aI0
aI10
asI6280
(lp5180
I2
aI1
aI1
asI6281
(lp5181
I0
aI0
aI3
asI6282
(lp5182
I0
aI0
aI2
asI6283
(lp5183
I0
aI0
aI0
asI6284
(lp5184
I0
aI0
aI1
asI6286
(lp5185
I0
aI0
aI0
asI6287
(lp5186
I0
aI0
aI0
asI6288
(lp5187
I0
aI0
aI0
asI6289
(lp5188
I0
aI0
aI0
asI6290
(lp5189
I0
aI0
aI0
asI6291
(lp5190
I0
aI0
aI0
asI6292
(lp5191
I0
aI0
aI1
asI6293
(lp5192
I0
aI0
aI0
asI6294
(lp5193
I0
aI0
aI2
asI6295
(lp5194
I0
aI0
aI1
asI6296
(lp5195
I0
aI0
aI0
asI6297
(lp5196
I0
aI0
aI10
asI6298
(lp5197
I0
aI1
aI0
asI6299
(lp5198
I0
aI0
aI0
asI6300
(lp5199
I5
aI2
aI8
asI6301
(lp5200
I0
aI0
aI0
asI6302
(lp5201
I0
aI0
aI0
asI6303
(lp5202
I0
aI0
aI0
asI6304
(lp5203
I0
aI0
aI1
asI6305
(lp5204
I0
aI0
aI0
asI6306
(lp5205
I0
aI0
aI0
asI6307
(lp5206
I0
aI0
aI0
asI6308
(lp5207
I0
aI0
aI0
asI6309
(lp5208
I0
aI0
aI0
asI6310
(lp5209
I1
aI0
aI3
asI6311
(lp5210
I1
aI0
aI0
asI6312
(lp5211
I0
aI0
aI0
asI6313
(lp5212
I0
aI0
aI0
asI6314
(lp5213
I0
aI0
aI0
asI6315
(lp5214
I0
aI0
aI2
asI6316
(lp5215
I0
aI0
aI3
asI6317
(lp5216
I0
aI0
aI0
asI6318
(lp5217
I0
aI0
aI0
asI6319
(lp5218
I0
aI0
aI1
asI6320
(lp5219
I0
aI0
aI1
asI6321
(lp5220
I0
aI0
aI0
asI6322
(lp5221
I0
aI0
aI1
asI6323
(lp5222
I0
aI0
aI0
asI6324
(lp5223
I0
aI1
aI1
asI6325
(lp5224
I0
aI0
aI0
asI6326
(lp5225
I1
aI1
aI0
asI6327
(lp5226
I0
aI0
aI0
asI6328
(lp5227
I0
aI0
aI0
asI6329
(lp5228
I0
aI0
aI0
asI6330
(lp5229
I0
aI0
aI0
asI6331
(lp5230
I0
aI0
aI0
asI6332
(lp5231
I0
aI0
aI0
asI6333
(lp5232
I0
aI0
aI0
asI6334
(lp5233
I0
aI0
aI0
asI6335
(lp5234
I0
aI0
aI4
asI6336
(lp5235
I0
aI0
aI0
asI6337
(lp5236
I0
aI1
aI9
asI6338
(lp5237
I1
aI1
aI0
asI6339
(lp5238
I0
aI0
aI0
asI6340
(lp5239
I0
aI0
aI0
asI6341
(lp5240
I0
aI0
aI0
asI6342
(lp5241
I0
aI0
aI0
asI6343
(lp5242
I0
aI0
aI1
asI6344
(lp5243
I1
aI0
aI0
asI6345
(lp5244
I0
aI0
aI0
asI6346
(lp5245
I0
aI0
aI0
asI6347
(lp5246
I0
aI0
aI2
asI6348
(lp5247
I0
aI0
aI0
asI6349
(lp5248
I2
aI0
aI1
asI6350
(lp5249
I0
aI0
aI0
asI6351
(lp5250
I0
aI0
aI0
asI6352
(lp5251
I0
aI0
aI1
asI6353
(lp5252
I0
aI1
aI0
asI6354
(lp5253
I0
aI0
aI0
asI6355
(lp5254
I0
aI0
aI0
asI6356
(lp5255
I1
aI0
aI0
asI6357
(lp5256
I0
aI0
aI0
asI6358
(lp5257
I1
aI0
aI0
asI6359
(lp5258
I0
aI0
aI0
asI6360
(lp5259
I1
aI0
aI0
asI6361
(lp5260
I0
aI0
aI0
asI6362
(lp5261
I1
aI0
aI2
asI6363
(lp5262
I0
aI0
aI0
asI6364
(lp5263
I0
aI0
aI2
asI6365
(lp5264
I0
aI0
aI0
asI6366
(lp5265
I0
aI0
aI0
asI6367
(lp5266
I0
aI0
aI0
asI6368
(lp5267
I0
aI0
aI0
asI6369
(lp5268
I0
aI0
aI0
asI6370
(lp5269
I0
aI0
aI0
asI6371
(lp5270
I0
aI0
aI0
asI6372
(lp5271
I0
aI0
aI0
asI6373
(lp5272
I0
aI0
aI0
asI6374
(lp5273
I0
aI0
aI1
asI6375
(lp5274
I1
aI0
aI0
asI6376
(lp5275
I0
aI0
aI0
asI6377
(lp5276
I0
aI0
aI5
asI6378
(lp5277
I0
aI0
aI0
asI6379
(lp5278
I3
aI0
aI1
asI6380
(lp5279
I5
aI1
aI0
asI6381
(lp5280
I1
aI1
aI0
asI6382
(lp5281
I0
aI0
aI4
asI6383
(lp5282
I0
aI0
aI0
asI6384
(lp5283
I0
aI0
aI1
asI6385
(lp5284
I0
aI0
aI0
asI6386
(lp5285
I0
aI0
aI0
asI6387
(lp5286
I0
aI0
aI1
asI6388
(lp5287
I0
aI0
aI0
asI6389
(lp5288
I0
aI0
aI1
asI6390
(lp5289
I0
aI0
aI0
asI6391
(lp5290
I0
aI0
aI0
asI6392
(lp5291
I0
aI0
aI0
asI6393
(lp5292
I0
aI0
aI0
asI6394
(lp5293
I0
aI0
aI0
asI6395
(lp5294
I0
aI0
aI1
asI6396
(lp5295
I0
aI0
aI0
asI6397
(lp5296
I0
aI0
aI0
asI6398
(lp5297
I0
aI0
aI0
asI6399
(lp5298
I2
aI0
aI0
asI6400
(lp5299
I0
aI0
aI0
asI6401
(lp5300
I0
aI0
aI0
asI6402
(lp5301
I1
aI0
aI0
asI6403
(lp5302
I0
aI0
aI0
asI6404
(lp5303
I0
aI0
aI0
asI6405
(lp5304
I1
aI0
aI0
asI6406
(lp5305
I0
aI0
aI0
asI6407
(lp5306
I0
aI0
aI1
asI6408
(lp5307
I0
aI0
aI0
asI6409
(lp5308
I0
aI0
aI0
asI6410
(lp5309
I0
aI0
aI1
asI6411
(lp5310
I0
aI0
aI0
asI6412
(lp5311
I0
aI0
aI0
asI6413
(lp5312
I1
aI0
aI6
asI6414
(lp5313
I1
aI0
aI0
asI6415
(lp5314
I0
aI0
aI0
asI6416
(lp5315
I0
aI2
aI0
asI6417
(lp5316
I0
aI0
aI4
asI6418
(lp5317
I0
aI0
aI0
asI6419
(lp5318
I0
aI0
aI0
asI6420
(lp5319
I2
aI0
aI2
asI6421
(lp5320
I0
aI0
aI0
asI6422
(lp5321
I0
aI0
aI0
asI6423
(lp5322
I0
aI0
aI0
asI6424
(lp5323
I0
aI0
aI0
asI6425
(lp5324
I0
aI0
aI0
asI6426
(lp5325
I0
aI0
aI0
asI6427
(lp5326
I1
aI0
aI0
asI6430
(lp5327
I0
aI15
aI40
asI6431
(lp5328
I0
aI0
aI0
asI6432
(lp5329
I0
aI0
aI0
asI6433
(lp5330
I1
aI0
aI0
asI6434
(lp5331
I0
aI0
aI1
asI6435
(lp5332
I0
aI0
aI0
asI6436
(lp5333
I0
aI0
aI0
asI6437
(lp5334
I0
aI0
aI0
asI6438
(lp5335
I0
aI0
aI0
asI6439
(lp5336
I0
aI0
aI0
asI6440
(lp5337
I0
aI0
aI0
asI6441
(lp5338
I0
aI0
aI0
asI6442
(lp5339
I0
aI1
aI2
asI6443
(lp5340
I0
aI0
aI0
asI6444
(lp5341
I0
aI0
aI0
asI6445
(lp5342
I0
aI0
aI0
asI6446
(lp5343
I1
aI0
aI0
asI6447
(lp5344
I0
aI0
aI2
asI6448
(lp5345
I0
aI0
aI0
asI6449
(lp5346
I0
aI0
aI0
asI6450
(lp5347
I0
aI0
aI0
asI6451
(lp5348
I0
aI0
aI0
asI6452
(lp5349
I1
aI0
aI0
asI6453
(lp5350
I0
aI0
aI0
asI6454
(lp5351
I0
aI0
aI0
asI6455
(lp5352
I0
aI0
aI0
asI6456
(lp5353
I0
aI0
aI0
asI6457
(lp5354
I0
aI0
aI40
asI6458
(lp5355
I0
aI0
aI0
asI6459
(lp5356
I0
aI0
aI0
asI6460
(lp5357
I0
aI0
aI0
asI6461
(lp5358
I0
aI0
aI0
asI6462
(lp5359
I1
aI0
aI0
asI6463
(lp5360
I0
aI0
aI0
asI6464
(lp5361
I0
aI0
aI0
asI6465
(lp5362
I0
aI0
aI0
asI6466
(lp5363
I0
aI0
aI0
asI6467
(lp5364
I0
aI0
aI0
asI6468
(lp5365
I1
aI0
aI0
asI6469
(lp5366
I0
aI0
aI1
asI6470
(lp5367
I0
aI1
aI0
asI6471
(lp5368
I0
aI0
aI0
asI6472
(lp5369
I0
aI0
aI0
asI6473
(lp5370
I1
aI0
aI0
asI6474
(lp5371
I0
aI0
aI1
asI6475
(lp5372
I0
aI0
aI0
asI6476
(lp5373
I1
aI0
aI1
asI6477
(lp5374
I0
aI0
aI0
asI6478
(lp5375
I0
aI0
aI1
asI6479
(lp5376
I1
aI0
aI1
asI6480
(lp5377
I0
aI0
aI0
asI6481
(lp5378
I0
aI0
aI0
asI6482
(lp5379
I0
aI0
aI0
asI6483
(lp5380
I0
aI0
aI0
asI6484
(lp5381
I0
aI1
aI0
asI6485
(lp5382
I0
aI0
aI0
asI6486
(lp5383
I0
aI0
aI0
asI6487
(lp5384
I0
aI0
aI0
asI6488
(lp5385
I0
aI0
aI0
asI6489
(lp5386
I3
aI27
aI42
asI6490
(lp5387
I0
aI0
aI0
asI6491
(lp5388
I1
aI0
aI0
asI6492
(lp5389
I1
aI0
aI0
asI6493
(lp5390
I0
aI0
aI0
asI6494
(lp5391
I0
aI0
aI0
asI6495
(lp5392
I0
aI3
aI25
asI6496
(lp5393
I0
aI0
aI0
asI6497
(lp5394
I0
aI0
aI0
asI6498
(lp5395
I2
aI0
aI4
asI6499
(lp5396
I2
aI0
aI2
asI6500
(lp5397
I0
aI0
aI0
asI6501
(lp5398
I0
aI0
aI0
asI6502
(lp5399
I0
aI0
aI0
asI6503
(lp5400
I0
aI0
aI0
asI6504
(lp5401
I0
aI0
aI0
asI6505
(lp5402
I0
aI0
aI12
asI6506
(lp5403
I0
aI0
aI0
asI6507
(lp5404
I0
aI0
aI0
asI6508
(lp5405
I0
aI0
aI0
asI6509
(lp5406
I0
aI0
aI0
asI6510
(lp5407
I0
aI0
aI0
asI6511
(lp5408
I0
aI0
aI0
asI6512
(lp5409
I1
aI0
aI0
asI6513
(lp5410
I0
aI0
aI0
asI6514
(lp5411
I2
aI1
aI3
asI6515
(lp5412
I0
aI0
aI2
asI6516
(lp5413
I0
aI0
aI1
asI6517
(lp5414
I2
aI1
aI7
asI6518
(lp5415
I0
aI0
aI0
asI6519
(lp5416
I2
aI3
aI0
asI6520
(lp5417
I1
aI0
aI0
asI6521
(lp5418
I0
aI0
aI0
asI6522
(lp5419
I0
aI0
aI0
asI6523
(lp5420
I1
aI0
aI4
asI6524
(lp5421
I0
aI0
aI0
asI6525
(lp5422
I0
aI0
aI1
asI6526
(lp5423
I1
aI0
aI2
asI6527
(lp5424
I1
aI0
aI0
asI6528
(lp5425
I0
aI0
aI0
asI6529
(lp5426
I0
aI0
aI0
asI6530
(lp5427
I0
aI0
aI4
asI6531
(lp5428
I0
aI0
aI0
asI6532
(lp5429
I0
aI0
aI3
asI6533
(lp5430
I0
aI0
aI0
asI6534
(lp5431
I0
aI0
aI0
asI6535
(lp5432
I0
aI0
aI0
asI6536
(lp5433
I0
aI1
aI0
asI6537
(lp5434
I0
aI0
aI1
asI6538
(lp5435
I0
aI0
aI0
asI6539
(lp5436
I0
aI0
aI0
asI6540
(lp5437
I0
aI0
aI0
asI6541
(lp5438
I0
aI0
aI2
asI6542
(lp5439
I3
aI0
aI1
asI6543
(lp5440
I0
aI0
aI0
asI6544
(lp5441
I0
aI0
aI0
asI6545
(lp5442
I0
aI0
aI0
asI6546
(lp5443
I0
aI0
aI0
asI6547
(lp5444
I0
aI0
aI2
asI6548
(lp5445
I0
aI0
aI0
asI6549
(lp5446
I0
aI0
aI0
asI6550
(lp5447
I1
aI0
aI0
asI6551
(lp5448
I0
aI0
aI0
asI6552
(lp5449
I0
aI0
aI0
asI6553
(lp5450
I0
aI0
aI0
asI6554
(lp5451
I0
aI0
aI10
asI6555
(lp5452
I0
aI0
aI0
asI6556
(lp5453
I0
aI1
aI0
asI6557
(lp5454
I0
aI0
aI0
asI6558
(lp5455
I1
aI0
aI0
asI6559
(lp5456
I2
aI1
aI0
asI6560
(lp5457
I2
aI0
aI0
asI6561
(lp5458
I0
aI0
aI0
asI6562
(lp5459
I0
aI0
aI0
asI6563
(lp5460
I0
aI0
aI0
asI6564
(lp5461
I0
aI0
aI0
asI6565
(lp5462
I0
aI0
aI0
asI6566
(lp5463
I0
aI0
aI0
asI6567
(lp5464
I0
aI0
aI2
asI6568
(lp5465
I1
aI1
aI2
asI6569
(lp5466
I0
aI0
aI0
asI6570
(lp5467
I0
aI0
aI0
asI6571
(lp5468
I0
aI0
aI0
asI6572
(lp5469
I0
aI0
aI0
asI6573
(lp5470
I1
aI0
aI1
asI6574
(lp5471
I0
aI0
aI0
asI6575
(lp5472
I0
aI0
aI0
asI6576
(lp5473
I0
aI0
aI0
asI6577
(lp5474
I0
aI0
aI1
asI6578
(lp5475
I0
aI0
aI0
asI6579
(lp5476
I0
aI0
aI0
asI6580
(lp5477
I0
aI0
aI0
asI6581
(lp5478
I0
aI0
aI0
asI6582
(lp5479
I0
aI0
aI0
asI6583
(lp5480
I0
aI0
aI0
asI6584
(lp5481
I1
aI0
aI1
asI6585
(lp5482
I0
aI0
aI0
asI6586
(lp5483
I0
aI0
aI0
asI6587
(lp5484
I1
aI0
aI0
asI6588
(lp5485
I0
aI0
aI0
asI6589
(lp5486
I0
aI0
aI0
asI6590
(lp5487
I1
aI2
aI48
asI6591
(lp5488
I0
aI0
aI0
asI6592
(lp5489
I0
aI0
aI0
asI6593
(lp5490
I0
aI0
aI0
asI6594
(lp5491
I0
aI0
aI0
asI6595
(lp5492
I0
aI0
aI2
asI6596
(lp5493
I0
aI0
aI0
asI6597
(lp5494
I0
aI0
aI0
asI6598
(lp5495
I0
aI0
aI0
asI6599
(lp5496
I0
aI0
aI0
asI6600
(lp5497
I0
aI2
aI0
asI6601
(lp5498
I1
aI1
aI0
asI6602
(lp5499
I0
aI0
aI0
asI6603
(lp5500
I0
aI0
aI0
asI6604
(lp5501
I0
aI0
aI0
asI6605
(lp5502
I1
aI0
aI1
asI6606
(lp5503
I0
aI0
aI0
asI6607
(lp5504
I0
aI0
aI0
asI6608
(lp5505
I0
aI0
aI0
asI6609
(lp5506
I1
aI0
aI0
asI6610
(lp5507
I0
aI0
aI1
asI6611
(lp5508
I0
aI0
aI0
asI6612
(lp5509
I0
aI0
aI0
asI6613
(lp5510
I0
aI0
aI0
asI6614
(lp5511
I0
aI0
aI0
asI6615
(lp5512
I0
aI0
aI0
asI6616
(lp5513
I0
aI0
aI0
asI6617
(lp5514
I0
aI0
aI0
asI6618
(lp5515
I0
aI0
aI0
asI6619
(lp5516
I1
aI0
aI0
asI6620
(lp5517
I0
aI0
aI0
asI6621
(lp5518
I0
aI0
aI2
asI6622
(lp5519
I0
aI0
aI0
asI6623
(lp5520
I0
aI0
aI0
asI6624
(lp5521
I0
aI0
aI0
asI6625
(lp5522
I1
aI1
aI5
asI6626
(lp5523
I0
aI0
aI0
asI6627
(lp5524
I0
aI0
aI0
asI6628
(lp5525
I0
aI0
aI1
asI6630
(lp5526
I0
aI0
aI0
asI6631
(lp5527
I0
aI0
aI0
asI6632
(lp5528
I0
aI0
aI0
asI6633
(lp5529
I0
aI0
aI0
asI6634
(lp5530
I13
aI0
aI4
asI6635
(lp5531
I0
aI0
aI0
asI6636
(lp5532
I0
aI0
aI0
asI6637
(lp5533
I0
aI0
aI0
asI6638
(lp5534
I0
aI0
aI0
asI6639
(lp5535
I0
aI0
aI0
asI6640
(lp5536
I0
aI0
aI1
asI6641
(lp5537
I0
aI0
aI1
asI6642
(lp5538
I0
aI0
aI0
asI6643
(lp5539
I0
aI0
aI0
asI6644
(lp5540
I0
aI0
aI0
asI6645
(lp5541
I0
aI0
aI0
asI6646
(lp5542
I0
aI0
aI0
asI6647
(lp5543
I0
aI0
aI1
asI6648
(lp5544
I0
aI0
aI2
asI6649
(lp5545
I2
aI0
aI3
asI6650
(lp5546
I0
aI0
aI0
asI6651
(lp5547
I0
aI0
aI1
asI6652
(lp5548
I0
aI0
aI0
asI6653
(lp5549
I0
aI0
aI0
asI6654
(lp5550
I0
aI0
aI0
asI6655
(lp5551
I0
aI0
aI0
asI6656
(lp5552
I0
aI0
aI0
asI6657
(lp5553
I0
aI0
aI0
asI6658
(lp5554
I0
aI0
aI0
asI6659
(lp5555
I1
aI1
aI5
asI6660
(lp5556
I0
aI0
aI3
asI6661
(lp5557
I0
aI0
aI0
asI6662
(lp5558
I0
aI0
aI0
asI6663
(lp5559
I0
aI0
aI0
asI6664
(lp5560
I1
aI1
aI0
asI6665
(lp5561
I0
aI0
aI0
asI6666
(lp5562
I0
aI0
aI0
asI6667
(lp5563
I0
aI0
aI2
asI6668
(lp5564
I0
aI0
aI0
asI6669
(lp5565
I0
aI0
aI0
asI6670
(lp5566
I0
aI0
aI0
asI6671
(lp5567
I0
aI0
aI1
asI6672
(lp5568
I0
aI0
aI0
asI6673
(lp5569
I1
aI0
aI2
asI6674
(lp5570
I1
aI0
aI2
asI6675
(lp5571
I0
aI0
aI1
asI6676
(lp5572
I0
aI0
aI3
asI6677
(lp5573
I0
aI0
aI0
asI6678
(lp5574
I0
aI0
aI8
asI6679
(lp5575
I0
aI0
aI0
asI6680
(lp5576
I0
aI0
aI0
asI6681
(lp5577
I0
aI0
aI0
asI6682
(lp5578
I0
aI1
aI0
asI6683
(lp5579
I0
aI0
aI0
asI6684
(lp5580
I0
aI0
aI0
asI6685
(lp5581
I0
aI0
aI0
asI6686
(lp5582
I0
aI0
aI0
asI6687
(lp5583
I0
aI0
aI0
asI6688
(lp5584
I0
aI0
aI1
asI6689
(lp5585
I3
aI0
aI0
asI6690
(lp5586
I1
aI0
aI1
asI6691
(lp5587
I0
aI0
aI1
asI6692
(lp5588
I0
aI0
aI0
asI6693
(lp5589
I0
aI0
aI0
asI6694
(lp5590
I0
aI0
aI0
asI6695
(lp5591
I0
aI0
aI0
asI6696
(lp5592
I0
aI0
aI0
asI6697
(lp5593
I0
aI0
aI0
asI6698
(lp5594
I0
aI7
aI181
asI6699
(lp5595
I0
aI0
aI0
asI6700
(lp5596
I0
aI1
aI0
asI6701
(lp5597
I0
aI0
aI4
asI6702
(lp5598
I0
aI0
aI0
asI6703
(lp5599
I0
aI0
aI0
asI6704
(lp5600
I0
aI0
aI0
asI6705
(lp5601
I0
aI0
aI0
asI6706
(lp5602
I1
aI1
aI0
asI6707
(lp5603
I0
aI0
aI1
asI6708
(lp5604
I1
aI2
aI0
asI6709
(lp5605
I0
aI0
aI0
asI6710
(lp5606
I1
aI0
aI3
asI6711
(lp5607
I0
aI0
aI0
asI6712
(lp5608
I0
aI0
aI0
asI6713
(lp5609
I0
aI0
aI0
asI6714
(lp5610
I0
aI0
aI1
asI6715
(lp5611
I0
aI0
aI0
asI6716
(lp5612
I0
aI0
aI0
asI6717
(lp5613
I0
aI0
aI0
asI6718
(lp5614
I1
aI0
aI0
asI6719
(lp5615
I0
aI0
aI0
asI6720
(lp5616
I0
aI0
aI0
asI6721
(lp5617
I0
aI0
aI1
asI6722
(lp5618
I0
aI0
aI0
asI6723
(lp5619
I0
aI0
aI0
asI6724
(lp5620
I1
aI1
aI0
asI6725
(lp5621
I0
aI0
aI0
asI6726
(lp5622
I0
aI0
aI0
asI6727
(lp5623
I0
aI0
aI0
asI6728
(lp5624
I1
aI0
aI0
asI6729
(lp5625
I0
aI0
aI0
asI6730
(lp5626
I0
aI0
aI0
asI6731
(lp5627
I0
aI1
aI0
asI6732
(lp5628
I0
aI0
aI0
asI6733
(lp5629
I0
aI0
aI0
asI6734
(lp5630
I0
aI0
aI0
asI6735
(lp5631
I0
aI0
aI0
asI6736
(lp5632
I0
aI0
aI2
asI6737
(lp5633
I0
aI0
aI1
asI6738
(lp5634
I0
aI0
aI0
asI6739
(lp5635
I0
aI0
aI0
asI6740
(lp5636
I0
aI0
aI0
asI6741
(lp5637
I0
aI0
aI2
asI6742
(lp5638
I0
aI0
aI1
asI6743
(lp5639
I0
aI0
aI2
asI6744
(lp5640
I0
aI0
aI0
asI6745
(lp5641
I0
aI0
aI0
asI6746
(lp5642
I0
aI0
aI0
asI6747
(lp5643
I0
aI0
aI0
asI6748
(lp5644
I0
aI1
aI4
asI6749
(lp5645
I0
aI0
aI2
asI6750
(lp5646
I0
aI0
aI0
asI6751
(lp5647
I0
aI0
aI0
asI6752
(lp5648
I0
aI0
aI0
asI6753
(lp5649
I0
aI0
aI0
asI6754
(lp5650
I2
aI0
aI45
asI6755
(lp5651
I0
aI0
aI0
asI6756
(lp5652
I0
aI0
aI0
asI6757
(lp5653
I0
aI0
aI0
asI6758
(lp5654
I0
aI0
aI0
asI6759
(lp5655
I0
aI0
aI0
asI6760
(lp5656
I1
aI1
aI0
asI6761
(lp5657
I1
aI0
aI0
asI6762
(lp5658
I0
aI0
aI0
asI6763
(lp5659
I0
aI0
aI0
asI6764
(lp5660
I0
aI0
aI0
asI6765
(lp5661
I0
aI0
aI0
asI6766
(lp5662
I1
aI0
aI0
asI6767
(lp5663
I0
aI0
aI0
asI6768
(lp5664
I0
aI0
aI0
asI6769
(lp5665
I0
aI0
aI2
asI6770
(lp5666
I0
aI0
aI0
asI6771
(lp5667
I1
aI0
aI0
asI6772
(lp5668
I0
aI0
aI0
asI6773
(lp5669
I0
aI0
aI0
asI6774
(lp5670
I0
aI0
aI0
asI6775
(lp5671
I0
aI0
aI2
asI6776
(lp5672
I0
aI0
aI0
asI6777
(lp5673
I0
aI0
aI0
asI6778
(lp5674
I0
aI0
aI0
asI6779
(lp5675
I0
aI0
aI0
asI6780
(lp5676
I0
aI0
aI0
asI6781
(lp5677
I1
aI0
aI1
asI6782
(lp5678
I0
aI0
aI0
asI6783
(lp5679
I0
aI0
aI0
asI6784
(lp5680
I0
aI0
aI0
asI6785
(lp5681
I0
aI0
aI1
asI6786
(lp5682
I0
aI0
aI0
asI6787
(lp5683
I0
aI0
aI4
asI6788
(lp5684
I0
aI0
aI0
asI6789
(lp5685
I0
aI0
aI0
asI6790
(lp5686
I0
aI0
aI0
asI6791
(lp5687
I0
aI0
aI2
asI6792
(lp5688
I0
aI0
aI4
asI6793
(lp5689
I1
aI1
aI1
asI6794
(lp5690
I0
aI0
aI0
asI6795
(lp5691
I0
aI0
aI0
asI6796
(lp5692
I0
aI0
aI0
asI6797
(lp5693
I1
aI0
aI0
asI6798
(lp5694
I0
aI0
aI1
asI6799
(lp5695
I0
aI0
aI2
asI6800
(lp5696
I1
aI0
aI0
asI6801
(lp5697
I0
aI0
aI0
asI6802
(lp5698
I0
aI0
aI0
asI6803
(lp5699
I0
aI0
aI0
asI6804
(lp5700
I0
aI0
aI0
asI6805
(lp5701
I0
aI0
aI1
asI6806
(lp5702
I0
aI0
aI0
asI6807
(lp5703
I1
aI0
aI0
asI6808
(lp5704
I0
aI0
aI0
asI6809
(lp5705
I0
aI0
aI0
asI6810
(lp5706
I0
aI0
aI0
asI6811
(lp5707
I0
aI0
aI0
asI6812
(lp5708
I0
aI0
aI0
asI6813
(lp5709
I0
aI0
aI0
asI6814
(lp5710
I0
aI0
aI0
asI6815
(lp5711
I0
aI0
aI0
asI6816
(lp5712
I0
aI0
aI0
asI6817
(lp5713
I0
aI0
aI0
asI6818
(lp5714
I0
aI0
aI0
asI6819
(lp5715
I0
aI0
aI0
asI6820
(lp5716
I0
aI0
aI0
asI6821
(lp5717
I0
aI0
aI0
asI6822
(lp5718
I0
aI0
aI0
asI6823
(lp5719
I0
aI0
aI0
asI6824
(lp5720
I0
aI0
aI0
asI6825
(lp5721
I0
aI0
aI0
asI6826
(lp5722
I0
aI0
aI0
asI6827
(lp5723
I1
aI0
aI0
asI6828
(lp5724
I0
aI0
aI2
asI6829
(lp5725
I0
aI0
aI0
asI6830
(lp5726
I0
aI0
aI0
asI6831
(lp5727
I0
aI0
aI6
asI6832
(lp5728
I0
aI1
aI0
asI6833
(lp5729
I0
aI0
aI0
asI6834
(lp5730
I0
aI0
aI0
asI6835
(lp5731
I0
aI0
aI0
asI6836
(lp5732
I0
aI0
aI0
asI6837
(lp5733
I0
aI0
aI0
asI6838
(lp5734
I0
aI0
aI1
asI6839
(lp5735
I0
aI0
aI0
asI6840
(lp5736
I0
aI0
aI2
asI6841
(lp5737
I0
aI0
aI0
asI6842
(lp5738
I0
aI0
aI1
asI6843
(lp5739
I0
aI0
aI0
asI6844
(lp5740
I0
aI0
aI0
asI6845
(lp5741
I0
aI0
aI0
asI6846
(lp5742
I0
aI0
aI0
asI6847
(lp5743
I0
aI0
aI5
asI6848
(lp5744
I4
aI0
aI1
asI6849
(lp5745
I1
aI0
aI0
asI6850
(lp5746
I0
aI1
aI4
asI6851
(lp5747
I0
aI0
aI0
asI6852
(lp5748
I0
aI2
aI0
asI6853
(lp5749
I0
aI0
aI0
asI6854
(lp5750
I2
aI0
aI0
asI6855
(lp5751
I0
aI0
aI3
asI6856
(lp5752
I0
aI0
aI0
asI6857
(lp5753
I0
aI0
aI3
asI6858
(lp5754
I0
aI0
aI0
asI6859
(lp5755
I0
aI0
aI0
asI6860
(lp5756
I0
aI0
aI1
asI6861
(lp5757
I0
aI0
aI0
asI6862
(lp5758
I0
aI0
aI0
asI6863
(lp5759
I0
aI0
aI0
asI6864
(lp5760
I0
aI0
aI0
asI6865
(lp5761
I1
aI0
aI1
asI6866
(lp5762
I0
aI0
aI0
asI6867
(lp5763
I0
aI0
aI0
asI6868
(lp5764
I0
aI0
aI0
asI6869
(lp5765
I0
aI0
aI0
asI6870
(lp5766
I0
aI0
aI0
asI6871
(lp5767
I0
aI0
aI2
asI6872
(lp5768
I0
aI0
aI1
asI6873
(lp5769
I0
aI0
aI0
asI6874
(lp5770
I0
aI0
aI0
asI6875
(lp5771
I0
aI1
aI1
asI6876
(lp5772
I1
aI0
aI0
asI6877
(lp5773
I4
aI0
aI5
asI6878
(lp5774
I1
aI0
aI0
asI6879
(lp5775
I0
aI0
aI0
asI6880
(lp5776
I0
aI0
aI0
asI6881
(lp5777
I0
aI0
aI0
asI6882
(lp5778
I1
aI0
aI0
asI6883
(lp5779
I0
aI0
aI0
asI6884
(lp5780
I0
aI0
aI0
asI6885
(lp5781
I0
aI0
aI0
asI6886
(lp5782
I0
aI0
aI0
asI6887
(lp5783
I0
aI0
aI0
asI6888
(lp5784
I0
aI0
aI0
asI6889
(lp5785
I0
aI0
aI0
asI6890
(lp5786
I0
aI0
aI0
asI6891
(lp5787
I0
aI0
aI1
asI6892
(lp5788
I0
aI0
aI2
asI6893
(lp5789
I1
aI0
aI0
asI6894
(lp5790
I4
aI0
aI4
asI6895
(lp5791
I0
aI0
aI0
asI6896
(lp5792
I0
aI0
aI2
asI6897
(lp5793
I2
aI0
aI0
asI6898
(lp5794
I0
aI0
aI0
asI6899
(lp5795
I0
aI0
aI0
asI6900
(lp5796
I1
aI0
aI1
asI6901
(lp5797
I0
aI0
aI0
asI6902
(lp5798
I0
aI0
aI0
asI6903
(lp5799
I0
aI0
aI0
asI6904
(lp5800
I0
aI0
aI0
asI6905
(lp5801
I1
aI0
aI0
asI6906
(lp5802
I0
aI0
aI0
asI6907
(lp5803
I0
aI0
aI0
asI6908
(lp5804
I0
aI0
aI0
asI6909
(lp5805
I0
aI0
aI1
asI6910
(lp5806
I0
aI0
aI0
asI6911
(lp5807
I1
aI0
aI0
asI6912
(lp5808
I0
aI0
aI0
asI6913
(lp5809
I0
aI0
aI0
asI6914
(lp5810
I0
aI0
aI0
asI6915
(lp5811
I0
aI2
aI0
asI6916
(lp5812
I0
aI0
aI0
asI6917
(lp5813
I0
aI0
aI0
asI6918
(lp5814
I0
aI0
aI0
asI6919
(lp5815
I1
aI0
aI1
asI6920
(lp5816
I0
aI0
aI0
asI6921
(lp5817
I0
aI0
aI0
asI6922
(lp5818
I0
aI0
aI0
asI6923
(lp5819
I0
aI0
aI0
asI6924
(lp5820
I0
aI0
aI3
asI6925
(lp5821
I0
aI0
aI0
asI6926
(lp5822
I0
aI0
aI0
asI6927
(lp5823
I0
aI0
aI1
asI6928
(lp5824
I0
aI0
aI0
asI6929
(lp5825
I0
aI0
aI0
asI6930
(lp5826
I0
aI0
aI0
asI6931
(lp5827
I0
aI0
aI0
asI6932
(lp5828
I0
aI0
aI0
asI6933
(lp5829
I0
aI0
aI0
asI6934
(lp5830
I0
aI0
aI0
asI6935
(lp5831
I0
aI0
aI0
asI6936
(lp5832
I0
aI0
aI1
asI6937
(lp5833
I0
aI0
aI0
asI6938
(lp5834
I0
aI1
aI0
asI6939
(lp5835
I0
aI0
aI0
asI6940
(lp5836
I0
aI0
aI0
asI6941
(lp5837
I0
aI0
aI0
asI6942
(lp5838
I0
aI0
aI0
asI6943
(lp5839
I0
aI0
aI0
asI6944
(lp5840
I0
aI0
aI1
asI6945
(lp5841
I0
aI0
aI0
asI6946
(lp5842
I2
aI2
aI28
asI6947
(lp5843
I0
aI0
aI0
asI6948
(lp5844
I0
aI0
aI0
asI6949
(lp5845
I0
aI0
aI1
asI6950
(lp5846
I2
aI1
aI4
asI6951
(lp5847
I0
aI0
aI0
asI6952
(lp5848
I6
aI0
aI6
asI6953
(lp5849
I1
aI0
aI0
asI6954
(lp5850
I0
aI0
aI0
asI6955
(lp5851
I0
aI0
aI4
asI6956
(lp5852
I0
aI0
aI0
asI6957
(lp5853
I1
aI0
aI2
asI6958
(lp5854
I0
aI0
aI3
asI6959
(lp5855
I0
aI0
aI0
asI6960
(lp5856
I1
aI35
aI403
asI6961
(lp5857
I0
aI0
aI0
asI6962
(lp5858
I0
aI0
aI0
asI6963
(lp5859
I0
aI0
aI0
asI6964
(lp5860
I0
aI0
aI0
asI6965
(lp5861
I0
aI0
aI0
asI6966
(lp5862
I0
aI0
aI0
asI6967
(lp5863
I0
aI0
aI1
asI6968
(lp5864
I0
aI0
aI0
asI6969
(lp5865
I0
aI0
aI2
asI6970
(lp5866
I0
aI0
aI0
asI6971
(lp5867
I0
aI0
aI1
asI6972
(lp5868
I0
aI0
aI0
asI6973
(lp5869
I0
aI0
aI0
asI6974
(lp5870
I0
aI0
aI0
asI6975
(lp5871
I0
aI0
aI0
asI6976
(lp5872
I0
aI0
aI0
asI6977
(lp5873
I0
aI1
aI0
asI6978
(lp5874
I0
aI0
aI0
asI6979
(lp5875
I0
aI0
aI0
asI6980
(lp5876
I0
aI0
aI0
asI6981
(lp5877
I0
aI0
aI0
asI6982
(lp5878
I1
aI0
aI0
asI6983
(lp5879
I0
aI0
aI0
asI6984
(lp5880
I0
aI0
aI0
asI6985
(lp5881
I0
aI0
aI0
asI6986
(lp5882
I0
aI0
aI0
asI6987
(lp5883
I0
aI0
aI0
asI6989
(lp5884
I0
aI0
aI0
asI6990
(lp5885
I0
aI0
aI0
asI6991
(lp5886
I0
aI0
aI0
asI6992
(lp5887
I0
aI0
aI0
asI6993
(lp5888
I0
aI0
aI0
asI6994
(lp5889
I0
aI0
aI0
asI6995
(lp5890
I0
aI0
aI0
asI6996
(lp5891
I0
aI0
aI0
asI6997
(lp5892
I0
aI0
aI0
asI6998
(lp5893
I0
aI0
aI0
asI6999
(lp5894
I0
aI0
aI3
asI7000
(lp5895
I0
aI0
aI0
asI7001
(lp5896
I0
aI0
aI0
asI7002
(lp5897
I0
aI0
aI0
asI7003
(lp5898
I0
aI0
aI0
asI7004
(lp5899
I1
aI0
aI1
asI7005
(lp5900
I2
aI0
aI0
asI7006
(lp5901
I0
aI0
aI0
asI7007
(lp5902
I0
aI0
aI0
asI7008
(lp5903
I0
aI0
aI0
asI7009
(lp5904
I0
aI0
aI0
asI7010
(lp5905
I0
aI0
aI0
asI7011
(lp5906
I0
aI0
aI0
asI7012
(lp5907
I0
aI0
aI2
asI7013
(lp5908
I0
aI0
aI0
asI7014
(lp5909
I0
aI0
aI0
asI7015
(lp5910
I0
aI0
aI0
asI7016
(lp5911
I0
aI0
aI0
asI7017
(lp5912
I0
aI0
aI0
asI7018
(lp5913
I0
aI0
aI0
asI7019
(lp5914
I0
aI0
aI0
asI7020
(lp5915
I0
aI0
aI0
asI7021
(lp5916
I0
aI0
aI0
asI7022
(lp5917
I0
aI0
aI0
asI7023
(lp5918
I0
aI0
aI1
asI7024
(lp5919
I0
aI0
aI0
asI7025
(lp5920
I0
aI0
aI0
asI7026
(lp5921
I0
aI0
aI2
asI7027
(lp5922
I0
aI0
aI0
asI7028
(lp5923
I0
aI0
aI0
asI7029
(lp5924
I0
aI0
aI2
asI7030
(lp5925
I0
aI0
aI0
asI7031
(lp5926
I0
aI0
aI0
asI7032
(lp5927
I1
aI0
aI0
asI7033
(lp5928
I0
aI0
aI0
asI7034
(lp5929
I0
aI0
aI0
asI7035
(lp5930
I0
aI0
aI1
asI7036
(lp5931
I0
aI0
aI2
asI7037
(lp5932
I1
aI0
aI0
asI7038
(lp5933
I0
aI0
aI0
asI7039
(lp5934
I0
aI0
aI1
asI7040
(lp5935
I0
aI0
aI0
asI7041
(lp5936
I3
aI0
aI3
asI7042
(lp5937
I0
aI0
aI0
asI7043
(lp5938
I0
aI0
aI0
asI7044
(lp5939
I0
aI0
aI0
asI7045
(lp5940
I0
aI0
aI0
asI7046
(lp5941
I1
aI0
aI0
asI7047
(lp5942
I0
aI0
aI0
asI7048
(lp5943
I0
aI0
aI2
asI7049
(lp5944
I0
aI0
aI0
asI7050
(lp5945
I0
aI0
aI0
asI7051
(lp5946
I3
aI1
aI0
asI7052
(lp5947
I3
aI0
aI2
asI7053
(lp5948
I8
aI0
aI5
asI7054
(lp5949
I0
aI0
aI0
asI7055
(lp5950
I0
aI0
aI0
asI7056
(lp5951
I0
aI0
aI0
asI7057
(lp5952
I0
aI0
aI0
asI7058
(lp5953
I0
aI0
aI0
asI7059
(lp5954
I0
aI0
aI0
asI7060
(lp5955
I0
aI0
aI2
asI7061
(lp5956
I1
aI0
aI1
asI7062
(lp5957
I0
aI0
aI0
asI7063
(lp5958
I0
aI0
aI2
asI7064
(lp5959
I1
aI0
aI0
asI7065
(lp5960
I0
aI0
aI4
asI7066
(lp5961
I0
aI0
aI0
asI7067
(lp5962
I0
aI0
aI0
asI7068
(lp5963
I0
aI0
aI8
asI7069
(lp5964
I0
aI0
aI0
asI7070
(lp5965
I0
aI0
aI1
asI7071
(lp5966
I1
aI0
aI0
asI7072
(lp5967
I0
aI0
aI0
asI7073
(lp5968
I0
aI0
aI0
asI7074
(lp5969
I0
aI0
aI2
asI7075
(lp5970
I0
aI0
aI0
asI7076
(lp5971
I0
aI0
aI1
asI7077
(lp5972
I0
aI0
aI0
asI7078
(lp5973
I0
aI0
aI0
asI7079
(lp5974
I0
aI2
aI1
asI7080
(lp5975
I0
aI0
aI0
asI7081
(lp5976
I0
aI0
aI1
asI7082
(lp5977
I0
aI0
aI0
asI7083
(lp5978
I0
aI0
aI0
asI7084
(lp5979
I0
aI0
aI0
asI7085
(lp5980
I0
aI1
aI0
asI7086
(lp5981
I0
aI0
aI1
asI7087
(lp5982
I0
aI1
aI0
asI7088
(lp5983
I0
aI0
aI0
asI7089
(lp5984
I0
aI0
aI0
asI7090
(lp5985
I0
aI1
aI0
asI7091
(lp5986
I0
aI0
aI0
asI7092
(lp5987
I0
aI0
aI0
asI7093
(lp5988
I0
aI0
aI0
asI7094
(lp5989
I0
aI0
aI0
asI7095
(lp5990
I0
aI0
aI0
asI7096
(lp5991
I0
aI1
aI0
asI7098
(lp5992
I0
aI0
aI0
asI7099
(lp5993
I0
aI0
aI0
asI7100
(lp5994
I0
aI0
aI0
asI7101
(lp5995
I0
aI0
aI0
asI7102
(lp5996
I0
aI0
aI2
asI7103
(lp5997
I0
aI0
aI0
asI7104
(lp5998
I0
aI0
aI0
asI7105
(lp5999
I0
aI0
aI0
asI7106
(lp6000
I0
aI0
aI0
asI7107
(lp6001
I0
aI0
aI2
asI7108
(lp6002
I0
aI0
aI2
asI7109
(lp6003
I0
aI0
aI0
asI7110
(lp6004
I0
aI0
aI0
asI7111
(lp6005
I0
aI0
aI2
asI7112
(lp6006
I0
aI0
aI0
asI7113
(lp6007
I0
aI0
aI0
asI7114
(lp6008
I0
aI0
aI1
asI7115
(lp6009
I0
aI0
aI0
asI7116
(lp6010
I0
aI0
aI0
asI7117
(lp6011
I0
aI0
aI0
asI7118
(lp6012
I0
aI0
aI0
asI7119
(lp6013
I0
aI1
aI0
asI7120
(lp6014
I0
aI0
aI0
asI7121
(lp6015
I0
aI0
aI0
asI7122
(lp6016
I0
aI0
aI0
asI7123
(lp6017
I0
aI0
aI0
asI7124
(lp6018
I0
aI0
aI0
asI7125
(lp6019
I2
aI0
aI8
asI7126
(lp6020
I0
aI0
aI0
asI7127
(lp6021
I0
aI0
aI0
asI7128
(lp6022
I10
aI1
aI53
asI7129
(lp6023
I1
aI0
aI1
asI7130
(lp6024
I0
aI0
aI0
asI7131
(lp6025
I0
aI0
aI0
asI7132
(lp6026
I0
aI0
aI0
asI7133
(lp6027
I0
aI0
aI1
asI7134
(lp6028
I0
aI0
aI0
asI7135
(lp6029
I0
aI0
aI0
asI7136
(lp6030
I0
aI0
aI0
asI7137
(lp6031
I0
aI0
aI0
asI7138
(lp6032
I0
aI0
aI0
asI7139
(lp6033
I0
aI0
aI0
asI7140
(lp6034
I0
aI0
aI0
asI7141
(lp6035
I0
aI0
aI0
asI7142
(lp6036
I0
aI0
aI1
asI7143
(lp6037
I0
aI0
aI0
asI7144
(lp6038
I0
aI0
aI0
asI7145
(lp6039
I0
aI0
aI0
asI7146
(lp6040
I0
aI0
aI1
asI7147
(lp6041
I1
aI0
aI0
asI7148
(lp6042
I0
aI0
aI0
asI7149
(lp6043
I0
aI1
aI0
asI7150
(lp6044
I0
aI0
aI0
asI7151
(lp6045
I0
aI0
aI0
asI7152
(lp6046
I0
aI0
aI0
asI7153
(lp6047
I1
aI0
aI0
asI7154
(lp6048
I0
aI0
aI0
asI7155
(lp6049
I0
aI0
aI0
asI7156
(lp6050
I0
aI0
aI0
asI7157
(lp6051
I0
aI0
aI0
asI7158
(lp6052
I0
aI0
aI0
asI7159
(lp6053
I0
aI0
aI0
asI7160
(lp6054
I0
aI0
aI0
asI7161
(lp6055
I19
aI19
aI473
asI7162
(lp6056
I0
aI0
aI0
asI7163
(lp6057
I0
aI0
aI0
asI7164
(lp6058
I0
aI0
aI0
asI7165
(lp6059
I1
aI0
aI1
asI7166
(lp6060
I1
aI6
aI4
asI7167
(lp6061
I0
aI0
aI0
asI7168
(lp6062
I0
aI0
aI0
asI7169
(lp6063
I1
aI0
aI0
asI7170
(lp6064
I0
aI0
aI0
asI7171
(lp6065
I0
aI0
aI0
asI7172
(lp6066
I0
aI0
aI0
asI7173
(lp6067
I0
aI0
aI0
asI7174
(lp6068
I0
aI0
aI1
asI7175
(lp6069
I1
aI0
aI0
asI7176
(lp6070
I0
aI0
aI0
asI7177
(lp6071
I0
aI0
aI0
asI7179
(lp6072
I0
aI0
aI0
asI7180
(lp6073
I0
aI0
aI1
asI7181
(lp6074
I0
aI0
aI0
asI7182
(lp6075
I0
aI0
aI0
asI7183
(lp6076
I0
aI0
aI0
asI7184
(lp6077
I5
aI5
aI3
asI7185
(lp6078
I0
aI0
aI0
asI7186
(lp6079
I0
aI0
aI8
asI7187
(lp6080
I0
aI0
aI0
asI7188
(lp6081
I0
aI0
aI0
asI7189
(lp6082
I0
aI0
aI0
asI7190
(lp6083
I0
aI0
aI1
asI7191
(lp6084
I0
aI0
aI0
asI7192
(lp6085
I0
aI0
aI2
asI7193
(lp6086
I0
aI0
aI0
asI7194
(lp6087
I0
aI0
aI0
asI7195
(lp6088
I0
aI0
aI2
asI7196
(lp6089
I0
aI0
aI0
asI7197
(lp6090
I0
aI0
aI0
asI7198
(lp6091
I0
aI0
aI0
asI7199
(lp6092
I0
aI0
aI0
asI7200
(lp6093
I0
aI0
aI0
asI7201
(lp6094
I0
aI0
aI2
asI7202
(lp6095
I0
aI0
aI0
asI7203
(lp6096
I1
aI3
aI3
asI7204
(lp6097
I0
aI0
aI1
asI7205
(lp6098
I0
aI0
aI0
asI7206
(lp6099
I0
aI0
aI0
asI7207
(lp6100
I0
aI0
aI0
asI7208
(lp6101
I0
aI0
aI0
asI7209
(lp6102
I0
aI0
aI0
asI7210
(lp6103
I1
aI0
aI0
asI7211
(lp6104
I0
aI0
aI0
asI7212
(lp6105
I0
aI0
aI0
asI7213
(lp6106
I0
aI0
aI0
asI7214
(lp6107
I0
aI0
aI0
asI7215
(lp6108
I1
aI0
aI1
asI7216
(lp6109
I0
aI0
aI1
asI7217
(lp6110
I0
aI0
aI0
asI7218
(lp6111
I0
aI0
aI0
asI7219
(lp6112
I0
aI0
aI0
asI7220
(lp6113
I0
aI0
aI0
asI7221
(lp6114
I0
aI0
aI0
asI7222
(lp6115
I1
aI0
aI0
asI7223
(lp6116
I0
aI0
aI0
asI7224
(lp6117
I0
aI0
aI0
asI7225
(lp6118
I0
aI0
aI0
asI7226
(lp6119
I0
aI0
aI0
asI7227
(lp6120
I0
aI1
aI0
asI7228
(lp6121
I0
aI1
aI0
asI7229
(lp6122
I0
aI0
aI0
asI7230
(lp6123
I0
aI0
aI2
asI7231
(lp6124
I0
aI0
aI1
asI7233
(lp6125
I0
aI0
aI1
asI7234
(lp6126
I0
aI0
aI0
asI7235
(lp6127
I0
aI0
aI2
asI7236
(lp6128
I0
aI0
aI3
asI7237
(lp6129
I0
aI0
aI2
asI7238
(lp6130
I0
aI0
aI0
asI7239
(lp6131
I0
aI0
aI0
asI7240
(lp6132
I0
aI0
aI0
asI7241
(lp6133
I0
aI0
aI0
asI7242
(lp6134
I0
aI0
aI0
asI7243
(lp6135
I0
aI0
aI0
asI7244
(lp6136
I0
aI0
aI2
asI7245
(lp6137
I1
aI0
aI1
asI7246
(lp6138
I0
aI0
aI0
asI7247
(lp6139
I0
aI0
aI0
asI7248
(lp6140
I1
aI0
aI0
asI7249
(lp6141
I0
aI0
aI0
asI7250
(lp6142
I0
aI0
aI0
asI7251
(lp6143
I0
aI0
aI0
asI7252
(lp6144
I0
aI0
aI1
asI7253
(lp6145
I0
aI0
aI0
asI7254
(lp6146
I0
aI3
aI0
asI7255
(lp6147
I0
aI0
aI0
asI7256
(lp6148
I0
aI0
aI0
asI7257
(lp6149
I0
aI0
aI0
asI7258
(lp6150
I1
aI0
aI0
asI7259
(lp6151
I0
aI0
aI1
asI7260
(lp6152
I2
aI0
aI1
asI7261
(lp6153
I0
aI0
aI0
asI7262
(lp6154
I0
aI0
aI2
asI7263
(lp6155
I0
aI0
aI2
asI7264
(lp6156
I0
aI0
aI0
asI7265
(lp6157
I0
aI0
aI0
asI7266
(lp6158
I0
aI0
aI0
asI7267
(lp6159
I1
aI1
aI0
asI7268
(lp6160
I0
aI0
aI0
asI7269
(lp6161
I0
aI0
aI46
asI7270
(lp6162
I0
aI0
aI0
asI7271
(lp6163
I0
aI0
aI2
asI7272
(lp6164
I0
aI0
aI0
asI7273
(lp6165
I0
aI0
aI2
asI7274
(lp6166
I0
aI0
aI0
asI7275
(lp6167
I0
aI0
aI0
asI7276
(lp6168
I0
aI1
aI0
asI7277
(lp6169
I0
aI0
aI0
asI7278
(lp6170
I0
aI0
aI0
asI7279
(lp6171
I0
aI0
aI0
asI7280
(lp6172
I0
aI0
aI0
asI7281
(lp6173
I0
aI0
aI0
asI7282
(lp6174
I0
aI0
aI0
asI7283
(lp6175
I0
aI0
aI0
asI7284
(lp6176
I0
aI0
aI0
asI7285
(lp6177
I0
aI0
aI0
asI7286
(lp6178
I0
aI0
aI3
asI7287
(lp6179
I0
aI0
aI0
asI7288
(lp6180
I0
aI0
aI1
asI7289
(lp6181
I0
aI0
aI2
asI7290
(lp6182
I0
aI0
aI0
asI7291
(lp6183
I0
aI0
aI0
asI7292
(lp6184
I0
aI0
aI0
asI7293
(lp6185
I0
aI0
aI0
asI7294
(lp6186
I0
aI0
aI0
asI7295
(lp6187
I0
aI0
aI1
asI7296
(lp6188
I0
aI0
aI0
asI7297
(lp6189
I0
aI0
aI0
asI7298
(lp6190
I2
aI0
aI4
asI7299
(lp6191
I0
aI0
aI2
asI7300
(lp6192
I0
aI0
aI0
asI7301
(lp6193
I0
aI0
aI0
asI7302
(lp6194
I0
aI0
aI0
asI7303
(lp6195
I0
aI0
aI0
asI7304
(lp6196
I0
aI0
aI0
asI7305
(lp6197
I0
aI0
aI0
asI7306
(lp6198
I0
aI0
aI0
asI7307
(lp6199
I0
aI0
aI0
asI7308
(lp6200
I0
aI0
aI0
asI7309
(lp6201
I0
aI0
aI0
asI7310
(lp6202
I0
aI0
aI0
asI7311
(lp6203
I0
aI0
aI1
asI7312
(lp6204
I0
aI0
aI0
asI7313
(lp6205
I0
aI0
aI0
asI7314
(lp6206
I0
aI0
aI0
asI7315
(lp6207
I0
aI0
aI5
asI7316
(lp6208
I0
aI1
aI0
asI7317
(lp6209
I0
aI0
aI0
asI7318
(lp6210
I2
aI0
aI2
asI7319
(lp6211
I0
aI0
aI0
asI7320
(lp6212
I1
aI1
aI2
asI7321
(lp6213
I0
aI0
aI0
asI7322
(lp6214
I0
aI0
aI0
asI7323
(lp6215
I0
aI0
aI0
asI7324
(lp6216
I0
aI0
aI2
asI7325
(lp6217
I0
aI0
aI0
asI7326
(lp6218
I0
aI0
aI0
asI7327
(lp6219
I0
aI0
aI0
asI7328
(lp6220
I0
aI0
aI0
asI7329
(lp6221
I0
aI0
aI0
asI7330
(lp6222
I0
aI0
aI0
asI7331
(lp6223
I0
aI0
aI0
asI7332
(lp6224
I0
aI0
aI1
asI7333
(lp6225
I0
aI0
aI0
asI7334
(lp6226
I0
aI0
aI0
asI7335
(lp6227
I0
aI0
aI0
asI7336
(lp6228
I0
aI0
aI0
asI7337
(lp6229
I0
aI0
aI0
asI7338
(lp6230
I0
aI0
aI0
asI7339
(lp6231
I0
aI0
aI5
asI7340
(lp6232
I0
aI0
aI0
asI7341
(lp6233
I0
aI0
aI1
asI7342
(lp6234
I0
aI0
aI2
asI7343
(lp6235
I0
aI0
aI0
asI7344
(lp6236
I0
aI0
aI0
asI7345
(lp6237
I0
aI0
aI0
asI7346
(lp6238
I0
aI0
aI2
asI7347
(lp6239
I0
aI0
aI0
asI7348
(lp6240
I0
aI0
aI0
asI7349
(lp6241
I0
aI0
aI0
asI7350
(lp6242
I0
aI0
aI0
asI7351
(lp6243
I0
aI0
aI0
asI7352
(lp6244
I0
aI0
aI0
asI7353
(lp6245
I0
aI0
aI1
asI7354
(lp6246
I0
aI0
aI0
asI7355
(lp6247
I0
aI0
aI0
asI7356
(lp6248
I0
aI0
aI0
asI7357
(lp6249
I2
aI2
aI5
asI7358
(lp6250
I0
aI0
aI0
asI7359
(lp6251
I0
aI0
aI0
asI7360
(lp6252
I0
aI0
aI0
asI7361
(lp6253
I1
aI0
aI0
asI7362
(lp6254
I0
aI0
aI0
asI7363
(lp6255
I0
aI0
aI0
asI7364
(lp6256
I0
aI0
aI0
asI7365
(lp6257
I0
aI0
aI0
asI7366
(lp6258
I1
aI0
aI1
asI7367
(lp6259
I0
aI0
aI0
asI7368
(lp6260
I0
aI0
aI0
asI7369
(lp6261
I0
aI0
aI0
asI7370
(lp6262
I0
aI0
aI0
asI7371
(lp6263
I0
aI0
aI0
asI7372
(lp6264
I0
aI0
aI0
asI7373
(lp6265
I0
aI0
aI0
asI7374
(lp6266
I0
aI0
aI0
asI7375
(lp6267
I0
aI0
aI1
asI7376
(lp6268
I0
aI0
aI0
asI7377
(lp6269
I0
aI0
aI0
asI7378
(lp6270
I0
aI0
aI0
asI7379
(lp6271
I0
aI0
aI0
asI7380
(lp6272
I1
aI1
aI0
asI7381
(lp6273
I0
aI0
aI0
asI7382
(lp6274
I0
aI0
aI0
asI7383
(lp6275
I0
aI0
aI0
asI7384
(lp6276
I0
aI0
aI0
asI7385
(lp6277
I0
aI0
aI2
asI7386
(lp6278
I0
aI1
aI0
asI7387
(lp6279
I0
aI0
aI0
asI7389
(lp6280
I0
aI0
aI0
asI7390
(lp6281
I0
aI0
aI0
asI7391
(lp6282
I0
aI0
aI0
asI7392
(lp6283
I0
aI0
aI1
asI7393
(lp6284
I0
aI0
aI0
asI7394
(lp6285
I1
aI0
aI0
asI7395
(lp6286
I0
aI0
aI0
asI7396
(lp6287
I0
aI0
aI0
asI7397
(lp6288
I0
aI0
aI0
asI7398
(lp6289
I0
aI0
aI0
asI7399
(lp6290
I2
aI1
aI0
asI7400
(lp6291
I0
aI0
aI0
asI7401
(lp6292
I0
aI0
aI3
asI7402
(lp6293
I0
aI0
aI0
asI7403
(lp6294
I0
aI0
aI0
asI7404
(lp6295
I1
aI0
aI1
asI7405
(lp6296
I1
aI0
aI2
asI7406
(lp6297
I0
aI0
aI1
asI7407
(lp6298
I0
aI0
aI0
asI7408
(lp6299
I0
aI0
aI1
asI7409
(lp6300
I1
aI0
aI2
asI7410
(lp6301
I0
aI0
aI0
asI7411
(lp6302
I0
aI0
aI0
asI7412
(lp6303
I0
aI0
aI1
asI7413
(lp6304
I0
aI0
aI2
asI7414
(lp6305
I0
aI0
aI1
asI7415
(lp6306
I0
aI9
aI13
asI7416
(lp6307
I0
aI0
aI0
asI7417
(lp6308
I0
aI0
aI0
asI7418
(lp6309
I0
aI0
aI5
asI7419
(lp6310
I0
aI0
aI0
asI7420
(lp6311
I0
aI0
aI1
asI7421
(lp6312
I1
aI0
aI0
asI7422
(lp6313
I0
aI0
aI0
asI7423
(lp6314
I0
aI0
aI2
asI7424
(lp6315
I0
aI0
aI0
asI7425
(lp6316
I0
aI0
aI0
asI7426
(lp6317
I0
aI0
aI0
asI7427
(lp6318
I0
aI0
aI0
asI7428
(lp6319
I0
aI0
aI0
asI7429
(lp6320
I0
aI0
aI0
asI7430
(lp6321
I0
aI0
aI0
asI7431
(lp6322
I1
aI0
aI0
asI7432
(lp6323
I0
aI0
aI0
asI7433
(lp6324
I0
aI0
aI0
asI7434
(lp6325
I0
aI0
aI0
asI7435
(lp6326
I0
aI0
aI0
asI7436
(lp6327
I0
aI0
aI0
asI7437
(lp6328
I0
aI0
aI0
asI7438
(lp6329
I0
aI0
aI0
asI7439
(lp6330
I0
aI0
aI0
asI7440
(lp6331
I0
aI0
aI0
asI7441
(lp6332
I0
aI0
aI7
asI7442
(lp6333
I0
aI0
aI0
asI7443
(lp6334
I0
aI0
aI0
asI7444
(lp6335
I1
aI0
aI1
asI7445
(lp6336
I0
aI0
aI0
asI7446
(lp6337
I0
aI0
aI0
asI7447
(lp6338
I0
aI0
aI0
asI7448
(lp6339
I0
aI0
aI0
asI7449
(lp6340
I0
aI0
aI2
asI7450
(lp6341
I0
aI0
aI0
asI7451
(lp6342
I0
aI0
aI0
asI7452
(lp6343
I0
aI0
aI0
asI7453
(lp6344
I0
aI0
aI0
asI7454
(lp6345
I0
aI0
aI6
asI7455
(lp6346
I0
aI0
aI0
asI7456
(lp6347
I0
aI0
aI0
asI7457
(lp6348
I2
aI0
aI0
asI7458
(lp6349
I0
aI0
aI0
asI7459
(lp6350
I0
aI0
aI0
asI7460
(lp6351
I0
aI0
aI0
asI7461
(lp6352
I0
aI0
aI0
asI7462
(lp6353
I0
aI0
aI0
asI7463
(lp6354
I0
aI0
aI0
asI7464
(lp6355
I1
aI0
aI0
asI7465
(lp6356
I1
aI0
aI2
asI7466
(lp6357
I1
aI0
aI2
asI7467
(lp6358
I1
aI0
aI0
asI7468
(lp6359
I0
aI1
aI1
asI7469
(lp6360
I0
aI0
aI0
asI7470
(lp6361
I0
aI0
aI0
asI7471
(lp6362
I0
aI0
aI0
asI7472
(lp6363
I1
aI0
aI0
asI7473
(lp6364
I0
aI0
aI0
asI7474
(lp6365
I0
aI0
aI0
asI7475
(lp6366
I0
aI0
aI0
asI7476
(lp6367
I2
aI0
aI2
asI7477
(lp6368
I0
aI0
aI0
asI7478
(lp6369
I0
aI0
aI0
asI7479
(lp6370
I3
aI1
aI4
asI7480
(lp6371
I0
aI0
aI0
asI7481
(lp6372
I0
aI0
aI0
asI7482
(lp6373
I0
aI0
aI0
asI7483
(lp6374
I0
aI0
aI1
asI7484
(lp6375
I0
aI0
aI0
asI7485
(lp6376
I0
aI0
aI2
asI7486
(lp6377
I0
aI1
aI0
asI7487
(lp6378
I0
aI0
aI0
asI7488
(lp6379
I0
aI0
aI0
asI7489
(lp6380
I0
aI0
aI0
asI7490
(lp6381
I0
aI0
aI0
asI7491
(lp6382
I0
aI0
aI0
asI7492
(lp6383
I0
aI0
aI0
asI7493
(lp6384
I0
aI0
aI0
asI7494
(lp6385
I0
aI0
aI0
asI7495
(lp6386
I0
aI0
aI0
asI7496
(lp6387
I0
aI0
aI0
asI7497
(lp6388
I0
aI0
aI0
asI7498
(lp6389
I0
aI0
aI0
asI7499
(lp6390
I0
aI0
aI0
asI7500
(lp6391
I0
aI0
aI0
asI7501
(lp6392
I1
aI1
aI0
asI7502
(lp6393
I0
aI0
aI0
asI7503
(lp6394
I1
aI0
aI2
asI7504
(lp6395
I0
aI0
aI0
asI7505
(lp6396
I0
aI0
aI0
asI7506
(lp6397
I0
aI0
aI0
asI7507
(lp6398
I0
aI0
aI0
asI7508
(lp6399
I0
aI0
aI0
asI7509
(lp6400
I0
aI0
aI0
asI7510
(lp6401
I0
aI0
aI0
asI7511
(lp6402
I0
aI0
aI0
asI7512
(lp6403
I0
aI0
aI2
asI7513
(lp6404
I0
aI0
aI0
asI7514
(lp6405
I0
aI0
aI0
asI7515
(lp6406
I0
aI0
aI0
asI7516
(lp6407
I0
aI0
aI1
asI7517
(lp6408
I0
aI0
aI0
asI7518
(lp6409
I0
aI0
aI6
asI7519
(lp6410
I0
aI0
aI0
asI7520
(lp6411
I0
aI0
aI0
asI7521
(lp6412
I1
aI0
aI0
asI7522
(lp6413
I0
aI0
aI0
asI7523
(lp6414
I0
aI0
aI0
asI7524
(lp6415
I0
aI0
aI0
asI7525
(lp6416
I0
aI0
aI0
asI7526
(lp6417
I0
aI0
aI1
asI7527
(lp6418
I0
aI0
aI0
asI7528
(lp6419
I0
aI0
aI2
asI7529
(lp6420
I0
aI0
aI0
asI7530
(lp6421
I0
aI0
aI0
asI7531
(lp6422
I0
aI2
aI0
asI7532
(lp6423
I0
aI0
aI0
asI7533
(lp6424
I1
aI0
aI0
asI7534
(lp6425
I0
aI1
aI1
asI7535
(lp6426
I0
aI0
aI0
asI7536
(lp6427
I0
aI0
aI0
asI7537
(lp6428
I0
aI0
aI0
asI7538
(lp6429
I0
aI0
aI0
asI7539
(lp6430
I0
aI0
aI0
asI7540
(lp6431
I0
aI0
aI0
asI7541
(lp6432
I0
aI0
aI0
asI7542
(lp6433
I0
aI0
aI0
asI7543
(lp6434
I0
aI0
aI0
asI7544
(lp6435
I0
aI0
aI0
asI7545
(lp6436
I0
aI0
aI0
asI7546
(lp6437
I0
aI0
aI8
asI7547
(lp6438
I0
aI0
aI0
asI7548
(lp6439
I0
aI0
aI0
asI7549
(lp6440
I0
aI0
aI0
asI7550
(lp6441
I0
aI0
aI0
asI7551
(lp6442
I0
aI0
aI1
asI7552
(lp6443
I0
aI0
aI2
asI7553
(lp6444
I0
aI0
aI2
asI7554
(lp6445
I0
aI0
aI1
asI7555
(lp6446
I1
aI1
aI0
asI7556
(lp6447
I1
aI0
aI0
asI7557
(lp6448
I0
aI0
aI0
asI7558
(lp6449
I1
aI0
aI1
asI7559
(lp6450
I0
aI0
aI0
asI7560
(lp6451
I0
aI0
aI0
asI7561
(lp6452
I0
aI0
aI0
asI7562
(lp6453
I0
aI0
aI0
asI7563
(lp6454
I3
aI0
aI3
asI7564
(lp6455
I0
aI0
aI0
asI7565
(lp6456
I0
aI0
aI0
asI7566
(lp6457
I0
aI0
aI1
asI7567
(lp6458
I0
aI0
aI1
asI7568
(lp6459
I0
aI0
aI0
asI7569
(lp6460
I0
aI0
aI0
asI7570
(lp6461
I0
aI0
aI0
asI7571
(lp6462
I1
aI0
aI0
asI7572
(lp6463
I1
aI0
aI0
asI7573
(lp6464
I0
aI0
aI0
asI7574
(lp6465
I0
aI0
aI0
asI7575
(lp6466
I2
aI0
aI7
asI7576
(lp6467
I0
aI0
aI0
asI7577
(lp6468
I0
aI0
aI0
asI7578
(lp6469
I1
aI0
aI0
asI7579
(lp6470
I0
aI0
aI0
asI7580
(lp6471
I0
aI0
aI0
asI7581
(lp6472
I0
aI0
aI0
asI7582
(lp6473
I0
aI0
aI0
asI7584
(lp6474
I0
aI0
aI0
asI7585
(lp6475
I0
aI0
aI0
asI7586
(lp6476
I0
aI0
aI0
asI7587
(lp6477
I1
aI1
aI0
asI7588
(lp6478
I0
aI0
aI0
asI7589
(lp6479
I0
aI0
aI2
asI7590
(lp6480
I0
aI0
aI0
asI7591
(lp6481
I0
aI0
aI1
asI7592
(lp6482
I0
aI0
aI0
asI7593
(lp6483
I0
aI0
aI0
asI7594
(lp6484
I0
aI0
aI0
asI7595
(lp6485
I0
aI0
aI1
asI7596
(lp6486
I1
aI0
aI2
asI7597
(lp6487
I2
aI1
aI1
asI7598
(lp6488
I0
aI0
aI0
asI7599
(lp6489
I1
aI0
aI1
asI7600
(lp6490
I0
aI1
aI2
asI7601
(lp6491
I0
aI0
aI1
asI7602
(lp6492
I0
aI0
aI0
asI7603
(lp6493
I0
aI0
aI0
asI7604
(lp6494
I0
aI0
aI0
asI7605
(lp6495
I0
aI0
aI0
asI7606
(lp6496
I0
aI0
aI0
asI7607
(lp6497
I1
aI0
aI4
asI7608
(lp6498
I0
aI0
aI0
asI7609
(lp6499
I0
aI0
aI0
asI7610
(lp6500
I0
aI0
aI0
asI7611
(lp6501
I1
aI0
aI0
asI7612
(lp6502
I0
aI0
aI0
asI7613
(lp6503
I0
aI0
aI0
asI7614
(lp6504
I0
aI0
aI0
asI7615
(lp6505
I0
aI0
aI0
asI7616
(lp6506
I0
aI0
aI0
asI7617
(lp6507
I0
aI0
aI0
asI7618
(lp6508
I1
aI0
aI0
asI7619
(lp6509
I0
aI0
aI0
asI7620
(lp6510
I0
aI0
aI0
asI7621
(lp6511
I0
aI0
aI0
asI7622
(lp6512
I0
aI0
aI0
asI7623
(lp6513
I0
aI0
aI3
asI7624
(lp6514
I0
aI0
aI0
asI7625
(lp6515
I0
aI0
aI0
asI7626
(lp6516
I0
aI0
aI0
asI7627
(lp6517
I0
aI0
aI0
asI7628
(lp6518
I0
aI0
aI0
asI7629
(lp6519
I0
aI0
aI0
asI7630
(lp6520
I0
aI0
aI0
asI7631
(lp6521
I0
aI0
aI2
asI7632
(lp6522
I0
aI0
aI0
asI7634
(lp6523
I0
aI0
aI0
asI7635
(lp6524
I0
aI0
aI0
asI7636
(lp6525
I0
aI0
aI0
asI7637
(lp6526
I0
aI0
aI0
asI7638
(lp6527
I0
aI0
aI0
asI7639
(lp6528
I2
aI0
aI0
asI7640
(lp6529
I0
aI0
aI0
asI7641
(lp6530
I0
aI0
aI0
asI7642
(lp6531
I4
aI0
aI22
asI7643
(lp6532
I0
aI0
aI0
asI7644
(lp6533
I1
aI0
aI0
asI7645
(lp6534
I0
aI0
aI0
asI7646
(lp6535
I0
aI0
aI0
asI7647
(lp6536
I0
aI0
aI0
asI7648
(lp6537
I0
aI0
aI0
asI7649
(lp6538
I0
aI0
aI0
asI7650
(lp6539
I0
aI0
aI0
asI7651
(lp6540
I0
aI0
aI0
asI7652
(lp6541
I0
aI0
aI0
asI7654
(lp6542
I0
aI3
aI1
asI7655
(lp6543
I0
aI0
aI0
asI7656
(lp6544
I1
aI0
aI0
asI7657
(lp6545
I0
aI0
aI0
asI7658
(lp6546
I0
aI0
aI0
asI7659
(lp6547
I0
aI0
aI0
asI7660
(lp6548
I0
aI0
aI0
asI7661
(lp6549
I0
aI0
aI2
asI7662
(lp6550
I0
aI0
aI0
asI7663
(lp6551
I0
aI0
aI1
asI7664
(lp6552
I0
aI0
aI0
asI7665
(lp6553
I0
aI0
aI0
asI7666
(lp6554
I0
aI0
aI0
asI7667
(lp6555
I2
aI0
aI0
asI7668
(lp6556
I0
aI0
aI0
asI7669
(lp6557
I0
aI0
aI0
asI7670
(lp6558
I1
aI0
aI0
asI7671
(lp6559
I0
aI0
aI0
asI7672
(lp6560
I0
aI0
aI0
asI7673
(lp6561
I0
aI0
aI0
asI7674
(lp6562
I0
aI0
aI1
asI7675
(lp6563
I1
aI1
aI0
asI7676
(lp6564
I1
aI0
aI0
asI7677
(lp6565
I0
aI0
aI0
asI7678
(lp6566
I1
aI0
aI0
asI7679
(lp6567
I0
aI0
aI0
asI7680
(lp6568
I0
aI0
aI0
asI7681
(lp6569
I1
aI0
aI1
asI7682
(lp6570
I0
aI0
aI0
asI7683
(lp6571
I0
aI0
aI0
asI7684
(lp6572
I0
aI0
aI0
asI7685
(lp6573
I0
aI0
aI0
asI7686
(lp6574
I0
aI0
aI0
asI7687
(lp6575
I0
aI0
aI0
asI7688
(lp6576
I0
aI0
aI0
asI7689
(lp6577
I0
aI0
aI0
asI7690
(lp6578
I0
aI0
aI2
asI7691
(lp6579
I0
aI0
aI0
asI7692
(lp6580
I0
aI0
aI1
asI7693
(lp6581
I0
aI0
aI0
asI7694
(lp6582
I0
aI0
aI0
asI7695
(lp6583
I0
aI0
aI0
asI7696
(lp6584
I0
aI0
aI2
asI7697
(lp6585
I0
aI0
aI1
asI7698
(lp6586
I0
aI0
aI0
asI7699
(lp6587
I0
aI0
aI0
asI7700
(lp6588
I0
aI0
aI2
asI7701
(lp6589
I1
aI0
aI0
asI7702
(lp6590
I2
aI0
aI5
asI7703
(lp6591
I0
aI0
aI0
asI7704
(lp6592
I0
aI0
aI0
asI7705
(lp6593
I0
aI0
aI0
asI7706
(lp6594
I1
aI0
aI0
asI7707
(lp6595
I1
aI0
aI0
asI7708
(lp6596
I0
aI0
aI0
asI7709
(lp6597
I0
aI0
aI0
asI7710
(lp6598
I0
aI1
aI2
asI7711
(lp6599
I0
aI0
aI0
asI7712
(lp6600
I0
aI0
aI0
asI7713
(lp6601
I0
aI0
aI0
asI7714
(lp6602
I0
aI0
aI2
asI7715
(lp6603
I0
aI0
aI0
asI7716
(lp6604
I0
aI0
aI0
asI7717
(lp6605
I0
aI0
aI0
asI7718
(lp6606
I0
aI0
aI1
asI7719
(lp6607
I0
aI0
aI1
asI7720
(lp6608
I0
aI0
aI0
asI7721
(lp6609
I0
aI0
aI0
asI7722
(lp6610
I0
aI0
aI0
asI7723
(lp6611
I0
aI0
aI0
asI7724
(lp6612
I0
aI0
aI1
asI7725
(lp6613
I0
aI0
aI0
asI7726
(lp6614
I0
aI0
aI0
asI7727
(lp6615
I0
aI0
aI0
asI7728
(lp6616
I0
aI0
aI0
asI7729
(lp6617
I0
aI0
aI0
asI7730
(lp6618
I0
aI0
aI0
asI7731
(lp6619
I0
aI0
aI0
asI7732
(lp6620
I0
aI0
aI0
asI7733
(lp6621
I0
aI0
aI0
asI7734
(lp6622
I0
aI0
aI0
asI7735
(lp6623
I0
aI1
aI0
asI7736
(lp6624
I0
aI0
aI0
asI7737
(lp6625
I0
aI0
aI0
asI7738
(lp6626
I0
aI0
aI0
asI7739
(lp6627
I0
aI0
aI0
asI7740
(lp6628
I0
aI0
aI0
asI7741
(lp6629
I0
aI0
aI0
asI7742
(lp6630
I0
aI0
aI0
asI7743
(lp6631
I0
aI0
aI2
asI7744
(lp6632
I0
aI0
aI0
asI7745
(lp6633
I0
aI0
aI0
asI7746
(lp6634
I0
aI0
aI0
asI7747
(lp6635
I0
aI0
aI0
asI7748
(lp6636
I0
aI0
aI0
asI7749
(lp6637
I1
aI0
aI3
asI7750
(lp6638
I0
aI0
aI0
asI7751
(lp6639
I0
aI0
aI0
asI7752
(lp6640
I0
aI0
aI0
asI7753
(lp6641
I0
aI0
aI0
asI7754
(lp6642
I0
aI0
aI0
asI7755
(lp6643
I0
aI0
aI0
asI7756
(lp6644
I0
aI0
aI0
asI7757
(lp6645
I0
aI0
aI0
asI7758
(lp6646
I0
aI0
aI2
asI7759
(lp6647
I0
aI0
aI0
asI7760
(lp6648
I0
aI0
aI0
asI7761
(lp6649
I0
aI0
aI0
asI7762
(lp6650
I0
aI0
aI0
asI7763
(lp6651
I0
aI0
aI0
asI7764
(lp6652
I0
aI0
aI0
asI7765
(lp6653
I0
aI0
aI0
asI7766
(lp6654
I1
aI0
aI0
asI7767
(lp6655
I0
aI0
aI0
asI7768
(lp6656
I0
aI0
aI0
asI7769
(lp6657
I0
aI0
aI0
asI7770
(lp6658
I0
aI0
aI0
asI7771
(lp6659
I0
aI0
aI0
asI7772
(lp6660
I0
aI0
aI0
asI7773
(lp6661
I0
aI0
aI0
asI7774
(lp6662
I0
aI0
aI0
asI7775
(lp6663
I0
aI0
aI0
asI7776
(lp6664
I0
aI0
aI0
asI7777
(lp6665
I0
aI0
aI0
asI7778
(lp6666
I0
aI1
aI0
asI7779
(lp6667
I0
aI0
aI1
asI7780
(lp6668
I0
aI0
aI0
asI7781
(lp6669
I0
aI0
aI1
asI7782
(lp6670
I0
aI0
aI0
asI7783
(lp6671
I0
aI0
aI0
asI7784
(lp6672
I0
aI0
aI0
asI7785
(lp6673
I0
aI0
aI2
asI7786
(lp6674
I0
aI0
aI0
asI7787
(lp6675
I0
aI0
aI2
asI7788
(lp6676
I0
aI0
aI0
asI7789
(lp6677
I0
aI0
aI0
asI7790
(lp6678
I0
aI0
aI0
asI7791
(lp6679
I0
aI0
aI0
asI7792
(lp6680
I0
aI0
aI1
asI7793
(lp6681
I0
aI0
aI0
asI7794
(lp6682
I0
aI0
aI0
asI7795
(lp6683
I1
aI0
aI1
asI7796
(lp6684
I0
aI0
aI0
asI7797
(lp6685
I0
aI0
aI0
asI7798
(lp6686
I0
aI0
aI0
asI7799
(lp6687
I0
aI0
aI0
asI7800
(lp6688
I2
aI0
aI0
asI7801
(lp6689
I0
aI0
aI0
asI7802
(lp6690
I0
aI0
aI0
asI7803
(lp6691
I0
aI0
aI0
asI7804
(lp6692
I0
aI0
aI0
asI7805
(lp6693
I0
aI0
aI0
asI7806
(lp6694
I0
aI0
aI1
asI7807
(lp6695
I0
aI0
aI0
asI7808
(lp6696
I0
aI0
aI0
asI7809
(lp6697
I0
aI0
aI0
asI7810
(lp6698
I2
aI0
aI0
asI7811
(lp6699
I0
aI0
aI0
asI7812
(lp6700
I0
aI0
aI0
asI7813
(lp6701
I1
aI0
aI1
asI7814
(lp6702
I0
aI0
aI1
asI7815
(lp6703
I0
aI0
aI0
asI7816
(lp6704
I0
aI0
aI0
asI7817
(lp6705
I0
aI0
aI1
asI7818
(lp6706
I0
aI0
aI0
asI7819
(lp6707
I0
aI0
aI0
asI7820
(lp6708
I0
aI0
aI0
asI7821
(lp6709
I0
aI0
aI0
asI7822
(lp6710
I0
aI0
aI0
asI7823
(lp6711
I0
aI0
aI0
asI7824
(lp6712
I0
aI0
aI2
asI7825
(lp6713
I0
aI0
aI0
asI7826
(lp6714
I1
aI1
aI1
asI7827
(lp6715
I0
aI0
aI0
asI7828
(lp6716
I0
aI0
aI0
asI7829
(lp6717
I0
aI0
aI0
asI7830
(lp6718
I0
aI0
aI0
asI7831
(lp6719
I1
aI0
aI0
asI7832
(lp6720
I1
aI0
aI0
asI7833
(lp6721
I0
aI0
aI0
asI7834
(lp6722
I0
aI0
aI0
asI7835
(lp6723
I0
aI0
aI0
asI7836
(lp6724
I0
aI2
aI0
asI7837
(lp6725
I0
aI0
aI0
asI7838
(lp6726
I0
aI0
aI0
asI7839
(lp6727
I0
aI0
aI0
asI7840
(lp6728
I1
aI0
aI0
asI7841
(lp6729
I0
aI0
aI1
asI7842
(lp6730
I1
aI0
aI1
asI7843
(lp6731
I0
aI0
aI0
asI7844
(lp6732
I0
aI0
aI0
asI7845
(lp6733
I0
aI0
aI2
asI7846
(lp6734
I0
aI0
aI1
asI7847
(lp6735
I0
aI0
aI0
asI7848
(lp6736
I0
aI0
aI2
asI7849
(lp6737
I1
aI0
aI0
asI7850
(lp6738
I0
aI0
aI0
asI7851
(lp6739
I0
aI0
aI0
asI7852
(lp6740
I1
aI0
aI0
asI7853
(lp6741
I0
aI0
aI0
asI7854
(lp6742
I0
aI0
aI0
asI7855
(lp6743
I1
aI0
aI0
asI7856
(lp6744
I0
aI0
aI0
asI7857
(lp6745
I0
aI0
aI0
asI7858
(lp6746
I0
aI0
aI2
asI7859
(lp6747
I0
aI0
aI0
asI7860
(lp6748
I1
aI0
aI0
asI7861
(lp6749
I0
aI0
aI0
asI7862
(lp6750
I0
aI0
aI0
asI7863
(lp6751
I0
aI0
aI0
asI7864
(lp6752
I0
aI0
aI0
asI7865
(lp6753
I0
aI0
aI0
asI7866
(lp6754
I0
aI0
aI0
asI7867
(lp6755
I0
aI0
aI0
asI7868
(lp6756
I1
aI0
aI0
asI7869
(lp6757
I0
aI0
aI0
asI7870
(lp6758
I0
aI0
aI0
asI7871
(lp6759
I0
aI0
aI0
asI7872
(lp6760
I0
aI0
aI0
asI7873
(lp6761
I0
aI0
aI1
asI7874
(lp6762
I0
aI0
aI0
asI7875
(lp6763
I0
aI0
aI0
asI7876
(lp6764
I0
aI0
aI0
asI7877
(lp6765
I1
aI1
aI1
asI7878
(lp6766
I0
aI6
aI15
asI7879
(lp6767
I0
aI0
aI0
asI7880
(lp6768
I0
aI0
aI0
asI7881
(lp6769
I0
aI0
aI2
asI7882
(lp6770
I0
aI0
aI0
asI7883
(lp6771
I0
aI0
aI0
asI7884
(lp6772
I0
aI0
aI0
asI7885
(lp6773
I0
aI0
aI2
asI7886
(lp6774
I0
aI0
aI0
asI7887
(lp6775
I0
aI0
aI0
asI7888
(lp6776
I0
aI0
aI2
asI7889
(lp6777
I0
aI0
aI0
asI7890
(lp6778
I0
aI0
aI0
asI7891
(lp6779
I0
aI0
aI0
asI7892
(lp6780
I0
aI1
aI0
asI7893
(lp6781
I0
aI0
aI0
asI7894
(lp6782
I0
aI0
aI1
asI7895
(lp6783
I0
aI0
aI0
asI7896
(lp6784
I0
aI0
aI2
asI7897
(lp6785
I0
aI0
aI0
asI7898
(lp6786
I0
aI0
aI2
asI7899
(lp6787
I0
aI0
aI0
asI7900
(lp6788
I0
aI0
aI0
asI7901
(lp6789
I0
aI0
aI0
asI7902
(lp6790
I0
aI0
aI0
asI7903
(lp6791
I0
aI0
aI0
asI7904
(lp6792
I0
aI0
aI1
asI7905
(lp6793
I0
aI0
aI0
asI7906
(lp6794
I1
aI0
aI0
asI7907
(lp6795
I0
aI0
aI0
asI7908
(lp6796
I0
aI0
aI0
asI7909
(lp6797
I0
aI0
aI0
asI7910
(lp6798
I0
aI0
aI0
asI7911
(lp6799
I3
aI0
aI1
asI7912
(lp6800
I0
aI0
aI0
asI7913
(lp6801
I0
aI0
aI0
asI7914
(lp6802
I0
aI0
aI0
asI7915
(lp6803
I0
aI0
aI0
asI7916
(lp6804
I1
aI0
aI0
asI7917
(lp6805
I0
aI0
aI0
asI7918
(lp6806
I0
aI0
aI0
asI7919
(lp6807
I1
aI0
aI0
asI7920
(lp6808
I0
aI0
aI0
asI7921
(lp6809
I0
aI0
aI0
asI7922
(lp6810
I0
aI0
aI2
asI7923
(lp6811
I0
aI0
aI0
asI7924
(lp6812
I0
aI0
aI0
asI7925
(lp6813
I0
aI0
aI0
asI7926
(lp6814
I0
aI0
aI0
asI7927
(lp6815
I0
aI0
aI0
asI7928
(lp6816
I0
aI0
aI0
asI7929
(lp6817
I0
aI0
aI0
asI7930
(lp6818
I0
aI0
aI0
asI7931
(lp6819
I0
aI0
aI1
asI7932
(lp6820
I0
aI0
aI0
asI7933
(lp6821
I0
aI0
aI0
asI7934
(lp6822
I0
aI0
aI0
asI7935
(lp6823
I0
aI0
aI0
asI7936
(lp6824
I0
aI0
aI0
asI7937
(lp6825
I0
aI0
aI0
asI7938
(lp6826
I0
aI0
aI0
asI7939
(lp6827
I0
aI0
aI0
asI7940
(lp6828
I0
aI0
aI0
asI7941
(lp6829
I0
aI0
aI0
asI7942
(lp6830
I0
aI3
aI1
asI7943
(lp6831
I0
aI0
aI0
asI7944
(lp6832
I0
aI0
aI0
asI7945
(lp6833
I1
aI0
aI1
asI7946
(lp6834
I0
aI0
aI0
asI7947
(lp6835
I0
aI0
aI2
asI7948
(lp6836
I0
aI0
aI2
asI7949
(lp6837
I0
aI0
aI0
asI7950
(lp6838
I0
aI0
aI0
asI7951
(lp6839
I0
aI0
aI0
asI7952
(lp6840
I0
aI0
aI0
asI7953
(lp6841
I1
aI0
aI0
asI7954
(lp6842
I0
aI0
aI0
asI7955
(lp6843
I0
aI0
aI0
asI7956
(lp6844
I1
aI0
aI1
asI7957
(lp6845
I0
aI0
aI0
asI7958
(lp6846
I0
aI0
aI0
asI7959
(lp6847
I0
aI0
aI0
asI7960
(lp6848
I1
aI0
aI0
asI7961
(lp6849
I0
aI0
aI0
asI7962
(lp6850
I0
aI0
aI1
asI7963
(lp6851
I0
aI0
aI0
asI7964
(lp6852
I1
aI0
aI0
asI7965
(lp6853
I1
aI0
aI0
asI7966
(lp6854
I0
aI0
aI0
asI-1
(lp6855
I0
aI0
aI71
as.