cnumpy.core.multiarray
_reconstruct
p0
(cnumpy.matrixlib.defmatrix
matrix
p1
(I0
tp2
S'b'
p3
tp4
Rp5
(I1
(I2
I2
tp6
cnumpy
dtype
p7
(S'f8'
p8
I0
I1
tp9
Rp10
(I3
S'<'
p11
NNNI-1
I-1
I0
tp12
bI00
S'\xf1h\xe3\x88\xb5\xf8\xe4>A\t\xb9W\x9cmd?Z\xa5t*\xd2\x1dg?\xf1h\xe3\x88\xb5\xf8\xe4>'
p13
tp14
b.